
./lea:     file format elf64-x86-64


Disassembly of section .init:

0000000000403000 <_init>:
  403000:	f3 0f 1e fa          	endbr64 
  403004:	48 83 ec 08          	sub    $0x8,%rsp
  403008:	48 8b 05 e9 0f 01 00 	mov    0x10fe9(%rip),%rax        # 413ff8 <__gmon_start__>
  40300f:	48 85 c0             	test   %rax,%rax
  403012:	74 02                	je     403016 <_init+0x16>
  403014:	ff d0                	callq  *%rax
  403016:	48 83 c4 08          	add    $0x8,%rsp
  40301a:	c3                   	retq   

Disassembly of section .plt:

0000000000403020 <.plt>:
  403020:	ff 35 e2 0f 01 00    	pushq  0x10fe2(%rip)        # 414008 <_GLOBAL_OFFSET_TABLE_+0x8>
  403026:	ff 25 e4 0f 01 00    	jmpq   *0x10fe4(%rip)        # 414010 <_GLOBAL_OFFSET_TABLE_+0x10>
  40302c:	0f 1f 40 00          	nopl   0x0(%rax)

0000000000403030 <_ZNKSt7__cxx1112basic_stringIcSt11char_traitsIcESaIcEE8capacityEv@plt>:
  403030:	ff 25 e2 0f 01 00    	jmpq   *0x10fe2(%rip)        # 414018 <_ZNKSt7__cxx1112basic_stringIcSt11char_traitsIcESaIcEE8capacityEv@GLIBCXX_3.4.21>
  403036:	68 00 00 00 00       	pushq  $0x0
  40303b:	e9 e0 ff ff ff       	jmpq   403020 <.plt>

0000000000403040 <_ZNKSt7__cxx1112basic_stringIcSt11char_traitsIcESaIcEE7compareERKS4_@plt>:
  403040:	ff 25 da 0f 01 00    	jmpq   *0x10fda(%rip)        # 414020 <_ZNKSt7__cxx1112basic_stringIcSt11char_traitsIcESaIcEE7compareERKS4_@GLIBCXX_3.4.21>
  403046:	68 01 00 00 00       	pushq  $0x1
  40304b:	e9 d0 ff ff ff       	jmpq   403020 <.plt>

0000000000403050 <_ZNSt7__cxx1112basic_stringIcSt11char_traitsIcESaIcEEaSERKS4_@plt>:
  403050:	ff 25 d2 0f 01 00    	jmpq   *0x10fd2(%rip)        # 414028 <_ZNSt7__cxx1112basic_stringIcSt11char_traitsIcESaIcEEaSERKS4_@GLIBCXX_3.4.21>
  403056:	68 02 00 00 00       	pushq  $0x2
  40305b:	e9 c0 ff ff ff       	jmpq   403020 <.plt>

0000000000403060 <__errno_location@plt>:
  403060:	ff 25 ca 0f 01 00    	jmpq   *0x10fca(%rip)        # 414030 <__errno_location@GLIBC_2.2.5>
  403066:	68 03 00 00 00       	pushq  $0x3
  40306b:	e9 b0 ff ff ff       	jmpq   403020 <.plt>

0000000000403070 <printf@plt>:
  403070:	ff 25 c2 0f 01 00    	jmpq   *0x10fc2(%rip)        # 414038 <printf@GLIBC_2.2.5>
  403076:	68 04 00 00 00       	pushq  $0x4
  40307b:	e9 a0 ff ff ff       	jmpq   403020 <.plt>

0000000000403080 <_ZSt29_Rb_tree_insert_and_rebalancebPSt18_Rb_tree_node_baseS0_RS_@plt>:
  403080:	ff 25 ba 0f 01 00    	jmpq   *0x10fba(%rip)        # 414040 <_ZSt29_Rb_tree_insert_and_rebalancebPSt18_Rb_tree_node_baseS0_RS_@GLIBCXX_3.4>
  403086:	68 05 00 00 00       	pushq  $0x5
  40308b:	e9 90 ff ff ff       	jmpq   403020 <.plt>

0000000000403090 <_ZNSaIcED2Ev@plt>:
  403090:	ff 25 b2 0f 01 00    	jmpq   *0x10fb2(%rip)        # 414048 <_ZNSaIcED2Ev@GLIBCXX_3.4>
  403096:	68 06 00 00 00       	pushq  $0x6
  40309b:	e9 80 ff ff ff       	jmpq   403020 <.plt>

00000000004030a0 <clearerr@plt>:
  4030a0:	ff 25 aa 0f 01 00    	jmpq   *0x10faa(%rip)        # 414050 <clearerr@GLIBC_2.2.5>
  4030a6:	68 07 00 00 00       	pushq  $0x7
  4030ab:	e9 70 ff ff ff       	jmpq   403020 <.plt>

00000000004030b0 <sprintf@plt>:
  4030b0:	ff 25 a2 0f 01 00    	jmpq   *0x10fa2(%rip)        # 414058 <sprintf@GLIBC_2.2.5>
  4030b6:	68 08 00 00 00       	pushq  $0x8
  4030bb:	e9 60 ff ff ff       	jmpq   403020 <.plt>

00000000004030c0 <_ZNSt7__cxx1112basic_stringIcSt11char_traitsIcESaIcEE6insertEmPKc@plt>:
  4030c0:	ff 25 9a 0f 01 00    	jmpq   *0x10f9a(%rip)        # 414060 <_ZNSt7__cxx1112basic_stringIcSt11char_traitsIcESaIcEE6insertEmPKc@GLIBCXX_3.4.21>
  4030c6:	68 09 00 00 00       	pushq  $0x9
  4030cb:	e9 50 ff ff ff       	jmpq   403020 <.plt>

00000000004030d0 <getc@plt>:
  4030d0:	ff 25 92 0f 01 00    	jmpq   *0x10f92(%rip)        # 414068 <getc@GLIBC_2.2.5>
  4030d6:	68 0a 00 00 00       	pushq  $0xa
  4030db:	e9 40 ff ff ff       	jmpq   403020 <.plt>

00000000004030e0 <_ZNSt7__cxx1112basic_stringIcSt11char_traitsIcESaIcEE13_S_copy_charsEPcS5_S5_@plt>:
  4030e0:	ff 25 8a 0f 01 00    	jmpq   *0x10f8a(%rip)        # 414070 <_ZNSt7__cxx1112basic_stringIcSt11char_traitsIcESaIcEE13_S_copy_charsEPcS5_S5_@GLIBCXX_3.4.21>
  4030e6:	68 0b 00 00 00       	pushq  $0xb
  4030eb:	e9 30 ff ff ff       	jmpq   403020 <.plt>

00000000004030f0 <_ZNSolsEPFRSt8ios_baseS0_E@plt>:
  4030f0:	ff 25 82 0f 01 00    	jmpq   *0x10f82(%rip)        # 414078 <_ZNSolsEPFRSt8ios_baseS0_E@GLIBCXX_3.4>
  4030f6:	68 0c 00 00 00       	pushq  $0xc
  4030fb:	e9 20 ff ff ff       	jmpq   403020 <.plt>

0000000000403100 <_ZSt17__throw_bad_allocv@plt>:
  403100:	ff 25 7a 0f 01 00    	jmpq   *0x10f7a(%rip)        # 414080 <_ZSt17__throw_bad_allocv@GLIBCXX_3.4>
  403106:	68 0d 00 00 00       	pushq  $0xd
  40310b:	e9 10 ff ff ff       	jmpq   403020 <.plt>

0000000000403110 <__cxa_begin_catch@plt>:
  403110:	ff 25 72 0f 01 00    	jmpq   *0x10f72(%rip)        # 414088 <__cxa_begin_catch@CXXABI_1.3>
  403116:	68 0e 00 00 00       	pushq  $0xe
  40311b:	e9 00 ff ff ff       	jmpq   403020 <.plt>

0000000000403120 <_ZNKSt7__cxx1112basic_stringIcSt11char_traitsIcESaIcEE5c_strEv@plt>:
  403120:	ff 25 6a 0f 01 00    	jmpq   *0x10f6a(%rip)        # 414090 <_ZNKSt7__cxx1112basic_stringIcSt11char_traitsIcESaIcEE5c_strEv@GLIBCXX_3.4.21>
  403126:	68 0f 00 00 00       	pushq  $0xf
  40312b:	e9 f0 fe ff ff       	jmpq   403020 <.plt>

0000000000403130 <_ZNSt7__cxx1112basic_stringIcSt11char_traitsIcESaIcEEC1ERKS4_@plt>:
  403130:	ff 25 62 0f 01 00    	jmpq   *0x10f62(%rip)        # 414098 <_ZNSt7__cxx1112basic_stringIcSt11char_traitsIcESaIcEEC1ERKS4_@GLIBCXX_3.4.21>
  403136:	68 10 00 00 00       	pushq  $0x10
  40313b:	e9 e0 fe ff ff       	jmpq   403020 <.plt>

0000000000403140 <strlen@plt>:
  403140:	ff 25 5a 0f 01 00    	jmpq   *0x10f5a(%rip)        # 4140a0 <strlen@GLIBC_2.2.5>
  403146:	68 11 00 00 00       	pushq  $0x11
  40314b:	e9 d0 fe ff ff       	jmpq   403020 <.plt>

0000000000403150 <_ZSt4endlIcSt11char_traitsIcEERSt13basic_ostreamIT_T0_ES6_@plt>:
  403150:	ff 25 52 0f 01 00    	jmpq   *0x10f52(%rip)        # 4140a8 <_ZSt4endlIcSt11char_traitsIcEERSt13basic_ostreamIT_T0_ES6_@GLIBCXX_3.4>
  403156:	68 12 00 00 00       	pushq  $0x12
  40315b:	e9 c0 fe ff ff       	jmpq   403020 <.plt>

0000000000403160 <_ZSt20__throw_length_errorPKc@plt>:
  403160:	ff 25 4a 0f 01 00    	jmpq   *0x10f4a(%rip)        # 4140b0 <_ZSt20__throw_length_errorPKc@GLIBCXX_3.4>
  403166:	68 13 00 00 00       	pushq  $0x13
  40316b:	e9 b0 fe ff ff       	jmpq   403020 <.plt>

0000000000403170 <memset@plt>:
  403170:	ff 25 42 0f 01 00    	jmpq   *0x10f42(%rip)        # 4140b8 <memset@GLIBC_2.2.5>
  403176:	68 14 00 00 00       	pushq  $0x14
  40317b:	e9 a0 fe ff ff       	jmpq   403020 <.plt>

0000000000403180 <_ZNSt7__cxx1112basic_stringIcSt11char_traitsIcESaIcEEC1EOS4_@plt>:
  403180:	ff 25 3a 0f 01 00    	jmpq   *0x10f3a(%rip)        # 4140c0 <_ZNSt7__cxx1112basic_stringIcSt11char_traitsIcESaIcEEC1EOS4_@GLIBCXX_3.4.21>
  403186:	68 15 00 00 00       	pushq  $0x15
  40318b:	e9 90 fe ff ff       	jmpq   403020 <.plt>

0000000000403190 <_ZNSt7__cxx1112basic_stringIcSt11char_traitsIcESaIcEED1Ev@plt>:
  403190:	ff 25 32 0f 01 00    	jmpq   *0x10f32(%rip)        # 4140c8 <_ZNSt7__cxx1112basic_stringIcSt11char_traitsIcESaIcEED1Ev@GLIBCXX_3.4.21>
  403196:	68 16 00 00 00       	pushq  $0x16
  40319b:	e9 80 fe ff ff       	jmpq   403020 <.plt>

00000000004031a0 <vsnprintf@plt>:
  4031a0:	ff 25 2a 0f 01 00    	jmpq   *0x10f2a(%rip)        # 4140d0 <vsnprintf@GLIBC_2.2.5>
  4031a6:	68 17 00 00 00       	pushq  $0x17
  4031ab:	e9 70 fe ff ff       	jmpq   403020 <.plt>

00000000004031b0 <_ZSt20__throw_system_errori@plt>:
  4031b0:	ff 25 22 0f 01 00    	jmpq   *0x10f22(%rip)        # 4140d8 <_ZSt20__throw_system_errori@GLIBCXX_3.4.11>
  4031b6:	68 18 00 00 00       	pushq  $0x18
  4031bb:	e9 60 fe ff ff       	jmpq   403020 <.plt>

00000000004031c0 <_ZNSt7__cxx1112basic_stringIcSt11char_traitsIcESaIcEE13_M_set_lengthEm@plt>:
  4031c0:	ff 25 1a 0f 01 00    	jmpq   *0x10f1a(%rip)        # 4140e0 <_ZNSt7__cxx1112basic_stringIcSt11char_traitsIcESaIcEE13_M_set_lengthEm@GLIBCXX_3.4.21>
  4031c6:	68 19 00 00 00       	pushq  $0x19
  4031cb:	e9 50 fe ff ff       	jmpq   403020 <.plt>

00000000004031d0 <_ZSt18_Rb_tree_incrementPSt18_Rb_tree_node_base@plt>:
  4031d0:	ff 25 12 0f 01 00    	jmpq   *0x10f12(%rip)        # 4140e8 <_ZSt18_Rb_tree_incrementPSt18_Rb_tree_node_base@GLIBCXX_3.4>
  4031d6:	68 1a 00 00 00       	pushq  $0x1a
  4031db:	e9 40 fe ff ff       	jmpq   403020 <.plt>

00000000004031e0 <_ZNKSt7__cxx1112basic_stringIcSt11char_traitsIcESaIcEE4sizeEv@plt>:
  4031e0:	ff 25 0a 0f 01 00    	jmpq   *0x10f0a(%rip)        # 4140f0 <_ZNKSt7__cxx1112basic_stringIcSt11char_traitsIcESaIcEE4sizeEv@GLIBCXX_3.4.21>
  4031e6:	68 1b 00 00 00       	pushq  $0x1b
  4031eb:	e9 30 fe ff ff       	jmpq   403020 <.plt>

00000000004031f0 <_ZSt19__throw_logic_errorPKc@plt>:
  4031f0:	ff 25 02 0f 01 00    	jmpq   *0x10f02(%rip)        # 4140f8 <_ZSt19__throw_logic_errorPKc@GLIBCXX_3.4>
  4031f6:	68 1c 00 00 00       	pushq  $0x1c
  4031fb:	e9 20 fe ff ff       	jmpq   403020 <.plt>

0000000000403200 <pthread_mutex_unlock@plt>:
  403200:	ff 25 fa 0e 01 00    	jmpq   *0x10efa(%rip)        # 414100 <pthread_mutex_unlock@GLIBC_2.2.5>
  403206:	68 1d 00 00 00       	pushq  $0x1d
  40320b:	e9 10 fe ff ff       	jmpq   403020 <.plt>

0000000000403210 <_ZNSt7__cxx1112basic_stringIcSt11char_traitsIcESaIcEE13_M_local_dataEv@plt>:
  403210:	ff 25 f2 0e 01 00    	jmpq   *0x10ef2(%rip)        # 414108 <_ZNSt7__cxx1112basic_stringIcSt11char_traitsIcESaIcEE13_M_local_dataEv@GLIBCXX_3.4.21>
  403216:	68 1e 00 00 00       	pushq  $0x1e
  40321b:	e9 00 fe ff ff       	jmpq   403020 <.plt>

0000000000403220 <memcpy@plt>:
  403220:	ff 25 ea 0e 01 00    	jmpq   *0x10eea(%rip)        # 414110 <memcpy@GLIBC_2.14>
  403226:	68 1f 00 00 00       	pushq  $0x1f
  40322b:	e9 f0 fd ff ff       	jmpq   403020 <.plt>

0000000000403230 <_ZNSt7__cxx1112basic_stringIcSt11char_traitsIcESaIcEE7_M_dataEPc@plt>:
  403230:	ff 25 e2 0e 01 00    	jmpq   *0x10ee2(%rip)        # 414118 <_ZNSt7__cxx1112basic_stringIcSt11char_traitsIcESaIcEE7_M_dataEPc@GLIBCXX_3.4.21>
  403236:	68 20 00 00 00       	pushq  $0x20
  40323b:	e9 e0 fd ff ff       	jmpq   403020 <.plt>

0000000000403240 <__cxa_atexit@plt>:
  403240:	ff 25 da 0e 01 00    	jmpq   *0x10eda(%rip)        # 414120 <__cxa_atexit@GLIBC_2.2.5>
  403246:	68 21 00 00 00       	pushq  $0x21
  40324b:	e9 d0 fd ff ff       	jmpq   403020 <.plt>

0000000000403250 <_ZStlsIcSt11char_traitsIcESaIcEERSt13basic_ostreamIT_T0_ES7_RKNSt7__cxx1112basic_stringIS4_S5_T1_EE@plt>:
  403250:	ff 25 d2 0e 01 00    	jmpq   *0x10ed2(%rip)        # 414128 <_ZStlsIcSt11char_traitsIcESaIcEERSt13basic_ostreamIT_T0_ES7_RKNSt7__cxx1112basic_stringIS4_S5_T1_EE@GLIBCXX_3.4.21>
  403256:	68 22 00 00 00       	pushq  $0x22
  40325b:	e9 c0 fd ff ff       	jmpq   403020 <.plt>

0000000000403260 <_ZdlPv@plt>:
  403260:	ff 25 ca 0e 01 00    	jmpq   *0x10eca(%rip)        # 414130 <_ZdlPv@GLIBCXX_3.4>
  403266:	68 23 00 00 00       	pushq  $0x23
  40326b:	e9 b0 fd ff ff       	jmpq   403020 <.plt>

0000000000403270 <_ZStlsISt11char_traitsIcEERSt13basic_ostreamIcT_ES5_PKc@plt>:
  403270:	ff 25 c2 0e 01 00    	jmpq   *0x10ec2(%rip)        # 414138 <_ZStlsISt11char_traitsIcEERSt13basic_ostreamIcT_ES5_PKc@GLIBCXX_3.4>
  403276:	68 24 00 00 00       	pushq  $0x24
  40327b:	e9 a0 fd ff ff       	jmpq   403020 <.plt>

0000000000403280 <_Znwm@plt>:
  403280:	ff 25 ba 0e 01 00    	jmpq   *0x10eba(%rip)        # 414140 <_Znwm@GLIBCXX_3.4>
  403286:	68 25 00 00 00       	pushq  $0x25
  40328b:	e9 90 fd ff ff       	jmpq   403020 <.plt>

0000000000403290 <_ZSt18_Rb_tree_decrementPSt18_Rb_tree_node_base@plt>:
  403290:	ff 25 b2 0e 01 00    	jmpq   *0x10eb2(%rip)        # 414148 <_ZSt18_Rb_tree_decrementPSt18_Rb_tree_node_base@GLIBCXX_3.4>
  403296:	68 26 00 00 00       	pushq  $0x26
  40329b:	e9 80 fd ff ff       	jmpq   403020 <.plt>

00000000004032a0 <_ZNSolsEPFRSoS_E@plt>:
  4032a0:	ff 25 aa 0e 01 00    	jmpq   *0x10eaa(%rip)        # 414150 <_ZNSolsEPFRSoS_E@GLIBCXX_3.4>
  4032a6:	68 27 00 00 00       	pushq  $0x27
  4032ab:	e9 70 fd ff ff       	jmpq   403020 <.plt>

00000000004032b0 <_ZNSt7__cxx1112basic_stringIcSt11char_traitsIcESaIcEE12_Alloc_hiderC1EPcRKS3_@plt>:
  4032b0:	ff 25 a2 0e 01 00    	jmpq   *0x10ea2(%rip)        # 414158 <_ZNSt7__cxx1112basic_stringIcSt11char_traitsIcESaIcEE12_Alloc_hiderC1EPcRKS3_@GLIBCXX_3.4.21>
  4032b6:	68 28 00 00 00       	pushq  $0x28
  4032bb:	e9 60 fd ff ff       	jmpq   403020 <.plt>

00000000004032c0 <fileno@plt>:
  4032c0:	ff 25 9a 0e 01 00    	jmpq   *0x10e9a(%rip)        # 414160 <fileno@GLIBC_2.2.5>
  4032c6:	68 29 00 00 00       	pushq  $0x29
  4032cb:	e9 50 fd ff ff       	jmpq   403020 <.plt>

00000000004032d0 <_ZNSaIcED1Ev@plt>:
  4032d0:	ff 25 92 0e 01 00    	jmpq   *0x10e92(%rip)        # 414168 <_ZNSaIcED1Ev@GLIBCXX_3.4>
  4032d6:	68 2a 00 00 00       	pushq  $0x2a
  4032db:	e9 40 fd ff ff       	jmpq   403020 <.plt>

00000000004032e0 <_ZNKSt7__cxx1112basic_stringIcSt11char_traitsIcESaIcEE7_M_dataEv@plt>:
  4032e0:	ff 25 8a 0e 01 00    	jmpq   *0x10e8a(%rip)        # 414170 <_ZNKSt7__cxx1112basic_stringIcSt11char_traitsIcESaIcEE7_M_dataEv@GLIBCXX_3.4.21>
  4032e6:	68 2b 00 00 00       	pushq  $0x2b
  4032eb:	e9 30 fd ff ff       	jmpq   403020 <.plt>

00000000004032f0 <_ZStlsIcSt11char_traitsIcEERSt13basic_ostreamIT_T0_ES6_St5_Setw@plt>:
  4032f0:	ff 25 82 0e 01 00    	jmpq   *0x10e82(%rip)        # 414178 <_ZStlsIcSt11char_traitsIcEERSt13basic_ostreamIT_T0_ES6_St5_Setw@GLIBCXX_3.4>
  4032f6:	68 2c 00 00 00       	pushq  $0x2c
  4032fb:	e9 20 fd ff ff       	jmpq   403020 <.plt>

0000000000403300 <free@plt>:
  403300:	ff 25 7a 0e 01 00    	jmpq   *0x10e7a(%rip)        # 414180 <free@GLIBC_2.2.5>
  403306:	68 2d 00 00 00       	pushq  $0x2d
  40330b:	e9 10 fd ff ff       	jmpq   403020 <.plt>

0000000000403310 <exit@plt>:
  403310:	ff 25 72 0e 01 00    	jmpq   *0x10e72(%rip)        # 414188 <exit@GLIBC_2.2.5>
  403316:	68 2e 00 00 00       	pushq  $0x2e
  40331b:	e9 00 fd ff ff       	jmpq   403020 <.plt>

0000000000403320 <_ZNSt7__cxx1112basic_stringIcSt11char_traitsIcESaIcEE10_M_disposeEv@plt>:
  403320:	ff 25 6a 0e 01 00    	jmpq   *0x10e6a(%rip)        # 414190 <_ZNSt7__cxx1112basic_stringIcSt11char_traitsIcESaIcEE10_M_disposeEv@GLIBCXX_3.4.21>
  403326:	68 2f 00 00 00       	pushq  $0x2f
  40332b:	e9 f0 fc ff ff       	jmpq   403020 <.plt>

0000000000403330 <atof@plt>:
  403330:	ff 25 62 0e 01 00    	jmpq   *0x10e62(%rip)        # 414198 <atof@GLIBC_2.2.5>
  403336:	68 30 00 00 00       	pushq  $0x30
  40333b:	e9 e0 fc ff ff       	jmpq   403020 <.plt>

0000000000403340 <malloc@plt>:
  403340:	ff 25 5a 0e 01 00    	jmpq   *0x10e5a(%rip)        # 4141a0 <malloc@GLIBC_2.2.5>
  403346:	68 31 00 00 00       	pushq  $0x31
  40334b:	e9 d0 fc ff ff       	jmpq   403020 <.plt>

0000000000403350 <_ZNSt7__cxx1112basic_stringIcSt11char_traitsIcESaIcEEaSEPKc@plt>:
  403350:	ff 25 52 0e 01 00    	jmpq   *0x10e52(%rip)        # 4141a8 <_ZNSt7__cxx1112basic_stringIcSt11char_traitsIcESaIcEEaSEPKc@GLIBCXX_3.4.21>
  403356:	68 32 00 00 00       	pushq  $0x32
  40335b:	e9 c0 fc ff ff       	jmpq   403020 <.plt>

0000000000403360 <_ZNSt7__cxx1112basic_stringIcSt11char_traitsIcESaIcEEC1EPKcRKS3_@plt>:
  403360:	ff 25 4a 0e 01 00    	jmpq   *0x10e4a(%rip)        # 4141b0 <_ZNSt7__cxx1112basic_stringIcSt11char_traitsIcESaIcEEC1EPKcRKS3_@GLIBCXX_3.4.21>
  403366:	68 33 00 00 00       	pushq  $0x33
  40336b:	e9 b0 fc ff ff       	jmpq   403020 <.plt>

0000000000403370 <_ZNSt7__cxx1112basic_stringIcSt11char_traitsIcESaIcEEC1Ev@plt>:
  403370:	ff 25 42 0e 01 00    	jmpq   *0x10e42(%rip)        # 4141b8 <_ZNSt7__cxx1112basic_stringIcSt11char_traitsIcESaIcEEC1Ev@GLIBCXX_3.4.21>
  403376:	68 34 00 00 00       	pushq  $0x34
  40337b:	e9 a0 fc ff ff       	jmpq   403020 <.plt>

0000000000403380 <strcmp@plt>:
  403380:	ff 25 3a 0e 01 00    	jmpq   *0x10e3a(%rip)        # 4141c0 <strcmp@GLIBC_2.2.5>
  403386:	68 35 00 00 00       	pushq  $0x35
  40338b:	e9 90 fc ff ff       	jmpq   403020 <.plt>

0000000000403390 <fprintf@plt>:
  403390:	ff 25 32 0e 01 00    	jmpq   *0x10e32(%rip)        # 4141c8 <fprintf@GLIBC_2.2.5>
  403396:	68 36 00 00 00       	pushq  $0x36
  40339b:	e9 80 fc ff ff       	jmpq   403020 <.plt>

00000000004033a0 <__cxa_rethrow@plt>:
  4033a0:	ff 25 2a 0e 01 00    	jmpq   *0x10e2a(%rip)        # 4141d0 <__cxa_rethrow@CXXABI_1.3>
  4033a6:	68 37 00 00 00       	pushq  $0x37
  4033ab:	e9 70 fc ff ff       	jmpq   403020 <.plt>

00000000004033b0 <pthread_mutex_lock@plt>:
  4033b0:	ff 25 22 0e 01 00    	jmpq   *0x10e22(%rip)        # 4141d8 <pthread_mutex_lock@GLIBC_2.2.5>
  4033b6:	68 38 00 00 00       	pushq  $0x38
  4033bb:	e9 60 fc ff ff       	jmpq   403020 <.plt>

00000000004033c0 <fread@plt>:
  4033c0:	ff 25 1a 0e 01 00    	jmpq   *0x10e1a(%rip)        # 4141e0 <fread@GLIBC_2.2.5>
  4033c6:	68 39 00 00 00       	pushq  $0x39
  4033cb:	e9 50 fc ff ff       	jmpq   403020 <.plt>

00000000004033d0 <_ZNSt8ios_base4InitC1Ev@plt>:
  4033d0:	ff 25 12 0e 01 00    	jmpq   *0x10e12(%rip)        # 4141e8 <_ZNSt8ios_base4InitC1Ev@GLIBCXX_3.4>
  4033d6:	68 3a 00 00 00       	pushq  $0x3a
  4033db:	e9 40 fc ff ff       	jmpq   403020 <.plt>

00000000004033e0 <puts@plt>:
  4033e0:	ff 25 0a 0e 01 00    	jmpq   *0x10e0a(%rip)        # 4141f0 <puts@GLIBC_2.2.5>
  4033e6:	68 3b 00 00 00       	pushq  $0x3b
  4033eb:	e9 30 fc ff ff       	jmpq   403020 <.plt>

00000000004033f0 <atoi@plt>:
  4033f0:	ff 25 02 0e 01 00    	jmpq   *0x10e02(%rip)        # 4141f8 <atoi@GLIBC_2.2.5>
  4033f6:	68 3c 00 00 00       	pushq  $0x3c
  4033fb:	e9 20 fc ff ff       	jmpq   403020 <.plt>

0000000000403400 <_ZNSt7__cxx1112basic_stringIcSt11char_traitsIcESaIcEE6insertEmRKS4_@plt>:
  403400:	ff 25 fa 0d 01 00    	jmpq   *0x10dfa(%rip)        # 414200 <_ZNSt7__cxx1112basic_stringIcSt11char_traitsIcESaIcEE6insertEmRKS4_@GLIBCXX_3.4.21>
  403406:	68 3d 00 00 00       	pushq  $0x3d
  40340b:	e9 10 fc ff ff       	jmpq   403020 <.plt>

0000000000403410 <memmove@plt>:
  403410:	ff 25 f2 0d 01 00    	jmpq   *0x10df2(%rip)        # 414208 <memmove@GLIBC_2.2.5>
  403416:	68 3e 00 00 00       	pushq  $0x3e
  40341b:	e9 00 fc ff ff       	jmpq   403020 <.plt>

0000000000403420 <__cxa_end_catch@plt>:
  403420:	ff 25 ea 0d 01 00    	jmpq   *0x10dea(%rip)        # 414210 <__cxa_end_catch@CXXABI_1.3>
  403426:	68 3f 00 00 00       	pushq  $0x3f
  40342b:	e9 f0 fb ff ff       	jmpq   403020 <.plt>

0000000000403430 <realloc@plt>:
  403430:	ff 25 e2 0d 01 00    	jmpq   *0x10de2(%rip)        # 414218 <realloc@GLIBC_2.2.5>
  403436:	68 40 00 00 00       	pushq  $0x40
  40343b:	e9 e0 fb ff ff       	jmpq   403020 <.plt>

0000000000403440 <__gxx_personality_v0@plt>:
  403440:	ff 25 da 0d 01 00    	jmpq   *0x10dda(%rip)        # 414220 <__gxx_personality_v0@CXXABI_1.3>
  403446:	68 41 00 00 00       	pushq  $0x41
  40344b:	e9 d0 fb ff ff       	jmpq   403020 <.plt>

0000000000403450 <_ZNKSt7__cxx1112basic_stringIcSt11char_traitsIcESaIcEE5emptyEv@plt>:
  403450:	ff 25 d2 0d 01 00    	jmpq   *0x10dd2(%rip)        # 414228 <_ZNKSt7__cxx1112basic_stringIcSt11char_traitsIcESaIcEE5emptyEv@GLIBCXX_3.4.21>
  403456:	68 42 00 00 00       	pushq  $0x42
  40345b:	e9 c0 fb ff ff       	jmpq   403020 <.plt>

0000000000403460 <isatty@plt>:
  403460:	ff 25 ca 0d 01 00    	jmpq   *0x10dca(%rip)        # 414230 <isatty@GLIBC_2.2.5>
  403466:	68 43 00 00 00       	pushq  $0x43
  40346b:	e9 b0 fb ff ff       	jmpq   403020 <.plt>

0000000000403470 <_Unwind_Resume@plt>:
  403470:	ff 25 c2 0d 01 00    	jmpq   *0x10dc2(%rip)        # 414238 <_Unwind_Resume@GCC_3.0>
  403476:	68 44 00 00 00       	pushq  $0x44
  40347b:	e9 a0 fb ff ff       	jmpq   403020 <.plt>

0000000000403480 <_ZNSaIcEC1Ev@plt>:
  403480:	ff 25 ba 0d 01 00    	jmpq   *0x10dba(%rip)        # 414240 <_ZNSaIcEC1Ev@GLIBCXX_3.4>
  403486:	68 45 00 00 00       	pushq  $0x45
  40348b:	e9 90 fb ff ff       	jmpq   403020 <.plt>

0000000000403490 <_ZNSt7__cxx1112basic_stringIcSt11char_traitsIcESaIcEE9_M_createERmm@plt>:
  403490:	ff 25 b2 0d 01 00    	jmpq   *0x10db2(%rip)        # 414248 <_ZNSt7__cxx1112basic_stringIcSt11char_traitsIcESaIcEE9_M_createERmm@GLIBCXX_3.4.21>
  403496:	68 46 00 00 00       	pushq  $0x46
  40349b:	e9 80 fb ff ff       	jmpq   403020 <.plt>

00000000004034a0 <_ZNSolsEl@plt>:
  4034a0:	ff 25 aa 0d 01 00    	jmpq   *0x10daa(%rip)        # 414250 <_ZNSolsEl@GLIBCXX_3.4>
  4034a6:	68 47 00 00 00       	pushq  $0x47
  4034ab:	e9 70 fb ff ff       	jmpq   403020 <.plt>

00000000004034b0 <ferror@plt>:
  4034b0:	ff 25 a2 0d 01 00    	jmpq   *0x10da2(%rip)        # 414258 <ferror@GLIBC_2.2.5>
  4034b6:	68 48 00 00 00       	pushq  $0x48
  4034bb:	e9 60 fb ff ff       	jmpq   403020 <.plt>

00000000004034c0 <_ZNSt7__cxx1112basic_stringIcSt11char_traitsIcESaIcEE6appendEPKc@plt>:
  4034c0:	ff 25 9a 0d 01 00    	jmpq   *0x10d9a(%rip)        # 414260 <_ZNSt7__cxx1112basic_stringIcSt11char_traitsIcESaIcEE6appendEPKc@GLIBCXX_3.4.21>
  4034c6:	68 49 00 00 00       	pushq  $0x49
  4034cb:	e9 50 fb ff ff       	jmpq   403020 <.plt>

00000000004034d0 <fwrite@plt>:
  4034d0:	ff 25 92 0d 01 00    	jmpq   *0x10d92(%rip)        # 414268 <fwrite@GLIBC_2.2.5>
  4034d6:	68 4a 00 00 00       	pushq  $0x4a
  4034db:	e9 40 fb ff ff       	jmpq   403020 <.plt>

00000000004034e0 <_ZNSt7__cxx1112basic_stringIcSt11char_traitsIcESaIcEE6appendERKS4_@plt>:
  4034e0:	ff 25 8a 0d 01 00    	jmpq   *0x10d8a(%rip)        # 414270 <_ZNSt7__cxx1112basic_stringIcSt11char_traitsIcESaIcEE6appendERKS4_@GLIBCXX_3.4.21>
  4034e6:	68 4b 00 00 00       	pushq  $0x4b
  4034eb:	e9 30 fb ff ff       	jmpq   403020 <.plt>

00000000004034f0 <_ZNSt7__cxx1112basic_stringIcSt11char_traitsIcESaIcEE11_M_capacityEm@plt>:
  4034f0:	ff 25 82 0d 01 00    	jmpq   *0x10d82(%rip)        # 414278 <_ZNSt7__cxx1112basic_stringIcSt11char_traitsIcESaIcEE11_M_capacityEm@GLIBCXX_3.4.21>
  4034f6:	68 4c 00 00 00       	pushq  $0x4c
  4034fb:	e9 20 fb ff ff       	jmpq   403020 <.plt>

0000000000403500 <_ZNSt8ios_base4InitD1Ev@plt>:
  403500:	ff 25 7a 0d 01 00    	jmpq   *0x10d7a(%rip)        # 414280 <_ZNSt8ios_base4InitD1Ev@GLIBCXX_3.4>
  403506:	68 4d 00 00 00       	pushq  $0x4d
  40350b:	e9 10 fb ff ff       	jmpq   403020 <.plt>

Disassembly of section .text:

0000000000403510 <_start>:
  403510:	f3 0f 1e fa          	endbr64 
  403514:	31 ed                	xor    %ebp,%ebp
  403516:	49 89 d1             	mov    %rdx,%r9
  403519:	5e                   	pop    %rsi
  40351a:	48 89 e2             	mov    %rsp,%rdx
  40351d:	48 83 e4 f0          	and    $0xfffffffffffffff0,%rsp
  403521:	50                   	push   %rax
  403522:	54                   	push   %rsp
  403523:	49 c7 c0 d0 b9 40 00 	mov    $0x40b9d0,%r8
  40352a:	48 c7 c1 60 b9 40 00 	mov    $0x40b960,%rcx
  403531:	48 c7 c7 f2 35 40 00 	mov    $0x4035f2,%rdi
  403538:	ff 15 b2 0a 01 00    	callq  *0x10ab2(%rip)        # 413ff0 <__libc_start_main@GLIBC_2.2.5>
  40353e:	f4                   	hlt    
  40353f:	90                   	nop

0000000000403540 <_dl_relocate_static_pie>:
  403540:	f3 0f 1e fa          	endbr64 
  403544:	c3                   	retq   
  403545:	66 2e 0f 1f 84 00 00 	nopw   %cs:0x0(%rax,%rax,1)
  40354c:	00 00 00 
  40354f:	90                   	nop

0000000000403550 <deregister_tm_clones>:
  403550:	b8 a8 42 41 00       	mov    $0x4142a8,%eax
  403555:	48 3d a8 42 41 00    	cmp    $0x4142a8,%rax
  40355b:	74 13                	je     403570 <deregister_tm_clones+0x20>
  40355d:	b8 00 00 00 00       	mov    $0x0,%eax
  403562:	48 85 c0             	test   %rax,%rax
  403565:	74 09                	je     403570 <deregister_tm_clones+0x20>
  403567:	bf a8 42 41 00       	mov    $0x4142a8,%edi
  40356c:	ff e0                	jmpq   *%rax
  40356e:	66 90                	xchg   %ax,%ax
  403570:	c3                   	retq   
  403571:	66 66 2e 0f 1f 84 00 	data16 nopw %cs:0x0(%rax,%rax,1)
  403578:	00 00 00 00 
  40357c:	0f 1f 40 00          	nopl   0x0(%rax)

0000000000403580 <register_tm_clones>:
  403580:	be a8 42 41 00       	mov    $0x4142a8,%esi
  403585:	48 81 ee a8 42 41 00 	sub    $0x4142a8,%rsi
  40358c:	48 c1 fe 03          	sar    $0x3,%rsi
  403590:	48 89 f0             	mov    %rsi,%rax
  403593:	48 c1 e8 3f          	shr    $0x3f,%rax
  403597:	48 01 c6             	add    %rax,%rsi
  40359a:	48 d1 fe             	sar    %rsi
  40359d:	74 11                	je     4035b0 <register_tm_clones+0x30>
  40359f:	b8 00 00 00 00       	mov    $0x0,%eax
  4035a4:	48 85 c0             	test   %rax,%rax
  4035a7:	74 07                	je     4035b0 <register_tm_clones+0x30>
  4035a9:	bf a8 42 41 00       	mov    $0x4142a8,%edi
  4035ae:	ff e0                	jmpq   *%rax
  4035b0:	c3                   	retq   
  4035b1:	66 66 2e 0f 1f 84 00 	data16 nopw %cs:0x0(%rax,%rax,1)
  4035b8:	00 00 00 00 
  4035bc:	0f 1f 40 00          	nopl   0x0(%rax)

00000000004035c0 <__do_global_dtors_aux>:
  4035c0:	80 3d 69 0f 01 00 00 	cmpb   $0x0,0x10f69(%rip)        # 414530 <completed.7313>
  4035c7:	75 17                	jne    4035e0 <__do_global_dtors_aux+0x20>
  4035c9:	55                   	push   %rbp
  4035ca:	48 89 e5             	mov    %rsp,%rbp
  4035cd:	e8 7e ff ff ff       	callq  403550 <deregister_tm_clones>
  4035d2:	c6 05 57 0f 01 00 01 	movb   $0x1,0x10f57(%rip)        # 414530 <completed.7313>
  4035d9:	5d                   	pop    %rbp
  4035da:	c3                   	retq   
  4035db:	0f 1f 44 00 00       	nopl   0x0(%rax,%rax,1)
  4035e0:	c3                   	retq   
  4035e1:	66 66 2e 0f 1f 84 00 	data16 nopw %cs:0x0(%rax,%rax,1)
  4035e8:	00 00 00 00 
  4035ec:	0f 1f 40 00          	nopl   0x0(%rax)

00000000004035f0 <frame_dummy>:
  4035f0:	eb 8e                	jmp    403580 <register_tm_clones>

00000000004035f2 <main>:
  4035f2:	55                   	push   %rbp
  4035f3:	48 89 e5             	mov    %rsp,%rbp
  4035f6:	48 83 ec 10          	sub    $0x10,%rsp
  4035fa:	89 7d fc             	mov    %edi,-0x4(%rbp)
  4035fd:	48 89 75 f0          	mov    %rsi,-0x10(%rbp)
  403601:	e8 28 00 00 00       	callq  40362e <yyparse>
  403606:	b8 00 00 00 00       	mov    $0x0,%eax
  40360b:	c9                   	leaveq 
  40360c:	c3                   	retq   

000000000040360d <yydestruct>:
  40360d:	55                   	push   %rbp
  40360e:	48 89 e5             	mov    %rsp,%rbp
  403611:	48 89 7d f8          	mov    %rdi,-0x8(%rbp)
  403615:	89 75 f4             	mov    %esi,-0xc(%rbp)
  403618:	48 89 55 e8          	mov    %rdx,-0x18(%rbp)
  40361c:	48 83 7d f8 00       	cmpq   $0x0,-0x8(%rbp)
  403621:	75 08                	jne    40362b <yydestruct+0x1e>
  403623:	48 c7 45 f8 0d d1 40 	movq   $0x40d10d,-0x8(%rbp)
  40362a:	00 
  40362b:	90                   	nop
  40362c:	5d                   	pop    %rbp
  40362d:	c3                   	retq   

000000000040362e <yyparse>:
  40362e:	55                   	push   %rbp
  40362f:	48 89 e5             	mov    %rsp,%rbp
  403632:	48 81 ec 50 08 00 00 	sub    $0x850,%rsp
  403639:	c7 45 fc 00 00 00 00 	movl   $0x0,-0x4(%rbp)
  403640:	c7 45 f8 00 00 00 00 	movl   $0x0,-0x8(%rbp)
  403647:	48 c7 45 f0 c8 00 00 	movq   $0xc8,-0x10(%rbp)
  40364e:	00 
  40364f:	48 8d 85 00 fe ff ff 	lea    -0x200(%rbp),%rax
  403656:	48 89 45 e8          	mov    %rax,-0x18(%rbp)
  40365a:	48 8b 45 e8          	mov    -0x18(%rbp),%rax
  40365e:	48 89 45 e0          	mov    %rax,-0x20(%rbp)
  403662:	48 8d 85 c0 f7 ff ff 	lea    -0x840(%rbp),%rax
  403669:	48 89 45 d8          	mov    %rax,-0x28(%rbp)
  40366d:	48 8b 45 d8          	mov    -0x28(%rbp),%rax
  403671:	48 89 45 d0          	mov    %rax,-0x30(%rbp)
  403675:	c7 45 c4 fe ff ff ff 	movl   $0xfffffffe,-0x3c(%rbp)
  40367c:	c7 45 c0 00 00 00 00 	movl   $0x0,-0x40(%rbp)
  403683:	c7 05 53 13 01 00 fe 	movl   $0xfffffffe,0x11353(%rip)        # 4149e0 <yychar>
  40368a:	ff ff ff 
  40368d:	eb 05                	jmp    403694 <yyparse+0x66>
  40368f:	48 83 45 e0 02       	addq   $0x2,-0x20(%rbp)
  403694:	8b 45 fc             	mov    -0x4(%rbp),%eax
  403697:	89 c2                	mov    %eax,%edx
  403699:	48 8b 45 e0          	mov    -0x20(%rbp),%rax
  40369d:	66 89 10             	mov    %dx,(%rax)
  4036a0:	48 8b 45 f0          	mov    -0x10(%rbp),%rax
  4036a4:	48 01 c0             	add    %rax,%rax
  4036a7:	48 8d 50 fe          	lea    -0x2(%rax),%rdx
  4036ab:	48 8b 45 e8          	mov    -0x18(%rbp),%rax
  4036af:	48 01 d0             	add    %rdx,%rax
  4036b2:	48 39 45 e0          	cmp    %rax,-0x20(%rbp)
  4036b6:	0f 82 72 01 00 00    	jb     40382e <yyparse+0x200>
  4036bc:	48 8b 45 e0          	mov    -0x20(%rbp),%rax
  4036c0:	48 2b 45 e8          	sub    -0x18(%rbp),%rax
  4036c4:	48 d1 f8             	sar    %rax
  4036c7:	48 83 c0 01          	add    $0x1,%rax
  4036cb:	48 89 45 b8          	mov    %rax,-0x48(%rbp)
  4036cf:	48 81 7d f0 0f 27 00 	cmpq   $0x270f,-0x10(%rbp)
  4036d6:	00 
  4036d7:	0f 8f 7d 08 00 00    	jg     403f5a <yyparse+0x92c>
  4036dd:	48 d1 65 f0          	shlq   -0x10(%rbp)
  4036e1:	48 81 7d f0 10 27 00 	cmpq   $0x2710,-0x10(%rbp)
  4036e8:	00 
  4036e9:	7e 08                	jle    4036f3 <yyparse+0xc5>
  4036eb:	48 c7 45 f0 10 27 00 	movq   $0x2710,-0x10(%rbp)
  4036f2:	00 
  4036f3:	48 8b 45 e8          	mov    -0x18(%rbp),%rax
  4036f7:	48 89 45 b0          	mov    %rax,-0x50(%rbp)
  4036fb:	48 8b 55 f0          	mov    -0x10(%rbp),%rdx
  4036ff:	48 89 d0             	mov    %rdx,%rax
  403702:	48 c1 e0 02          	shl    $0x2,%rax
  403706:	48 01 d0             	add    %rdx,%rax
  403709:	48 01 c0             	add    %rax,%rax
  40370c:	48 83 c0 07          	add    $0x7,%rax
  403710:	48 89 c7             	mov    %rax,%rdi
  403713:	e8 28 fc ff ff       	callq  403340 <malloc@plt>
  403718:	48 89 45 a8          	mov    %rax,-0x58(%rbp)
  40371c:	48 83 7d a8 00       	cmpq   $0x0,-0x58(%rbp)
  403721:	0f 84 36 08 00 00    	je     403f5d <yyparse+0x92f>
  403727:	48 8b 45 b8          	mov    -0x48(%rbp),%rax
  40372b:	48 8d 0c 00          	lea    (%rax,%rax,1),%rcx
  40372f:	48 8b 55 a8          	mov    -0x58(%rbp),%rdx
  403733:	48 8b 45 e8          	mov    -0x18(%rbp),%rax
  403737:	48 89 d7             	mov    %rdx,%rdi
  40373a:	48 89 ca             	mov    %rcx,%rdx
  40373d:	48 89 c6             	mov    %rax,%rsi
  403740:	e8 db fa ff ff       	callq  403220 <memcpy@plt>
  403745:	48 8b 45 a8          	mov    -0x58(%rbp),%rax
  403749:	48 89 45 e8          	mov    %rax,-0x18(%rbp)
  40374d:	48 8b 45 f0          	mov    -0x10(%rbp),%rax
  403751:	48 01 c0             	add    %rax,%rax
  403754:	48 83 c0 07          	add    $0x7,%rax
  403758:	48 89 45 a0          	mov    %rax,-0x60(%rbp)
  40375c:	48 8b 45 a0          	mov    -0x60(%rbp),%rax
  403760:	48 8d 50 07          	lea    0x7(%rax),%rdx
  403764:	48 85 c0             	test   %rax,%rax
  403767:	48 0f 48 c2          	cmovs  %rdx,%rax
  40376b:	48 c1 f8 03          	sar    $0x3,%rax
  40376f:	48 c1 e0 03          	shl    $0x3,%rax
  403773:	48 01 45 a8          	add    %rax,-0x58(%rbp)
  403777:	48 8b 45 b8          	mov    -0x48(%rbp),%rax
  40377b:	48 8d 0c c5 00 00 00 	lea    0x0(,%rax,8),%rcx
  403782:	00 
  403783:	48 8b 55 a8          	mov    -0x58(%rbp),%rdx
  403787:	48 8b 45 d8          	mov    -0x28(%rbp),%rax
  40378b:	48 89 d7             	mov    %rdx,%rdi
  40378e:	48 89 ca             	mov    %rcx,%rdx
  403791:	48 89 c6             	mov    %rax,%rsi
  403794:	e8 87 fa ff ff       	callq  403220 <memcpy@plt>
  403799:	48 8b 45 a8          	mov    -0x58(%rbp),%rax
  40379d:	48 89 45 d8          	mov    %rax,-0x28(%rbp)
  4037a1:	48 8b 45 f0          	mov    -0x10(%rbp),%rax
  4037a5:	48 c1 e0 03          	shl    $0x3,%rax
  4037a9:	48 83 c0 07          	add    $0x7,%rax
  4037ad:	48 89 45 98          	mov    %rax,-0x68(%rbp)
  4037b1:	48 8b 45 98          	mov    -0x68(%rbp),%rax
  4037b5:	48 8d 50 07          	lea    0x7(%rax),%rdx
  4037b9:	48 85 c0             	test   %rax,%rax
  4037bc:	48 0f 48 c2          	cmovs  %rdx,%rax
  4037c0:	48 c1 f8 03          	sar    $0x3,%rax
  4037c4:	48 c1 e0 03          	shl    $0x3,%rax
  4037c8:	48 01 45 a8          	add    %rax,-0x58(%rbp)
  4037cc:	48 8d 85 00 fe ff ff 	lea    -0x200(%rbp),%rax
  4037d3:	48 39 45 b0          	cmp    %rax,-0x50(%rbp)
  4037d7:	74 0c                	je     4037e5 <yyparse+0x1b7>
  4037d9:	48 8b 45 b0          	mov    -0x50(%rbp),%rax
  4037dd:	48 89 c7             	mov    %rax,%rdi
  4037e0:	e8 1b fb ff ff       	callq  403300 <free@plt>
  4037e5:	48 8b 45 b8          	mov    -0x48(%rbp),%rax
  4037e9:	48 01 c0             	add    %rax,%rax
  4037ec:	48 8d 50 fe          	lea    -0x2(%rax),%rdx
  4037f0:	48 8b 45 e8          	mov    -0x18(%rbp),%rax
  4037f4:	48 01 d0             	add    %rdx,%rax
  4037f7:	48 89 45 e0          	mov    %rax,-0x20(%rbp)
  4037fb:	48 8b 45 b8          	mov    -0x48(%rbp),%rax
  4037ff:	48 c1 e0 03          	shl    $0x3,%rax
  403803:	48 8d 50 f8          	lea    -0x8(%rax),%rdx
  403807:	48 8b 45 d8          	mov    -0x28(%rbp),%rax
  40380b:	48 01 d0             	add    %rdx,%rax
  40380e:	48 89 45 d0          	mov    %rax,-0x30(%rbp)
  403812:	48 8b 45 f0          	mov    -0x10(%rbp),%rax
  403816:	48 01 c0             	add    %rax,%rax
  403819:	48 8d 50 fe          	lea    -0x2(%rax),%rdx
  40381d:	48 8b 45 e8          	mov    -0x18(%rbp),%rax
  403821:	48 01 d0             	add    %rdx,%rax
  403824:	48 39 45 e0          	cmp    %rax,-0x20(%rbp)
  403828:	0f 83 1f 07 00 00    	jae    403f4d <yyparse+0x91f>
  40382e:	83 7d fc 03          	cmpl   $0x3,-0x4(%rbp)
  403832:	0f 84 0b 07 00 00    	je     403f43 <yyparse+0x915>
  403838:	90                   	nop
  403839:	8b 45 fc             	mov    -0x4(%rbp),%eax
  40383c:	48 98                	cltq   
  40383e:	0f b7 84 00 60 c1 40 	movzwl 0x40c160(%rax,%rax,1),%eax
  403845:	00 
  403846:	98                   	cwtl   
  403847:	89 45 cc             	mov    %eax,-0x34(%rbp)
  40384a:	81 7d cc 49 ff ff ff 	cmpl   $0xffffff49,-0x34(%rbp)
  403851:	0f 84 ff 00 00 00    	je     403956 <yyparse+0x328>
  403857:	8b 05 83 11 01 00    	mov    0x11183(%rip),%eax        # 4149e0 <yychar>
  40385d:	83 f8 fe             	cmp    $0xfffffffe,%eax
  403860:	75 0b                	jne    40386d <yyparse+0x23f>
  403862:	e8 f7 07 00 00       	callq  40405e <yylex>
  403867:	89 05 73 11 01 00    	mov    %eax,0x11173(%rip)        # 4149e0 <yychar>
  40386d:	8b 05 6d 11 01 00    	mov    0x1116d(%rip),%eax        # 4149e0 <yychar>
  403873:	85 c0                	test   %eax,%eax
  403875:	7f 13                	jg     40388a <yyparse+0x25c>
  403877:	c7 05 5f 11 01 00 00 	movl   $0x0,0x1115f(%rip)        # 4149e0 <yychar>
  40387e:	00 00 00 
  403881:	c7 45 c4 00 00 00 00 	movl   $0x0,-0x3c(%rbp)
  403888:	eb 56                	jmp    4038e0 <yyparse+0x2b2>
  40388a:	8b 05 50 11 01 00    	mov    0x11150(%rip),%eax        # 4149e0 <yychar>
  403890:	3d 00 01 00 00       	cmp    $0x100,%eax
  403895:	75 16                	jne    4038ad <yyparse+0x27f>
  403897:	c7 05 3f 11 01 00 01 	movl   $0x101,0x1113f(%rip)        # 4149e0 <yychar>
  40389e:	01 00 00 
  4038a1:	c7 45 c4 01 00 00 00 	movl   $0x1,-0x3c(%rbp)
  4038a8:	e9 d6 05 00 00       	jmpq   403e83 <yyparse+0x855>
  4038ad:	8b 05 2d 11 01 00    	mov    0x1112d(%rip),%eax        # 4149e0 <yychar>
  4038b3:	85 c0                	test   %eax,%eax
  4038b5:	78 21                	js     4038d8 <yyparse+0x2aa>
  4038b7:	8b 05 23 11 01 00    	mov    0x11123(%rip),%eax        # 4149e0 <yychar>
  4038bd:	3d 36 01 00 00       	cmp    $0x136,%eax
  4038c2:	7f 14                	jg     4038d8 <yyparse+0x2aa>
  4038c4:	8b 05 16 11 01 00    	mov    0x11116(%rip),%eax        # 4149e0 <yychar>
  4038ca:	48 98                	cltq   
  4038cc:	0f b6 80 20 c0 40 00 	movzbl 0x40c020(%rax),%eax
  4038d3:	0f be c0             	movsbl %al,%eax
  4038d6:	eb 05                	jmp    4038dd <yyparse+0x2af>
  4038d8:	b8 02 00 00 00       	mov    $0x2,%eax
  4038dd:	89 45 c4             	mov    %eax,-0x3c(%rbp)
  4038e0:	8b 45 c4             	mov    -0x3c(%rbp),%eax
  4038e3:	01 45 cc             	add    %eax,-0x34(%rbp)
  4038e6:	83 7d cc 00          	cmpl   $0x0,-0x34(%rbp)
  4038ea:	78 6d                	js     403959 <yyparse+0x32b>
  4038ec:	81 7d cc ea 01 00 00 	cmpl   $0x1ea,-0x34(%rbp)
  4038f3:	7f 64                	jg     403959 <yyparse+0x32b>
  4038f5:	8b 45 cc             	mov    -0x34(%rbp),%eax
  4038f8:	48 98                	cltq   
  4038fa:	0f b7 84 00 40 ca 40 	movzwl 0x40ca40(%rax,%rax,1),%eax
  403901:	00 
  403902:	98                   	cwtl   
  403903:	39 45 c4             	cmp    %eax,-0x3c(%rbp)
  403906:	75 51                	jne    403959 <yyparse+0x32b>
  403908:	8b 45 cc             	mov    -0x34(%rbp),%eax
  40390b:	48 98                	cltq   
  40390d:	0f b7 84 00 60 c6 40 	movzwl 0x40c660(%rax,%rax,1),%eax
  403914:	00 
  403915:	98                   	cwtl   
  403916:	89 45 cc             	mov    %eax,-0x34(%rbp)
  403919:	83 7d cc 00          	cmpl   $0x0,-0x34(%rbp)
  40391d:	7f 05                	jg     403924 <yyparse+0x2f6>
  40391f:	f7 5d cc             	negl   -0x34(%rbp)
  403922:	eb 53                	jmp    403977 <yyparse+0x349>
  403924:	83 7d f8 00          	cmpl   $0x0,-0x8(%rbp)
  403928:	74 04                	je     40392e <yyparse+0x300>
  40392a:	83 6d f8 01          	subl   $0x1,-0x8(%rbp)
  40392e:	8b 45 cc             	mov    -0x34(%rbp),%eax
  403931:	89 45 fc             	mov    %eax,-0x4(%rbp)
  403934:	48 83 45 d0 08       	addq   $0x8,-0x30(%rbp)
  403939:	48 8b 45 d0          	mov    -0x30(%rbp),%rax
  40393d:	48 8b 15 fc 0f 01 00 	mov    0x10ffc(%rip),%rdx        # 414940 <yylval>
  403944:	48 89 10             	mov    %rdx,(%rax)
  403947:	c7 05 8f 10 01 00 fe 	movl   $0xfffffffe,0x1108f(%rip)        # 4149e0 <yychar>
  40394e:	ff ff ff 
  403951:	e9 39 fd ff ff       	jmpq   40368f <yyparse+0x61>
  403956:	90                   	nop
  403957:	eb 01                	jmp    40395a <yyparse+0x32c>
  403959:	90                   	nop
  40395a:	8b 45 fc             	mov    -0x4(%rbp),%eax
  40395d:	48 98                	cltq   
  40395f:	0f b6 80 e0 c3 40 00 	movzbl 0x40c3e0(%rax),%eax
  403966:	0f b6 c0             	movzbl %al,%eax
  403969:	89 45 cc             	mov    %eax,-0x34(%rbp)
  40396c:	83 7d cc 00          	cmpl   $0x0,-0x34(%rbp)
  403970:	0f 84 6a 04 00 00    	je     403de0 <yyparse+0x7b2>
  403976:	90                   	nop
  403977:	8b 45 cc             	mov    -0x34(%rbp),%eax
  40397a:	48 98                	cltq   
  40397c:	0f b6 80 40 d0 40 00 	movzbl 0x40d040(%rax),%eax
  403983:	0f be c0             	movsbl %al,%eax
  403986:	89 45 c0             	mov    %eax,-0x40(%rbp)
  403989:	b8 01 00 00 00       	mov    $0x1,%eax
  40398e:	2b 45 c0             	sub    -0x40(%rbp),%eax
  403991:	48 98                	cltq   
  403993:	48 8d 14 c5 00 00 00 	lea    0x0(,%rax,8),%rdx
  40399a:	00 
  40399b:	48 8b 45 d0          	mov    -0x30(%rbp),%rax
  40399f:	48 01 d0             	add    %rdx,%rax
  4039a2:	48 8b 00             	mov    (%rax),%rax
  4039a5:	48 89 85 b8 f7 ff ff 	mov    %rax,-0x848(%rbp)
  4039ac:	81 7d cc 9a 00 00 00 	cmpl   $0x9a,-0x34(%rbp)
  4039b3:	0f 87 6d 03 00 00    	ja     403d26 <yyparse+0x6f8>
  4039b9:	8b 45 cc             	mov    -0x34(%rbp),%eax
  4039bc:	48 8b 04 c5 48 d2 40 	mov    0x40d248(,%rax,8),%rax
  4039c3:	00 
  4039c4:	ff e0                	jmpq   *%rax
  4039c6:	bf 60 49 41 00       	mov    $0x414960,%edi
  4039cb:	e8 70 28 00 00       	callq  406240 <_lea>
  4039d0:	e9 52 03 00 00       	jmpq   403d27 <yyparse+0x6f9>
  4039d5:	bf 16 d1 40 00       	mov    $0x40d116,%edi
  4039da:	e8 01 fa ff ff       	callq  4033e0 <puts@plt>
  4039df:	b8 00 00 00 00       	mov    $0x0,%eax
  4039e4:	e8 64 30 00 00       	callq  406a4d <complete>
  4039e9:	bf 00 00 00 00       	mov    $0x0,%edi
  4039ee:	e8 1d f9 ff ff       	callq  403310 <exit@plt>
  4039f3:	48 8b 05 0e 0c 01 00 	mov    0x10c0e(%rip),%rax        # 414608 <lea_line>
  4039fa:	48 89 c7             	mov    %rax,%rdi
  4039fd:	e8 fa 28 00 00       	callq  4062fc <_scope_ano>
  403a02:	e9 20 03 00 00       	jmpq   403d27 <yyparse+0x6f9>
  403a07:	bf 00 00 00 00       	mov    $0x0,%edi
  403a0c:	e8 0a 2a 00 00       	callq  40641b <_scope_end>
  403a11:	e9 11 03 00 00       	jmpq   403d27 <yyparse+0x6f9>
  403a16:	b8 00 00 00 00       	mov    $0x0,%eax
  403a1b:	e8 ba 28 00 00       	callq  4062da <_open_mc>
  403a20:	e9 02 03 00 00       	jmpq   403d27 <yyparse+0x6f9>
  403a25:	bf 2e d1 40 00       	mov    $0x40d12e,%edi
  403a2a:	b8 00 00 00 00       	mov    $0x0,%eax
  403a2f:	e8 b9 2f 00 00       	callq  4069ed <printf_empty>
  403a34:	e9 ee 02 00 00       	jmpq   403d27 <yyparse+0x6f9>
  403a39:	b8 00 00 00 00       	mov    $0x0,%eax
  403a3e:	e8 a8 28 00 00       	callq  4062eb <_close_mc>
  403a43:	bf 2e d1 40 00       	mov    $0x40d12e,%edi
  403a48:	b8 00 00 00 00       	mov    $0x0,%eax
  403a4d:	e8 9b 2f 00 00       	callq  4069ed <printf_empty>
  403a52:	e9 d0 02 00 00       	jmpq   403d27 <yyparse+0x6f9>
  403a57:	48 8b 45 d0          	mov    -0x30(%rbp),%rax
  403a5b:	48 83 e8 08          	sub    $0x8,%rax
  403a5f:	48 8b 00             	mov    (%rax),%rax
  403a62:	48 89 c7             	mov    %rax,%rdi
  403a65:	e8 85 2d 00 00       	callq  4067ef <_var_def>
  403a6a:	e9 b8 02 00 00       	jmpq   403d27 <yyparse+0x6f9>
  403a6f:	48 8b 45 d0          	mov    -0x30(%rbp),%rax
  403a73:	48 83 e8 20          	sub    $0x20,%rax
  403a77:	48 8b 00             	mov    (%rax),%rax
  403a7a:	48 89 c7             	mov    %rax,%rdi
  403a7d:	e8 9f 2e 00 00       	callq  406921 <_var_def_ass>
  403a82:	bf 41 d1 40 00       	mov    $0x40d141,%edi
  403a87:	b8 00 00 00 00       	mov    $0x0,%eax
  403a8c:	e8 5c 2f 00 00       	callq  4069ed <printf_empty>
  403a91:	e9 91 02 00 00       	jmpq   403d27 <yyparse+0x6f9>
  403a96:	48 8b 45 d0          	mov    -0x30(%rbp),%rax
  403a9a:	48 83 e8 10          	sub    $0x10,%rax
  403a9e:	48 8b 00             	mov    (%rax),%rax
  403aa1:	48 89 c7             	mov    %rax,%rdi
  403aa4:	e8 df 2d 00 00       	callq  406888 <_var_ass>
  403aa9:	bf 4f d1 40 00       	mov    $0x40d14f,%edi
  403aae:	b8 00 00 00 00       	mov    $0x0,%eax
  403ab3:	e8 35 2f 00 00       	callq  4069ed <printf_empty>
  403ab8:	e9 6a 02 00 00       	jmpq   403d27 <yyparse+0x6f9>
  403abd:	48 8b 45 d0          	mov    -0x30(%rbp),%rax
  403ac1:	48 8b 00             	mov    (%rax),%rax
  403ac4:	48 89 85 b8 f7 ff ff 	mov    %rax,-0x848(%rbp)
  403acb:	48 8b 45 d0          	mov    -0x30(%rbp),%rax
  403acf:	48 8b 00             	mov    (%rax),%rax
  403ad2:	48 89 c7             	mov    %rax,%rdi
  403ad5:	e8 ac 27 00 00       	callq  406286 <_push>
  403ada:	e9 48 02 00 00       	jmpq   403d27 <yyparse+0x6f9>
  403adf:	48 8b 45 d0          	mov    -0x30(%rbp),%rax
  403ae3:	48 8b 00             	mov    (%rax),%rax
  403ae6:	48 89 c7             	mov    %rax,%rdi
  403ae9:	e8 a0 28 00 00       	callq  40638e <_scope_begin>
  403aee:	48 8b 45 d0          	mov    -0x30(%rbp),%rax
  403af2:	48 8b 00             	mov    (%rax),%rax
  403af5:	48 89 c7             	mov    %rax,%rdi
  403af8:	e8 5c 2b 00 00       	callq  406659 <_def>
  403afd:	e9 25 02 00 00       	jmpq   403d27 <yyparse+0x6f9>
  403b02:	bf 00 00 00 00       	mov    $0x0,%edi
  403b07:	e8 0f 29 00 00       	callq  40641b <_scope_end>
  403b0c:	e9 16 02 00 00       	jmpq   403d27 <yyparse+0x6f9>
  403b11:	bf 58 d1 40 00       	mov    $0x40d158,%edi
  403b16:	b8 00 00 00 00       	mov    $0x0,%eax
  403b1b:	e8 cd 2e 00 00       	callq  4069ed <printf_empty>
  403b20:	e9 02 02 00 00       	jmpq   403d27 <yyparse+0x6f9>
  403b25:	bf 5d d1 40 00       	mov    $0x40d15d,%edi
  403b2a:	b8 00 00 00 00       	mov    $0x0,%eax
  403b2f:	e8 b9 2e 00 00       	callq  4069ed <printf_empty>
  403b34:	e9 ee 01 00 00       	jmpq   403d27 <yyparse+0x6f9>
  403b39:	bf 67 d1 40 00       	mov    $0x40d167,%edi
  403b3e:	b8 00 00 00 00       	mov    $0x0,%eax
  403b43:	e8 a5 2e 00 00       	callq  4069ed <printf_empty>
  403b48:	e9 da 01 00 00       	jmpq   403d27 <yyparse+0x6f9>
  403b4d:	bf 6f d1 40 00       	mov    $0x40d16f,%edi
  403b52:	b8 00 00 00 00       	mov    $0x0,%eax
  403b57:	e8 91 2e 00 00       	callq  4069ed <printf_empty>
  403b5c:	e9 c6 01 00 00       	jmpq   403d27 <yyparse+0x6f9>
  403b61:	bf 7c d1 40 00       	mov    $0x40d17c,%edi
  403b66:	b8 00 00 00 00       	mov    $0x0,%eax
  403b6b:	e8 7d 2e 00 00       	callq  4069ed <printf_empty>
  403b70:	e9 b2 01 00 00       	jmpq   403d27 <yyparse+0x6f9>
  403b75:	b8 00 00 00 00       	mov    $0x0,%eax
  403b7a:	e8 77 2b 00 00       	callq  4066f6 <_add_arg>
  403b7f:	e9 a3 01 00 00       	jmpq   403d27 <yyparse+0x6f9>
  403b84:	b8 00 00 00 00       	mov    $0x0,%eax
  403b89:	e8 68 2b 00 00       	callq  4066f6 <_add_arg>
  403b8e:	e9 94 01 00 00       	jmpq   403d27 <yyparse+0x6f9>
  403b93:	bf 01 00 00 00       	mov    $0x1,%edi
  403b98:	e8 7c 2b 00 00       	callq  406719 <_call>
  403b9d:	e9 85 01 00 00       	jmpq   403d27 <yyparse+0x6f9>
  403ba2:	bf 85 d1 40 00       	mov    $0x40d185,%edi
  403ba7:	e8 e2 27 00 00       	callq  40638e <_scope_begin>
  403bac:	e9 76 01 00 00       	jmpq   403d27 <yyparse+0x6f9>
  403bb1:	bf 85 d1 40 00       	mov    $0x40d185,%edi
  403bb6:	e8 60 28 00 00       	callq  40641b <_scope_end>
  403bbb:	b8 00 00 00 00       	mov    $0x0,%eax
  403bc0:	e8 61 2a 00 00       	callq  406626 <_if>
  403bc5:	bf 88 d1 40 00       	mov    $0x40d188,%edi
  403bca:	b8 00 00 00 00       	mov    $0x0,%eax
  403bcf:	e8 19 2e 00 00       	callq  4069ed <printf_empty>
  403bd4:	e9 4e 01 00 00       	jmpq   403d27 <yyparse+0x6f9>
  403bd9:	bf 8d d1 40 00       	mov    $0x40d18d,%edi
  403bde:	b8 00 00 00 00       	mov    $0x0,%eax
  403be3:	e8 05 2e 00 00       	callq  4069ed <printf_empty>
  403be8:	bf 94 d1 40 00       	mov    $0x40d194,%edi
  403bed:	e8 9c 27 00 00       	callq  40638e <_scope_begin>
  403bf2:	e9 30 01 00 00       	jmpq   403d27 <yyparse+0x6f9>
  403bf7:	bf 94 d1 40 00       	mov    $0x40d194,%edi
  403bfc:	e8 1a 28 00 00       	callq  40641b <_scope_end>
  403c01:	b8 00 00 00 00       	mov    $0x0,%eax
  403c06:	e8 2c 2a 00 00       	callq  406637 <_elif>
  403c0b:	e9 17 01 00 00       	jmpq   403d27 <yyparse+0x6f9>
  403c10:	bf 99 d1 40 00       	mov    $0x40d199,%edi
  403c15:	b8 00 00 00 00       	mov    $0x0,%eax
  403c1a:	e8 ce 2d 00 00       	callq  4069ed <printf_empty>
  403c1f:	bf a0 d1 40 00       	mov    $0x40d1a0,%edi
  403c24:	e8 65 27 00 00       	callq  40638e <_scope_begin>
  403c29:	e9 f9 00 00 00       	jmpq   403d27 <yyparse+0x6f9>
  403c2e:	bf a0 d1 40 00       	mov    $0x40d1a0,%edi
  403c33:	e8 e3 27 00 00       	callq  40641b <_scope_end>
  403c38:	b8 00 00 00 00       	mov    $0x0,%eax
  403c3d:	e8 06 2a 00 00       	callq  406648 <_else>
  403c42:	e9 e0 00 00 00       	jmpq   403d27 <yyparse+0x6f9>
  403c47:	bf a5 d1 40 00       	mov    $0x40d1a5,%edi
  403c4c:	e8 3d 27 00 00       	callq  40638e <_scope_begin>
  403c51:	b8 00 00 00 00       	mov    $0x0,%eax
  403c56:	e8 5f 2d 00 00       	callq  4069ba <_for>
  403c5b:	e9 c7 00 00 00       	jmpq   403d27 <yyparse+0x6f9>
  403c60:	bf a5 d1 40 00       	mov    $0x40d1a5,%edi
  403c65:	e8 b1 27 00 00       	callq  40641b <_scope_end>
  403c6a:	e9 b8 00 00 00       	jmpq   403d27 <yyparse+0x6f9>
  403c6f:	b8 00 00 00 00       	mov    $0x0,%eax
  403c74:	e8 52 2d 00 00       	callq  4069cb <_match>
  403c79:	e9 a9 00 00 00       	jmpq   403d27 <yyparse+0x6f9>
  403c7e:	b8 00 00 00 00       	mov    $0x0,%eax
  403c83:	e8 54 2d 00 00       	callq  4069dc <_case>
  403c88:	e9 9a 00 00 00       	jmpq   403d27 <yyparse+0x6f9>
  403c8d:	b8 00 00 00 00       	mov    $0x0,%eax
  403c92:	e8 45 2d 00 00       	callq  4069dc <_case>
  403c97:	e9 8b 00 00 00       	jmpq   403d27 <yyparse+0x6f9>
  403c9c:	b8 00 00 00 00       	mov    $0x0,%eax
  403ca1:	e8 36 2d 00 00       	callq  4069dc <_case>
  403ca6:	eb 7f                	jmp    403d27 <yyparse+0x6f9>
  403ca8:	bf a9 d1 40 00       	mov    $0x40d1a9,%edi
  403cad:	e8 dc 26 00 00       	callq  40638e <_scope_begin>
  403cb2:	eb 73                	jmp    403d27 <yyparse+0x6f9>
  403cb4:	bf a9 d1 40 00       	mov    $0x40d1a9,%edi
  403cb9:	e8 5d 27 00 00       	callq  40641b <_scope_end>
  403cbe:	eb 67                	jmp    403d27 <yyparse+0x6f9>
  403cc0:	b8 00 00 00 00       	mov    $0x0,%eax
  403cc5:	e8 0a 2a 00 00       	callq  4066d4 <_block>
  403cca:	eb 5b                	jmp    403d27 <yyparse+0x6f9>
  403ccc:	48 8b 05 35 09 01 00 	mov    0x10935(%rip),%rax        # 414608 <lea_line>
  403cd3:	48 89 c7             	mov    %rax,%rdi
  403cd6:	e8 21 26 00 00       	callq  4062fc <_scope_ano>
  403cdb:	eb 4a                	jmp    403d27 <yyparse+0x6f9>
  403cdd:	bf 00 00 00 00       	mov    $0x0,%edi
  403ce2:	e8 34 27 00 00       	callq  40641b <_scope_end>
  403ce7:	eb 3e                	jmp    403d27 <yyparse+0x6f9>
  403ce9:	b8 00 00 00 00       	mov    $0x0,%eax
  403cee:	e8 f2 29 00 00       	callq  4066e5 <_block_>
  403cf3:	bf ae d1 40 00       	mov    $0x40d1ae,%edi
  403cf8:	b8 00 00 00 00       	mov    $0x0,%eax
  403cfd:	e8 eb 2c 00 00       	callq  4069ed <printf_empty>
  403d02:	eb 23                	jmp    403d27 <yyparse+0x6f9>
  403d04:	bf ba d1 40 00       	mov    $0x40d1ba,%edi
  403d09:	b8 00 00 00 00       	mov    $0x0,%eax
  403d0e:	e8 da 2c 00 00       	callq  4069ed <printf_empty>
  403d13:	eb 12                	jmp    403d27 <yyparse+0x6f9>
  403d15:	bf c6 d1 40 00       	mov    $0x40d1c6,%edi
  403d1a:	b8 00 00 00 00       	mov    $0x0,%eax
  403d1f:	e8 c9 2c 00 00       	callq  4069ed <printf_empty>
  403d24:	eb 01                	jmp    403d27 <yyparse+0x6f9>
  403d26:	90                   	nop
  403d27:	8b 45 c0             	mov    -0x40(%rbp),%eax
  403d2a:	48 98                	cltq   
  403d2c:	48 c1 e0 03          	shl    $0x3,%rax
  403d30:	48 f7 d8             	neg    %rax
  403d33:	48 01 45 d0          	add    %rax,-0x30(%rbp)
  403d37:	8b 45 c0             	mov    -0x40(%rbp),%eax
  403d3a:	48 98                	cltq   
  403d3c:	48 01 c0             	add    %rax,%rax
  403d3f:	48 f7 d8             	neg    %rax
  403d42:	48 01 45 e0          	add    %rax,-0x20(%rbp)
  403d46:	c7 45 c0 00 00 00 00 	movl   $0x0,-0x40(%rbp)
  403d4d:	48 83 45 d0 08       	addq   $0x8,-0x30(%rbp)
  403d52:	48 8b 45 d0          	mov    -0x30(%rbp),%rax
  403d56:	48 8b 95 b8 f7 ff ff 	mov    -0x848(%rbp),%rdx
  403d5d:	48 89 10             	mov    %rdx,(%rax)
  403d60:	8b 45 cc             	mov    -0x34(%rbp),%eax
  403d63:	48 98                	cltq   
  403d65:	0f b6 80 60 cf 40 00 	movzbl 0x40cf60(%rax),%eax
  403d6c:	0f b6 c0             	movzbl %al,%eax
  403d6f:	83 e8 38             	sub    $0x38,%eax
  403d72:	89 45 94             	mov    %eax,-0x6c(%rbp)
  403d75:	8b 45 94             	mov    -0x6c(%rbp),%eax
  403d78:	48 98                	cltq   
  403d7a:	0f b7 84 00 20 c5 40 	movzwl 0x40c520(%rax,%rax,1),%eax
  403d81:	00 
  403d82:	0f bf d0             	movswl %ax,%edx
  403d85:	48 8b 45 e0          	mov    -0x20(%rbp),%rax
  403d89:	0f b7 00             	movzwl (%rax),%eax
  403d8c:	98                   	cwtl   
  403d8d:	01 d0                	add    %edx,%eax
  403d8f:	89 45 90             	mov    %eax,-0x70(%rbp)
  403d92:	83 7d 90 00          	cmpl   $0x0,-0x70(%rbp)
  403d96:	78 32                	js     403dca <yyparse+0x79c>
  403d98:	81 7d 90 ea 01 00 00 	cmpl   $0x1ea,-0x70(%rbp)
  403d9f:	7f 29                	jg     403dca <yyparse+0x79c>
  403da1:	8b 45 90             	mov    -0x70(%rbp),%eax
  403da4:	48 98                	cltq   
  403da6:	0f b7 94 00 40 ca 40 	movzwl 0x40ca40(%rax,%rax,1),%edx
  403dad:	00 
  403dae:	48 8b 45 e0          	mov    -0x20(%rbp),%rax
  403db2:	0f b7 00             	movzwl (%rax),%eax
  403db5:	66 39 c2             	cmp    %ax,%dx
  403db8:	75 10                	jne    403dca <yyparse+0x79c>
  403dba:	8b 45 90             	mov    -0x70(%rbp),%eax
  403dbd:	48 98                	cltq   
  403dbf:	0f b7 84 00 60 c6 40 	movzwl 0x40c660(%rax,%rax,1),%eax
  403dc6:	00 
  403dc7:	98                   	cwtl   
  403dc8:	eb 0e                	jmp    403dd8 <yyparse+0x7aa>
  403dca:	8b 45 94             	mov    -0x6c(%rbp),%eax
  403dcd:	48 98                	cltq   
  403dcf:	0f b7 84 00 c0 c5 40 	movzwl 0x40c5c0(%rax,%rax,1),%eax
  403dd6:	00 
  403dd7:	98                   	cwtl   
  403dd8:	89 45 fc             	mov    %eax,-0x4(%rbp)
  403ddb:	e9 af f8 ff ff       	jmpq   40368f <yyparse+0x61>
  403de0:	90                   	nop
  403de1:	8b 05 f9 0b 01 00    	mov    0x10bf9(%rip),%eax        # 4149e0 <yychar>
  403de7:	83 f8 fe             	cmp    $0xfffffffe,%eax
  403dea:	74 32                	je     403e1e <yyparse+0x7f0>
  403dec:	8b 05 ee 0b 01 00    	mov    0x10bee(%rip),%eax        # 4149e0 <yychar>
  403df2:	85 c0                	test   %eax,%eax
  403df4:	78 21                	js     403e17 <yyparse+0x7e9>
  403df6:	8b 05 e4 0b 01 00    	mov    0x10be4(%rip),%eax        # 4149e0 <yychar>
  403dfc:	3d 36 01 00 00       	cmp    $0x136,%eax
  403e01:	7f 14                	jg     403e17 <yyparse+0x7e9>
  403e03:	8b 05 d7 0b 01 00    	mov    0x10bd7(%rip),%eax        # 4149e0 <yychar>
  403e09:	48 98                	cltq   
  403e0b:	0f b6 80 20 c0 40 00 	movzbl 0x40c020(%rax),%eax
  403e12:	0f be c0             	movsbl %al,%eax
  403e15:	eb 0c                	jmp    403e23 <yyparse+0x7f5>
  403e17:	b8 02 00 00 00       	mov    $0x2,%eax
  403e1c:	eb 05                	jmp    403e23 <yyparse+0x7f5>
  403e1e:	b8 fe ff ff ff       	mov    $0xfffffffe,%eax
  403e23:	89 45 c4             	mov    %eax,-0x3c(%rbp)
  403e26:	83 7d f8 00          	cmpl   $0x0,-0x8(%rbp)
  403e2a:	75 19                	jne    403e45 <yyparse+0x817>
  403e2c:	8b 05 b2 0b 01 00    	mov    0x10bb2(%rip),%eax        # 4149e4 <yynerrs>
  403e32:	83 c0 01             	add    $0x1,%eax
  403e35:	89 05 a9 0b 01 00    	mov    %eax,0x10ba9(%rip)        # 4149e4 <yynerrs>
  403e3b:	bf d5 d1 40 00       	mov    $0x40d1d5,%edi
  403e40:	e8 f4 01 00 00       	callq  404039 <yyerror>
  403e45:	83 7d f8 03          	cmpl   $0x3,-0x8(%rbp)
  403e49:	75 37                	jne    403e82 <yyparse+0x854>
  403e4b:	8b 05 8f 0b 01 00    	mov    0x10b8f(%rip),%eax        # 4149e0 <yychar>
  403e51:	85 c0                	test   %eax,%eax
  403e53:	7f 0f                	jg     403e64 <yyparse+0x836>
  403e55:	8b 05 85 0b 01 00    	mov    0x10b85(%rip),%eax        # 4149e0 <yychar>
  403e5b:	85 c0                	test   %eax,%eax
  403e5d:	75 23                	jne    403e82 <yyparse+0x854>
  403e5f:	e9 ed 00 00 00       	jmpq   403f51 <yyparse+0x923>
  403e64:	8b 45 c4             	mov    -0x3c(%rbp),%eax
  403e67:	ba 40 49 41 00       	mov    $0x414940,%edx
  403e6c:	89 c6                	mov    %eax,%esi
  403e6e:	bf e2 d1 40 00       	mov    $0x40d1e2,%edi
  403e73:	e8 95 f7 ff ff       	callq  40360d <yydestruct>
  403e78:	c7 05 5e 0b 01 00 fe 	movl   $0xfffffffe,0x10b5e(%rip)        # 4149e0 <yychar>
  403e7f:	ff ff ff 
  403e82:	90                   	nop
  403e83:	c7 45 f8 03 00 00 00 	movl   $0x3,-0x8(%rbp)
  403e8a:	8b 45 fc             	mov    -0x4(%rbp),%eax
  403e8d:	48 98                	cltq   
  403e8f:	0f b7 84 00 60 c1 40 	movzwl 0x40c160(%rax,%rax,1),%eax
  403e96:	00 
  403e97:	98                   	cwtl   
  403e98:	89 45 cc             	mov    %eax,-0x34(%rbp)
  403e9b:	81 7d cc 49 ff ff ff 	cmpl   $0xffffff49,-0x34(%rbp)
  403ea2:	74 3d                	je     403ee1 <yyparse+0x8b3>
  403ea4:	83 45 cc 01          	addl   $0x1,-0x34(%rbp)
  403ea8:	83 7d cc 00          	cmpl   $0x0,-0x34(%rbp)
  403eac:	78 33                	js     403ee1 <yyparse+0x8b3>
  403eae:	81 7d cc ea 01 00 00 	cmpl   $0x1ea,-0x34(%rbp)
  403eb5:	7f 2a                	jg     403ee1 <yyparse+0x8b3>
  403eb7:	8b 45 cc             	mov    -0x34(%rbp),%eax
  403eba:	48 98                	cltq   
  403ebc:	0f b7 84 00 40 ca 40 	movzwl 0x40ca40(%rax,%rax,1),%eax
  403ec3:	00 
  403ec4:	66 83 f8 01          	cmp    $0x1,%ax
  403ec8:	75 17                	jne    403ee1 <yyparse+0x8b3>
  403eca:	8b 45 cc             	mov    -0x34(%rbp),%eax
  403ecd:	48 98                	cltq   
  403ecf:	0f b7 84 00 60 c6 40 	movzwl 0x40c660(%rax,%rax,1),%eax
  403ed6:	00 
  403ed7:	98                   	cwtl   
  403ed8:	89 45 cc             	mov    %eax,-0x34(%rbp)
  403edb:	83 7d cc 00          	cmpl   $0x0,-0x34(%rbp)
  403edf:	7f 43                	jg     403f24 <yyparse+0x8f6>
  403ee1:	48 8b 45 e0          	mov    -0x20(%rbp),%rax
  403ee5:	48 3b 45 e8          	cmp    -0x18(%rbp),%rax
  403ee9:	74 65                	je     403f50 <yyparse+0x922>
  403eeb:	8b 45 fc             	mov    -0x4(%rbp),%eax
  403eee:	48 98                	cltq   
  403ef0:	0f b6 80 20 ce 40 00 	movzbl 0x40ce20(%rax),%eax
  403ef7:	0f b6 c0             	movzbl %al,%eax
  403efa:	48 8b 55 d0          	mov    -0x30(%rbp),%rdx
  403efe:	89 c6                	mov    %eax,%esi
  403f00:	bf f4 d1 40 00       	mov    $0x40d1f4,%edi
  403f05:	e8 03 f7 ff ff       	callq  40360d <yydestruct>
  403f0a:	48 83 6d d0 08       	subq   $0x8,-0x30(%rbp)
  403f0f:	48 83 6d e0 02       	subq   $0x2,-0x20(%rbp)
  403f14:	48 8b 45 e0          	mov    -0x20(%rbp),%rax
  403f18:	0f b7 00             	movzwl (%rax),%eax
  403f1b:	98                   	cwtl   
  403f1c:	89 45 fc             	mov    %eax,-0x4(%rbp)
  403f1f:	e9 66 ff ff ff       	jmpq   403e8a <yyparse+0x85c>
  403f24:	90                   	nop
  403f25:	48 83 45 d0 08       	addq   $0x8,-0x30(%rbp)
  403f2a:	48 8b 45 d0          	mov    -0x30(%rbp),%rax
  403f2e:	48 8b 15 0b 0a 01 00 	mov    0x10a0b(%rip),%rdx        # 414940 <yylval>
  403f35:	48 89 10             	mov    %rdx,(%rax)
  403f38:	8b 45 cc             	mov    -0x34(%rbp),%eax
  403f3b:	89 45 fc             	mov    %eax,-0x4(%rbp)
  403f3e:	e9 4c f7 ff ff       	jmpq   40368f <yyparse+0x61>
  403f43:	90                   	nop
  403f44:	c7 45 c8 00 00 00 00 	movl   $0x0,-0x38(%rbp)
  403f4b:	eb 23                	jmp    403f70 <yyparse+0x942>
  403f4d:	90                   	nop
  403f4e:	eb 01                	jmp    403f51 <yyparse+0x923>
  403f50:	90                   	nop
  403f51:	c7 45 c8 01 00 00 00 	movl   $0x1,-0x38(%rbp)
  403f58:	eb 16                	jmp    403f70 <yyparse+0x942>
  403f5a:	90                   	nop
  403f5b:	eb 01                	jmp    403f5e <yyparse+0x930>
  403f5d:	90                   	nop
  403f5e:	bf 03 d2 40 00       	mov    $0x40d203,%edi
  403f63:	e8 d1 00 00 00       	callq  404039 <yyerror>
  403f68:	c7 45 c8 02 00 00 00 	movl   $0x2,-0x38(%rbp)
  403f6f:	90                   	nop
  403f70:	8b 05 6a 0a 01 00    	mov    0x10a6a(%rip),%eax        # 4149e0 <yychar>
  403f76:	83 f8 fe             	cmp    $0xfffffffe,%eax
  403f79:	74 47                	je     403fc2 <yyparse+0x994>
  403f7b:	8b 05 5f 0a 01 00    	mov    0x10a5f(%rip),%eax        # 4149e0 <yychar>
  403f81:	85 c0                	test   %eax,%eax
  403f83:	78 21                	js     403fa6 <yyparse+0x978>
  403f85:	8b 05 55 0a 01 00    	mov    0x10a55(%rip),%eax        # 4149e0 <yychar>
  403f8b:	3d 36 01 00 00       	cmp    $0x136,%eax
  403f90:	7f 14                	jg     403fa6 <yyparse+0x978>
  403f92:	8b 05 48 0a 01 00    	mov    0x10a48(%rip),%eax        # 4149e0 <yychar>
  403f98:	48 98                	cltq   
  403f9a:	0f b6 80 20 c0 40 00 	movzbl 0x40c020(%rax),%eax
  403fa1:	0f be c0             	movsbl %al,%eax
  403fa4:	eb 05                	jmp    403fab <yyparse+0x97d>
  403fa6:	b8 02 00 00 00       	mov    $0x2,%eax
  403fab:	89 45 c4             	mov    %eax,-0x3c(%rbp)
  403fae:	8b 45 c4             	mov    -0x3c(%rbp),%eax
  403fb1:	ba 40 49 41 00       	mov    $0x414940,%edx
  403fb6:	89 c6                	mov    %eax,%esi
  403fb8:	bf 14 d2 40 00       	mov    $0x40d214,%edi
  403fbd:	e8 4b f6 ff ff       	callq  40360d <yydestruct>
  403fc2:	8b 45 c0             	mov    -0x40(%rbp),%eax
  403fc5:	48 98                	cltq   
  403fc7:	48 c1 e0 03          	shl    $0x3,%rax
  403fcb:	48 f7 d8             	neg    %rax
  403fce:	48 01 45 d0          	add    %rax,-0x30(%rbp)
  403fd2:	8b 45 c0             	mov    -0x40(%rbp),%eax
  403fd5:	48 98                	cltq   
  403fd7:	48 01 c0             	add    %rax,%rax
  403fda:	48 f7 d8             	neg    %rax
  403fdd:	48 01 45 e0          	add    %rax,-0x20(%rbp)
  403fe1:	eb 2e                	jmp    404011 <yyparse+0x9e3>
  403fe3:	48 8b 45 e0          	mov    -0x20(%rbp),%rax
  403fe7:	0f b7 00             	movzwl (%rax),%eax
  403fea:	98                   	cwtl   
  403feb:	48 98                	cltq   
  403fed:	0f b6 80 20 ce 40 00 	movzbl 0x40ce20(%rax),%eax
  403ff4:	0f b6 c0             	movzbl %al,%eax
  403ff7:	48 8b 55 d0          	mov    -0x30(%rbp),%rdx
  403ffb:	89 c6                	mov    %eax,%esi
  403ffd:	bf 32 d2 40 00       	mov    $0x40d232,%edi
  404002:	e8 06 f6 ff ff       	callq  40360d <yydestruct>
  404007:	48 83 6d d0 08       	subq   $0x8,-0x30(%rbp)
  40400c:	48 83 6d e0 02       	subq   $0x2,-0x20(%rbp)
  404011:	48 8b 45 e0          	mov    -0x20(%rbp),%rax
  404015:	48 3b 45 e8          	cmp    -0x18(%rbp),%rax
  404019:	75 c8                	jne    403fe3 <yyparse+0x9b5>
  40401b:	48 8d 85 00 fe ff ff 	lea    -0x200(%rbp),%rax
  404022:	48 39 45 e8          	cmp    %rax,-0x18(%rbp)
  404026:	74 0c                	je     404034 <yyparse+0xa06>
  404028:	48 8b 45 e8          	mov    -0x18(%rbp),%rax
  40402c:	48 89 c7             	mov    %rax,%rdi
  40402f:	e8 cc f2 ff ff       	callq  403300 <free@plt>
  404034:	8b 45 c8             	mov    -0x38(%rbp),%eax
  404037:	c9                   	leaveq 
  404038:	c3                   	retq   

0000000000404039 <yyerror>:
  404039:	55                   	push   %rbp
  40403a:	48 89 e5             	mov    %rsp,%rbp
  40403d:	48 83 ec 10          	sub    $0x10,%rsp
  404041:	48 89 7d f8          	mov    %rdi,-0x8(%rbp)
  404045:	48 8b 45 f8          	mov    -0x8(%rbp),%rax
  404049:	48 89 c6             	mov    %rax,%rsi
  40404c:	bf 20 d7 40 00       	mov    $0x40d720,%edi
  404051:	b8 00 00 00 00       	mov    $0x0,%eax
  404056:	e8 15 f0 ff ff       	callq  403070 <printf@plt>
  40405b:	90                   	nop
  40405c:	c9                   	leaveq 
  40405d:	c3                   	retq   

000000000040405e <yylex>:
  40405e:	55                   	push   %rbp
  40405f:	48 89 e5             	mov    %rsp,%rbp
  404062:	53                   	push   %rbx
  404063:	48 83 ec 38          	sub    $0x38,%rsp
  404067:	8b 05 0b 05 01 00    	mov    0x1050b(%rip),%eax        # 414578 <yy_init>
  40406d:	85 c0                	test   %eax,%eax
  40406f:	0f 85 b2 00 00 00    	jne    404127 <yylex+0xc9>
  404075:	c7 05 f9 04 01 00 01 	movl   $0x1,0x104f9(%rip)        # 414578 <yy_init>
  40407c:	00 00 00 
  40407f:	8b 05 f7 04 01 00    	mov    0x104f7(%rip),%eax        # 41457c <yy_start>
  404085:	85 c0                	test   %eax,%eax
  404087:	75 0a                	jne    404093 <yylex+0x35>
  404089:	c7 05 e9 04 01 00 01 	movl   $0x1,0x104e9(%rip)        # 41457c <yy_start>
  404090:	00 00 00 
  404093:	48 8b 05 9e 04 01 00 	mov    0x1049e(%rip),%rax        # 414538 <yyin>
  40409a:	48 85 c0             	test   %rax,%rax
  40409d:	75 0e                	jne    4040ad <yylex+0x4f>
  40409f:	48 8b 05 2a 02 01 00 	mov    0x1022a(%rip),%rax        # 4142d0 <stdin@@GLIBC_2.2.5>
  4040a6:	48 89 05 8b 04 01 00 	mov    %rax,0x1048b(%rip)        # 414538 <yyin>
  4040ad:	48 8b 05 8c 04 01 00 	mov    0x1048c(%rip),%rax        # 414540 <yyout>
  4040b4:	48 85 c0             	test   %rax,%rax
  4040b7:	75 0e                	jne    4040c7 <yylex+0x69>
  4040b9:	48 8b 05 00 02 01 00 	mov    0x10200(%rip),%rax        # 4142c0 <stdout@@GLIBC_2.2.5>
  4040c0:	48 89 05 79 04 01 00 	mov    %rax,0x10479(%rip)        # 414540 <yyout>
  4040c7:	48 8b 05 92 04 01 00 	mov    0x10492(%rip),%rax        # 414560 <yy_buffer_stack>
  4040ce:	48 85 c0             	test   %rax,%rax
  4040d1:	74 1d                	je     4040f0 <yylex+0x92>
  4040d3:	48 8b 05 86 04 01 00 	mov    0x10486(%rip),%rax        # 414560 <yy_buffer_stack>
  4040da:	48 8b 15 6f 04 01 00 	mov    0x1046f(%rip),%rdx        # 414550 <yy_buffer_stack_top>
  4040e1:	48 c1 e2 03          	shl    $0x3,%rdx
  4040e5:	48 01 d0             	add    %rdx,%rax
  4040e8:	48 8b 00             	mov    (%rax),%rax
  4040eb:	48 85 c0             	test   %rax,%rax
  4040ee:	75 32                	jne    404122 <yylex+0xc4>
  4040f0:	e8 f6 1a 00 00       	callq  405beb <yyensure_buffer_stack>
  4040f5:	48 8b 05 3c 04 01 00 	mov    0x1043c(%rip),%rax        # 414538 <yyin>
  4040fc:	48 8b 15 5d 04 01 00 	mov    0x1045d(%rip),%rdx        # 414560 <yy_buffer_stack>
  404103:	48 8b 0d 46 04 01 00 	mov    0x10446(%rip),%rcx        # 414550 <yy_buffer_stack_top>
  40410a:	48 c1 e1 03          	shl    $0x3,%rcx
  40410e:	48 8d 1c 0a          	lea    (%rdx,%rcx,1),%rbx
  404112:	be 00 40 00 00       	mov    $0x4000,%esi
  404117:	48 89 c7             	mov    %rax,%rdi
  40411a:	e8 6a 16 00 00       	callq  405789 <yy_create_buffer>
  40411f:	48 89 03             	mov    %rax,(%rbx)
  404122:	e8 d7 15 00 00       	callq  4056fe <yy_load_buffer_state>
  404127:	48 8b 05 42 04 01 00 	mov    0x10442(%rip),%rax        # 414570 <yy_c_buf_p>
  40412e:	48 89 45 e0          	mov    %rax,-0x20(%rbp)
  404132:	0f b6 15 2f 04 01 00 	movzbl 0x1042f(%rip),%edx        # 414568 <yy_hold_char>
  404139:	48 8b 45 e0          	mov    -0x20(%rbp),%rax
  40413d:	88 10                	mov    %dl,(%rax)
  40413f:	48 8b 45 e0          	mov    -0x20(%rbp),%rax
  404143:	48 89 45 d8          	mov    %rax,-0x28(%rbp)
  404147:	8b 05 2f 04 01 00    	mov    0x1042f(%rip),%eax        # 41457c <yy_start>
  40414d:	89 45 ec             	mov    %eax,-0x14(%rbp)
  404150:	eb 01                	jmp    404153 <yylex+0xf5>
  404152:	90                   	nop
  404153:	48 8b 45 e0          	mov    -0x20(%rbp),%rax
  404157:	0f b6 00             	movzbl (%rax),%eax
  40415a:	0f b6 c0             	movzbl %al,%eax
  40415d:	48 98                	cltq   
  40415f:	0f b6 80 40 d8 40 00 	movzbl 0x40d840(%rax),%eax
  404166:	88 45 d3             	mov    %al,-0x2d(%rbp)
  404169:	8b 45 ec             	mov    -0x14(%rbp),%eax
  40416c:	48 98                	cltq   
  40416e:	0f b7 84 00 40 d7 40 	movzwl 0x40d740(%rax,%rax,1),%eax
  404175:	00 
  404176:	66 85 c0             	test   %ax,%ax
  404179:	74 3d                	je     4041b8 <yylex+0x15a>
  40417b:	8b 45 ec             	mov    -0x14(%rbp),%eax
  40417e:	89 05 00 04 01 00    	mov    %eax,0x10400(%rip)        # 414584 <yy_last_accepting_state>
  404184:	48 8b 45 e0          	mov    -0x20(%rbp),%rax
  404188:	48 89 05 f9 03 01 00 	mov    %rax,0x103f9(%rip)        # 414588 <yy_last_accepting_cpos>
  40418f:	eb 27                	jmp    4041b8 <yylex+0x15a>
  404191:	8b 45 ec             	mov    -0x14(%rbp),%eax
  404194:	48 98                	cltq   
  404196:	0f b7 84 00 80 da 40 	movzwl 0x40da80(%rax,%rax,1),%eax
  40419d:	00 
  40419e:	98                   	cwtl   
  40419f:	89 45 ec             	mov    %eax,-0x14(%rbp)
  4041a2:	83 7d ec 78          	cmpl   $0x78,-0x14(%rbp)
  4041a6:	7e 10                	jle    4041b8 <yylex+0x15a>
  4041a8:	0f b6 45 d3          	movzbl -0x2d(%rbp),%eax
  4041ac:	48 98                	cltq   
  4041ae:	0f b6 80 40 d9 40 00 	movzbl 0x40d940(%rax),%eax
  4041b5:	88 45 d3             	mov    %al,-0x2d(%rbp)
  4041b8:	8b 45 ec             	mov    -0x14(%rbp),%eax
  4041bb:	48 98                	cltq   
  4041bd:	0f b7 84 00 80 d9 40 	movzwl 0x40d980(%rax,%rax,1),%eax
  4041c4:	00 
  4041c5:	0f bf d0             	movswl %ax,%edx
  4041c8:	0f b6 45 d3          	movzbl -0x2d(%rbp),%eax
  4041cc:	01 d0                	add    %edx,%eax
  4041ce:	48 98                	cltq   
  4041d0:	0f b7 84 00 00 dd 40 	movzwl 0x40dd00(%rax,%rax,1),%eax
  4041d7:	00 
  4041d8:	98                   	cwtl   
  4041d9:	39 45 ec             	cmp    %eax,-0x14(%rbp)
  4041dc:	75 b3                	jne    404191 <yylex+0x133>
  4041de:	8b 45 ec             	mov    -0x14(%rbp),%eax
  4041e1:	48 98                	cltq   
  4041e3:	0f b7 84 00 80 d9 40 	movzwl 0x40d980(%rax,%rax,1),%eax
  4041ea:	00 
  4041eb:	0f bf d0             	movswl %ax,%edx
  4041ee:	0f b6 45 d3          	movzbl -0x2d(%rbp),%eax
  4041f2:	01 d0                	add    %edx,%eax
  4041f4:	48 98                	cltq   
  4041f6:	0f b7 84 00 80 db 40 	movzwl 0x40db80(%rax,%rax,1),%eax
  4041fd:	00 
  4041fe:	98                   	cwtl   
  4041ff:	89 45 ec             	mov    %eax,-0x14(%rbp)
  404202:	48 83 45 e0 01       	addq   $0x1,-0x20(%rbp)
  404207:	8b 45 ec             	mov    -0x14(%rbp),%eax
  40420a:	48 98                	cltq   
  40420c:	0f b7 84 00 80 d9 40 	movzwl 0x40d980(%rax,%rax,1),%eax
  404213:	00 
  404214:	66 3d 89 00          	cmp    $0x89,%ax
  404218:	0f 85 34 ff ff ff    	jne    404152 <yylex+0xf4>
  40421e:	90                   	nop
  40421f:	8b 45 ec             	mov    -0x14(%rbp),%eax
  404222:	48 98                	cltq   
  404224:	0f b7 84 00 40 d7 40 	movzwl 0x40d740(%rax,%rax,1),%eax
  40422b:	00 
  40422c:	98                   	cwtl   
  40422d:	89 45 d4             	mov    %eax,-0x2c(%rbp)
  404230:	83 7d d4 00          	cmpl   $0x0,-0x2c(%rbp)
  404234:	75 25                	jne    40425b <yylex+0x1fd>
  404236:	48 8b 05 4b 03 01 00 	mov    0x1034b(%rip),%rax        # 414588 <yy_last_accepting_cpos>
  40423d:	48 89 45 e0          	mov    %rax,-0x20(%rbp)
  404241:	8b 05 3d 03 01 00    	mov    0x1033d(%rip),%eax        # 414584 <yy_last_accepting_state>
  404247:	89 45 ec             	mov    %eax,-0x14(%rbp)
  40424a:	8b 45 ec             	mov    -0x14(%rbp),%eax
  40424d:	48 98                	cltq   
  40424f:	0f b7 84 00 40 d7 40 	movzwl 0x40d740(%rax,%rax,1),%eax
  404256:	00 
  404257:	98                   	cwtl   
  404258:	89 45 d4             	mov    %eax,-0x2c(%rbp)
  40425b:	48 8b 45 d8          	mov    -0x28(%rbp),%rax
  40425f:	48 89 05 82 07 01 00 	mov    %rax,0x10782(%rip)        # 4149e8 <yytext>
  404266:	48 8b 45 e0          	mov    -0x20(%rbp),%rax
  40426a:	48 2b 45 d8          	sub    -0x28(%rbp),%rax
  40426e:	89 05 7c 07 01 00    	mov    %eax,0x1077c(%rip)        # 4149f0 <yyleng>
  404274:	48 8b 45 e0          	mov    -0x20(%rbp),%rax
  404278:	0f b6 00             	movzbl (%rax),%eax
  40427b:	88 05 e7 02 01 00    	mov    %al,0x102e7(%rip)        # 414568 <yy_hold_char>
  404281:	48 8b 45 e0          	mov    -0x20(%rbp),%rax
  404285:	c6 00 00             	movb   $0x0,(%rax)
  404288:	48 8b 45 e0          	mov    -0x20(%rbp),%rax
  40428c:	48 89 05 dd 02 01 00 	mov    %rax,0x102dd(%rip)        # 414570 <yy_c_buf_p>
  404293:	83 7d d4 37          	cmpl   $0x37,-0x2c(%rbp)
  404297:	0f 87 93 07 00 00    	ja     404a30 <yylex+0x9d2>
  40429d:	8b 45 d4             	mov    -0x2c(%rbp),%eax
  4042a0:	48 8b 04 c5 28 e0 40 	mov    0x40e028(,%rax,8),%rax
  4042a7:	00 
  4042a8:	ff e0                	jmpq   *%rax
  4042aa:	0f b6 15 b7 02 01 00 	movzbl 0x102b7(%rip),%edx        # 414568 <yy_hold_char>
  4042b1:	48 8b 45 e0          	mov    -0x20(%rbp),%rax
  4042b5:	88 10                	mov    %dl,(%rax)
  4042b7:	48 8b 05 ca 02 01 00 	mov    0x102ca(%rip),%rax        # 414588 <yy_last_accepting_cpos>
  4042be:	48 89 45 e0          	mov    %rax,-0x20(%rbp)
  4042c2:	8b 05 bc 02 01 00    	mov    0x102bc(%rip),%eax        # 414584 <yy_last_accepting_state>
  4042c8:	89 45 ec             	mov    %eax,-0x14(%rbp)
  4042cb:	e9 4f ff ff ff       	jmpq   40421f <yylex+0x1c1>
  4042d0:	b8 02 01 00 00       	mov    $0x102,%eax
  4042d5:	e9 66 07 00 00       	jmpq   404a40 <yylex+0x9e2>
  4042da:	b8 04 01 00 00       	mov    $0x104,%eax
  4042df:	e9 5c 07 00 00       	jmpq   404a40 <yylex+0x9e2>
  4042e4:	b8 05 01 00 00       	mov    $0x105,%eax
  4042e9:	e9 52 07 00 00       	jmpq   404a40 <yylex+0x9e2>
  4042ee:	48 8b 05 f3 06 01 00 	mov    0x106f3(%rip),%rax        # 4149e8 <yytext>
  4042f5:	48 89 c6             	mov    %rax,%rsi
  4042f8:	bf 72 de 40 00       	mov    $0x40de72,%edi
  4042fd:	b8 00 00 00 00       	mov    $0x0,%eax
  404302:	e8 e6 26 00 00       	callq  4069ed <printf_empty>
  404307:	b8 03 01 00 00       	mov    $0x103,%eax
  40430c:	e9 2f 07 00 00       	jmpq   404a40 <yylex+0x9e2>
  404311:	48 8b 05 d0 06 01 00 	mov    0x106d0(%rip),%rax        # 4149e8 <yytext>
  404318:	48 89 c6             	mov    %rax,%rsi
  40431b:	bf 8d de 40 00       	mov    $0x40de8d,%edi
  404320:	b8 00 00 00 00       	mov    $0x0,%eax
  404325:	e8 c3 26 00 00       	callq  4069ed <printf_empty>
  40432a:	b8 25 01 00 00       	mov    $0x125,%eax
  40432f:	e9 0c 07 00 00       	jmpq   404a40 <yylex+0x9e2>
  404334:	48 8b 05 ad 06 01 00 	mov    0x106ad(%rip),%rax        # 4149e8 <yytext>
  40433b:	48 89 c6             	mov    %rax,%rsi
  40433e:	bf a5 de 40 00       	mov    $0x40dea5,%edi
  404343:	b8 00 00 00 00       	mov    $0x0,%eax
  404348:	e8 a0 26 00 00       	callq  4069ed <printf_empty>
  40434d:	b8 24 01 00 00       	mov    $0x124,%eax
  404352:	e9 e9 06 00 00       	jmpq   404a40 <yylex+0x9e2>
  404357:	48 8b 05 8a 06 01 00 	mov    0x1068a(%rip),%rax        # 4149e8 <yytext>
  40435e:	48 89 c6             	mov    %rax,%rsi
  404361:	bf bc de 40 00       	mov    $0x40debc,%edi
  404366:	b8 00 00 00 00       	mov    $0x0,%eax
  40436b:	e8 7d 26 00 00       	callq  4069ed <printf_empty>
  404370:	b8 2a 01 00 00       	mov    $0x12a,%eax
  404375:	e9 c6 06 00 00       	jmpq   404a40 <yylex+0x9e2>
  40437a:	48 8b 05 67 06 01 00 	mov    0x10667(%rip),%rax        # 4149e8 <yytext>
  404381:	48 89 c6             	mov    %rax,%rsi
  404384:	bf ca de 40 00       	mov    $0x40deca,%edi
  404389:	b8 00 00 00 00       	mov    $0x0,%eax
  40438e:	e8 5a 26 00 00       	callq  4069ed <printf_empty>
  404393:	b8 2b 01 00 00       	mov    $0x12b,%eax
  404398:	e9 a3 06 00 00       	jmpq   404a40 <yylex+0x9e2>
  40439d:	48 8b 05 44 06 01 00 	mov    0x10644(%rip),%rax        # 4149e8 <yytext>
  4043a4:	48 89 05 95 05 01 00 	mov    %rax,0x10595(%rip)        # 414940 <yylval>
  4043ab:	48 8b 05 36 06 01 00 	mov    0x10636(%rip),%rax        # 4149e8 <yytext>
  4043b2:	48 89 c6             	mov    %rax,%rsi
  4043b5:	bf d8 de 40 00       	mov    $0x40ded8,%edi
  4043ba:	b8 00 00 00 00       	mov    $0x0,%eax
  4043bf:	e8 29 26 00 00       	callq  4069ed <printf_empty>
  4043c4:	b8 2c 01 00 00       	mov    $0x12c,%eax
  4043c9:	e9 72 06 00 00       	jmpq   404a40 <yylex+0x9e2>
  4043ce:	b8 28 01 00 00       	mov    $0x128,%eax
  4043d3:	e9 68 06 00 00       	jmpq   404a40 <yylex+0x9e2>
  4043d8:	48 8b 05 09 06 01 00 	mov    0x10609(%rip),%rax        # 4149e8 <yytext>
  4043df:	48 89 c6             	mov    %rax,%rsi
  4043e2:	bf ea de 40 00       	mov    $0x40deea,%edi
  4043e7:	b8 00 00 00 00       	mov    $0x0,%eax
  4043ec:	e8 fc 25 00 00       	callq  4069ed <printf_empty>
  4043f1:	b8 27 01 00 00       	mov    $0x127,%eax
  4043f6:	e9 45 06 00 00       	jmpq   404a40 <yylex+0x9e2>
  4043fb:	b8 26 01 00 00       	mov    $0x126,%eax
  404400:	e9 3b 06 00 00       	jmpq   404a40 <yylex+0x9e2>
  404405:	48 8b 05 dc 05 01 00 	mov    0x105dc(%rip),%rax        # 4149e8 <yytext>
  40440c:	48 89 c6             	mov    %rax,%rsi
  40440f:	bf fc de 40 00       	mov    $0x40defc,%edi
  404414:	b8 00 00 00 00       	mov    $0x0,%eax
  404419:	e8 cf 25 00 00       	callq  4069ed <printf_empty>
  40441e:	b8 32 01 00 00       	mov    $0x132,%eax
  404423:	e9 18 06 00 00       	jmpq   404a40 <yylex+0x9e2>
  404428:	48 8b 05 b9 05 01 00 	mov    0x105b9(%rip),%rax        # 4149e8 <yytext>
  40442f:	48 89 c6             	mov    %rax,%rsi
  404432:	bf 0a df 40 00       	mov    $0x40df0a,%edi
  404437:	b8 00 00 00 00       	mov    $0x0,%eax
  40443c:	e8 ac 25 00 00       	callq  4069ed <printf_empty>
  404441:	b8 33 01 00 00       	mov    $0x133,%eax
  404446:	e9 f5 05 00 00       	jmpq   404a40 <yylex+0x9e2>
  40444b:	48 8b 05 96 05 01 00 	mov    0x10596(%rip),%rax        # 4149e8 <yytext>
  404452:	48 89 c6             	mov    %rax,%rsi
  404455:	bf 18 df 40 00       	mov    $0x40df18,%edi
  40445a:	b8 00 00 00 00       	mov    $0x0,%eax
  40445f:	e8 89 25 00 00       	callq  4069ed <printf_empty>
  404464:	b8 34 01 00 00       	mov    $0x134,%eax
  404469:	e9 d2 05 00 00       	jmpq   404a40 <yylex+0x9e2>
  40446e:	b8 35 01 00 00       	mov    $0x135,%eax
  404473:	e9 c8 05 00 00       	jmpq   404a40 <yylex+0x9e2>
  404478:	bf 26 df 40 00       	mov    $0x40df26,%edi
  40447d:	b8 00 00 00 00       	mov    $0x0,%eax
  404482:	e8 66 25 00 00       	callq  4069ed <printf_empty>
  404487:	b8 00 00 00 00       	mov    $0x0,%eax
  40448c:	e8 c8 1d 00 00       	callq  406259 <_line_inc>
  404491:	b8 29 01 00 00       	mov    $0x129,%eax
  404496:	e9 a5 05 00 00       	jmpq   404a40 <yylex+0x9e2>
  40449b:	b8 22 01 00 00       	mov    $0x122,%eax
  4044a0:	e9 9b 05 00 00       	jmpq   404a40 <yylex+0x9e2>
  4044a5:	b8 23 01 00 00       	mov    $0x123,%eax
  4044aa:	e9 91 05 00 00       	jmpq   404a40 <yylex+0x9e2>
  4044af:	b8 06 01 00 00       	mov    $0x106,%eax
  4044b4:	e9 87 05 00 00       	jmpq   404a40 <yylex+0x9e2>
  4044b9:	b8 07 01 00 00       	mov    $0x107,%eax
  4044be:	e9 7d 05 00 00       	jmpq   404a40 <yylex+0x9e2>
  4044c3:	b8 09 01 00 00       	mov    $0x109,%eax
  4044c8:	e9 73 05 00 00       	jmpq   404a40 <yylex+0x9e2>
  4044cd:	b8 0b 01 00 00       	mov    $0x10b,%eax
  4044d2:	e9 69 05 00 00       	jmpq   404a40 <yylex+0x9e2>
  4044d7:	66 c7 05 60 04 01 00 	movw   $0x1,0x10460(%rip)        # 414940 <yylval>
  4044de:	01 00 
  4044e0:	48 8b 05 01 05 01 00 	mov    0x10501(%rip),%rax        # 4149e8 <yytext>
  4044e7:	48 89 c6             	mov    %rax,%rsi
  4044ea:	bf 35 df 40 00       	mov    $0x40df35,%edi
  4044ef:	b8 00 00 00 00       	mov    $0x0,%eax
  4044f4:	e8 f4 24 00 00       	callq  4069ed <printf_empty>
  4044f9:	b8 0c 01 00 00       	mov    $0x10c,%eax
  4044fe:	e9 3d 05 00 00       	jmpq   404a40 <yylex+0x9e2>
  404503:	66 c7 05 34 04 01 00 	movw   $0x0,0x10434(%rip)        # 414940 <yylval>
  40450a:	00 00 
  40450c:	b8 0d 01 00 00       	mov    $0x10d,%eax
  404511:	e9 2a 05 00 00       	jmpq   404a40 <yylex+0x9e2>
  404516:	b8 0a 01 00 00       	mov    $0x10a,%eax
  40451b:	e9 20 05 00 00       	jmpq   404a40 <yylex+0x9e2>
  404520:	48 8b 05 c1 04 01 00 	mov    0x104c1(%rip),%rax        # 4149e8 <yytext>
  404527:	48 89 c6             	mov    %rax,%rsi
  40452a:	bf 46 df 40 00       	mov    $0x40df46,%edi
  40452f:	b8 00 00 00 00       	mov    $0x0,%eax
  404534:	e8 b4 24 00 00       	callq  4069ed <printf_empty>
  404539:	b8 08 01 00 00       	mov    $0x108,%eax
  40453e:	e9 fd 04 00 00       	jmpq   404a40 <yylex+0x9e2>
  404543:	b8 19 01 00 00       	mov    $0x119,%eax
  404548:	e9 f3 04 00 00       	jmpq   404a40 <yylex+0x9e2>
  40454d:	b8 1a 01 00 00       	mov    $0x11a,%eax
  404552:	e9 e9 04 00 00       	jmpq   404a40 <yylex+0x9e2>
  404557:	b8 1c 01 00 00       	mov    $0x11c,%eax
  40455c:	e9 df 04 00 00       	jmpq   404a40 <yylex+0x9e2>
  404561:	b8 1d 01 00 00       	mov    $0x11d,%eax
  404566:	e9 d5 04 00 00       	jmpq   404a40 <yylex+0x9e2>
  40456b:	b8 1f 01 00 00       	mov    $0x11f,%eax
  404570:	e9 cb 04 00 00       	jmpq   404a40 <yylex+0x9e2>
  404575:	b8 21 01 00 00       	mov    $0x121,%eax
  40457a:	e9 c1 04 00 00       	jmpq   404a40 <yylex+0x9e2>
  40457f:	b8 1e 01 00 00       	mov    $0x11e,%eax
  404584:	e9 b7 04 00 00       	jmpq   404a40 <yylex+0x9e2>
  404589:	b8 20 01 00 00       	mov    $0x120,%eax
  40458e:	e9 ad 04 00 00       	jmpq   404a40 <yylex+0x9e2>
  404593:	b8 1b 01 00 00       	mov    $0x11b,%eax
  404598:	e9 a3 04 00 00       	jmpq   404a40 <yylex+0x9e2>
  40459d:	48 8b 05 44 04 01 00 	mov    0x10444(%rip),%rax        # 4149e8 <yytext>
  4045a4:	48 89 05 95 03 01 00 	mov    %rax,0x10395(%rip)        # 414940 <yylval>
  4045ab:	b8 17 01 00 00       	mov    $0x117,%eax
  4045b0:	e9 8b 04 00 00       	jmpq   404a40 <yylex+0x9e2>
  4045b5:	48 8b 05 2c 04 01 00 	mov    0x1042c(%rip),%rax        # 4149e8 <yytext>
  4045bc:	48 89 05 7d 03 01 00 	mov    %rax,0x1037d(%rip)        # 414940 <yylval>
  4045c3:	b8 18 01 00 00       	mov    $0x118,%eax
  4045c8:	e9 73 04 00 00       	jmpq   404a40 <yylex+0x9e2>
  4045cd:	48 8b 05 14 04 01 00 	mov    0x10414(%rip),%rax        # 4149e8 <yytext>
  4045d4:	48 89 c6             	mov    %rax,%rsi
  4045d7:	bf 5c df 40 00       	mov    $0x40df5c,%edi
  4045dc:	b8 00 00 00 00       	mov    $0x0,%eax
  4045e1:	e8 07 24 00 00       	callq  4069ed <printf_empty>
  4045e6:	b8 15 01 00 00       	mov    $0x115,%eax
  4045eb:	e9 50 04 00 00       	jmpq   404a40 <yylex+0x9e2>
  4045f0:	48 8b 05 f1 03 01 00 	mov    0x103f1(%rip),%rax        # 4149e8 <yytext>
  4045f7:	48 89 c6             	mov    %rax,%rsi
  4045fa:	bf 5c df 40 00       	mov    $0x40df5c,%edi
  4045ff:	b8 00 00 00 00       	mov    $0x0,%eax
  404604:	e8 e4 23 00 00       	callq  4069ed <printf_empty>
  404609:	b8 16 01 00 00       	mov    $0x116,%eax
  40460e:	e9 2d 04 00 00       	jmpq   404a40 <yylex+0x9e2>
  404613:	48 8b 05 ce 03 01 00 	mov    0x103ce(%rip),%rax        # 4149e8 <yytext>
  40461a:	48 89 c6             	mov    %rax,%rsi
  40461d:	bf 6d df 40 00       	mov    $0x40df6d,%edi
  404622:	b8 00 00 00 00       	mov    $0x0,%eax
  404627:	e8 c1 23 00 00       	callq  4069ed <printf_empty>
  40462c:	b8 0e 01 00 00       	mov    $0x10e,%eax
  404631:	e9 0a 04 00 00       	jmpq   404a40 <yylex+0x9e2>
  404636:	48 8b 05 ab 03 01 00 	mov    0x103ab(%rip),%rax        # 4149e8 <yytext>
  40463d:	48 89 c6             	mov    %rax,%rsi
  404640:	bf 5c df 40 00       	mov    $0x40df5c,%edi
  404645:	b8 00 00 00 00       	mov    $0x0,%eax
  40464a:	e8 9e 23 00 00       	callq  4069ed <printf_empty>
  40464f:	b8 0f 01 00 00       	mov    $0x10f,%eax
  404654:	e9 e7 03 00 00       	jmpq   404a40 <yylex+0x9e2>
  404659:	48 8b 05 88 03 01 00 	mov    0x10388(%rip),%rax        # 4149e8 <yytext>
  404660:	48 89 c6             	mov    %rax,%rsi
  404663:	bf 7c df 40 00       	mov    $0x40df7c,%edi
  404668:	b8 00 00 00 00       	mov    $0x0,%eax
  40466d:	e8 7b 23 00 00       	callq  4069ed <printf_empty>
  404672:	b8 10 01 00 00       	mov    $0x110,%eax
  404677:	e9 c4 03 00 00       	jmpq   404a40 <yylex+0x9e2>
  40467c:	b8 11 01 00 00       	mov    $0x111,%eax
  404681:	e9 ba 03 00 00       	jmpq   404a40 <yylex+0x9e2>
  404686:	b8 12 01 00 00       	mov    $0x112,%eax
  40468b:	e9 b0 03 00 00       	jmpq   404a40 <yylex+0x9e2>
  404690:	b8 13 01 00 00       	mov    $0x113,%eax
  404695:	e9 a6 03 00 00       	jmpq   404a40 <yylex+0x9e2>
  40469a:	b8 14 01 00 00       	mov    $0x114,%eax
  40469f:	e9 9c 03 00 00       	jmpq   404a40 <yylex+0x9e2>
  4046a4:	48 8b 05 3d 03 01 00 	mov    0x1033d(%rip),%rax        # 4149e8 <yytext>
  4046ab:	0f b6 00             	movzbl (%rax),%eax
  4046ae:	88 05 8c 02 01 00    	mov    %al,0x1028c(%rip)        # 414940 <yylval>
  4046b4:	48 8b 05 2d 03 01 00 	mov    0x1032d(%rip),%rax        # 4149e8 <yytext>
  4046bb:	48 89 c6             	mov    %rax,%rsi
  4046be:	bf 8c df 40 00       	mov    $0x40df8c,%edi
  4046c3:	b8 00 00 00 00       	mov    $0x0,%eax
  4046c8:	e8 20 23 00 00       	callq  4069ed <printf_empty>
  4046cd:	b8 30 01 00 00       	mov    $0x130,%eax
  4046d2:	e9 69 03 00 00       	jmpq   404a40 <yylex+0x9e2>
  4046d7:	48 8b 05 0a 03 01 00 	mov    0x1030a(%rip),%rax        # 4149e8 <yytext>
  4046de:	48 89 05 5b 02 01 00 	mov    %rax,0x1025b(%rip)        # 414940 <yylval>
  4046e5:	48 8b 05 fc 02 01 00 	mov    0x102fc(%rip),%rax        # 4149e8 <yytext>
  4046ec:	48 89 c6             	mov    %rax,%rsi
  4046ef:	bf 9d df 40 00       	mov    $0x40df9d,%edi
  4046f4:	b8 00 00 00 00       	mov    $0x0,%eax
  4046f9:	e8 ef 22 00 00       	callq  4069ed <printf_empty>
  4046fe:	b8 31 01 00 00       	mov    $0x131,%eax
  404703:	e9 38 03 00 00       	jmpq   404a40 <yylex+0x9e2>
  404708:	48 8b 05 d9 02 01 00 	mov    0x102d9(%rip),%rax        # 4149e8 <yytext>
  40470f:	48 89 c7             	mov    %rax,%rdi
  404712:	e8 d9 ec ff ff       	callq  4033f0 <atoi@plt>
  404717:	89 05 23 02 01 00    	mov    %eax,0x10223(%rip)        # 414940 <yylval>
  40471d:	48 8b 05 c4 02 01 00 	mov    0x102c4(%rip),%rax        # 4149e8 <yytext>
  404724:	48 89 c6             	mov    %rax,%rsi
  404727:	bf b0 df 40 00       	mov    $0x40dfb0,%edi
  40472c:	b8 00 00 00 00       	mov    $0x0,%eax
  404731:	e8 b7 22 00 00       	callq  4069ed <printf_empty>
  404736:	b8 2e 01 00 00       	mov    $0x12e,%eax
  40473b:	e9 00 03 00 00       	jmpq   404a40 <yylex+0x9e2>
  404740:	48 8b 05 a1 02 01 00 	mov    0x102a1(%rip),%rax        # 4149e8 <yytext>
  404747:	48 89 c7             	mov    %rax,%rdi
  40474a:	e8 e1 eb ff ff       	callq  403330 <atof@plt>
  40474f:	66 48 0f 7e c0       	movq   %xmm0,%rax
  404754:	48 89 05 e5 01 01 00 	mov    %rax,0x101e5(%rip)        # 414940 <yylval>
  40475b:	48 8b 05 86 02 01 00 	mov    0x10286(%rip),%rax        # 4149e8 <yytext>
  404762:	48 89 c6             	mov    %rax,%rsi
  404765:	bf c4 df 40 00       	mov    $0x40dfc4,%edi
  40476a:	b8 00 00 00 00       	mov    $0x0,%eax
  40476f:	e8 79 22 00 00       	callq  4069ed <printf_empty>
  404774:	b8 2d 01 00 00       	mov    $0x12d,%eax
  404779:	e9 c2 02 00 00       	jmpq   404a40 <yylex+0x9e2>
  40477e:	48 8b 05 63 02 01 00 	mov    0x10263(%rip),%rax        # 4149e8 <yytext>
  404785:	48 89 05 b4 01 01 00 	mov    %rax,0x101b4(%rip)        # 414940 <yylval>
  40478c:	48 8b 05 55 02 01 00 	mov    0x10255(%rip),%rax        # 4149e8 <yytext>
  404793:	48 89 c6             	mov    %rax,%rsi
  404796:	bf d7 df 40 00       	mov    $0x40dfd7,%edi
  40479b:	b8 00 00 00 00       	mov    $0x0,%eax
  4047a0:	e8 48 22 00 00       	callq  4069ed <printf_empty>
  4047a5:	b8 2f 01 00 00       	mov    $0x12f,%eax
  4047aa:	e9 91 02 00 00       	jmpq   404a40 <yylex+0x9e2>
  4047af:	48 8b 15 8a fd 00 00 	mov    0xfd8a(%rip),%rdx        # 414540 <yyout>
  4047b6:	8b 05 34 02 01 00    	mov    0x10234(%rip),%eax        # 4149f0 <yyleng>
  4047bc:	48 63 f0             	movslq %eax,%rsi
  4047bf:	48 8b 05 22 02 01 00 	mov    0x10222(%rip),%rax        # 4149e8 <yytext>
  4047c6:	48 89 d1             	mov    %rdx,%rcx
  4047c9:	ba 01 00 00 00       	mov    $0x1,%edx
  4047ce:	48 89 c7             	mov    %rax,%rdi
  4047d1:	e8 fa ec ff ff       	callq  4034d0 <fwrite@plt>
  4047d6:	e9 60 02 00 00       	jmpq   404a3b <yylex+0x9dd>
  4047db:	48 8b 05 06 02 01 00 	mov    0x10206(%rip),%rax        # 4149e8 <yytext>
  4047e2:	48 8b 55 e0          	mov    -0x20(%rbp),%rdx
  4047e6:	48 29 c2             	sub    %rax,%rdx
  4047e9:	48 89 d0             	mov    %rdx,%rax
  4047ec:	83 e8 01             	sub    $0x1,%eax
  4047ef:	89 45 cc             	mov    %eax,-0x34(%rbp)
  4047f2:	0f b6 15 6f fd 00 00 	movzbl 0xfd6f(%rip),%edx        # 414568 <yy_hold_char>
  4047f9:	48 8b 45 e0          	mov    -0x20(%rbp),%rax
  4047fd:	88 10                	mov    %dl,(%rax)
  4047ff:	48 8b 05 5a fd 00 00 	mov    0xfd5a(%rip),%rax        # 414560 <yy_buffer_stack>
  404806:	48 8b 15 43 fd 00 00 	mov    0xfd43(%rip),%rdx        # 414550 <yy_buffer_stack_top>
  40480d:	48 c1 e2 03          	shl    $0x3,%rdx
  404811:	48 01 d0             	add    %rdx,%rax
  404814:	48 8b 00             	mov    (%rax),%rax
  404817:	8b 40 38             	mov    0x38(%rax),%eax
  40481a:	85 c0                	test   %eax,%eax
  40481c:	75 62                	jne    404880 <yylex+0x822>
  40481e:	48 8b 05 3b fd 00 00 	mov    0xfd3b(%rip),%rax        # 414560 <yy_buffer_stack>
  404825:	48 8b 15 24 fd 00 00 	mov    0xfd24(%rip),%rdx        # 414550 <yy_buffer_stack_top>
  40482c:	48 c1 e2 03          	shl    $0x3,%rdx
  404830:	48 01 d0             	add    %rdx,%rax
  404833:	48 8b 00             	mov    (%rax),%rax
  404836:	8b 40 1c             	mov    0x1c(%rax),%eax
  404839:	89 05 2d fd 00 00    	mov    %eax,0xfd2d(%rip)        # 41456c <yy_n_chars>
  40483f:	48 8b 05 1a fd 00 00 	mov    0xfd1a(%rip),%rax        # 414560 <yy_buffer_stack>
  404846:	48 8b 15 03 fd 00 00 	mov    0xfd03(%rip),%rdx        # 414550 <yy_buffer_stack_top>
  40484d:	48 c1 e2 03          	shl    $0x3,%rdx
  404851:	48 01 d0             	add    %rdx,%rax
  404854:	48 8b 00             	mov    (%rax),%rax
  404857:	48 8b 15 da fc 00 00 	mov    0xfcda(%rip),%rdx        # 414538 <yyin>
  40485e:	48 89 10             	mov    %rdx,(%rax)
  404861:	48 8b 05 f8 fc 00 00 	mov    0xfcf8(%rip),%rax        # 414560 <yy_buffer_stack>
  404868:	48 8b 15 e1 fc 00 00 	mov    0xfce1(%rip),%rdx        # 414550 <yy_buffer_stack_top>
  40486f:	48 c1 e2 03          	shl    $0x3,%rdx
  404873:	48 01 d0             	add    %rdx,%rax
  404876:	48 8b 00             	mov    (%rax),%rax
  404879:	c7 40 38 01 00 00 00 	movl   $0x1,0x38(%rax)
  404880:	48 8b 05 d9 fc 00 00 	mov    0xfcd9(%rip),%rax        # 414560 <yy_buffer_stack>
  404887:	48 8b 15 c2 fc 00 00 	mov    0xfcc2(%rip),%rdx        # 414550 <yy_buffer_stack_top>
  40488e:	48 c1 e2 03          	shl    $0x3,%rdx
  404892:	48 01 d0             	add    %rdx,%rax
  404895:	48 8b 00             	mov    (%rax),%rax
  404898:	48 8b 50 08          	mov    0x8(%rax),%rdx
  40489c:	8b 05 ca fc 00 00    	mov    0xfcca(%rip),%eax        # 41456c <yy_n_chars>
  4048a2:	48 98                	cltq   
  4048a4:	48 01 c2             	add    %rax,%rdx
  4048a7:	48 8b 05 c2 fc 00 00 	mov    0xfcc2(%rip),%rax        # 414570 <yy_c_buf_p>
  4048ae:	48 39 c2             	cmp    %rax,%rdx
  4048b1:	72 74                	jb     404927 <yylex+0x8c9>
  4048b3:	48 8b 15 2e 01 01 00 	mov    0x1012e(%rip),%rdx        # 4149e8 <yytext>
  4048ba:	8b 45 cc             	mov    -0x34(%rbp),%eax
  4048bd:	48 98                	cltq   
  4048bf:	48 01 d0             	add    %rdx,%rax
  4048c2:	48 89 05 a7 fc 00 00 	mov    %rax,0xfca7(%rip)        # 414570 <yy_c_buf_p>
  4048c9:	e8 bc 07 00 00       	callq  40508a <yy_get_previous_state>
  4048ce:	89 45 ec             	mov    %eax,-0x14(%rbp)
  4048d1:	8b 45 ec             	mov    -0x14(%rbp),%eax
  4048d4:	89 c7                	mov    %eax,%edi
  4048d6:	e8 a8 08 00 00       	callq  405183 <yy_try_NUL_trans>
  4048db:	89 45 c8             	mov    %eax,-0x38(%rbp)
  4048de:	48 8b 05 03 01 01 00 	mov    0x10103(%rip),%rax        # 4149e8 <yytext>
  4048e5:	48 89 45 d8          	mov    %rax,-0x28(%rbp)
  4048e9:	83 7d c8 00          	cmpl   $0x0,-0x38(%rbp)
  4048ed:	74 28                	je     404917 <yylex+0x8b9>
  4048ef:	48 8b 05 7a fc 00 00 	mov    0xfc7a(%rip),%rax        # 414570 <yy_c_buf_p>
  4048f6:	48 83 c0 01          	add    $0x1,%rax
  4048fa:	48 89 05 6f fc 00 00 	mov    %rax,0xfc6f(%rip)        # 414570 <yy_c_buf_p>
  404901:	48 8b 05 68 fc 00 00 	mov    0xfc68(%rip),%rax        # 414570 <yy_c_buf_p>
  404908:	48 89 45 e0          	mov    %rax,-0x20(%rbp)
  40490c:	8b 45 c8             	mov    -0x38(%rbp),%eax
  40490f:	89 45 ec             	mov    %eax,-0x14(%rbp)
  404912:	e9 3c f8 ff ff       	jmpq   404153 <yylex+0xf5>
  404917:	48 8b 05 52 fc 00 00 	mov    0xfc52(%rip),%rax        # 414570 <yy_c_buf_p>
  40491e:	48 89 45 e0          	mov    %rax,-0x20(%rbp)
  404922:	e9 f8 f8 ff ff       	jmpq   40421f <yylex+0x1c1>
  404927:	e8 1b 01 00 00       	callq  404a47 <yy_get_next_buffer>
  40492c:	83 f8 01             	cmp    $0x1,%eax
  40492f:	74 12                	je     404943 <yylex+0x8e5>
  404931:	83 f8 02             	cmp    $0x2,%eax
  404934:	0f 84 a2 00 00 00    	je     4049dc <yylex+0x97e>
  40493a:	85 c0                	test   %eax,%eax
  40493c:	74 65                	je     4049a3 <yylex+0x945>
  40493e:	e9 f8 00 00 00       	jmpq   404a3b <yylex+0x9dd>
  404943:	c7 05 33 fc 00 00 00 	movl   $0x0,0xfc33(%rip)        # 414580 <yy_did_buffer_switch_on_eof>
  40494a:	00 00 00 
  40494d:	e8 ee 17 00 00       	callq  406140 <yywrap>
  404952:	85 c0                	test   %eax,%eax
  404954:	74 2b                	je     404981 <yylex+0x923>
  404956:	48 8b 05 8b 00 01 00 	mov    0x1008b(%rip),%rax        # 4149e8 <yytext>
  40495d:	48 89 05 0c fc 00 00 	mov    %rax,0xfc0c(%rip)        # 414570 <yy_c_buf_p>
  404964:	8b 05 12 fc 00 00    	mov    0xfc12(%rip),%eax        # 41457c <yy_start>
  40496a:	83 e8 01             	sub    $0x1,%eax
  40496d:	89 c2                	mov    %eax,%edx
  40496f:	c1 ea 1f             	shr    $0x1f,%edx
  404972:	01 d0                	add    %edx,%eax
  404974:	d1 f8                	sar    %eax
  404976:	83 c0 37             	add    $0x37,%eax
  404979:	89 45 d4             	mov    %eax,-0x2c(%rbp)
  40497c:	e9 12 f9 ff ff       	jmpq   404293 <yylex+0x235>
  404981:	8b 05 f9 fb 00 00    	mov    0xfbf9(%rip),%eax        # 414580 <yy_did_buffer_switch_on_eof>
  404987:	85 c0                	test   %eax,%eax
  404989:	0f 85 9e 00 00 00    	jne    404a2d <yylex+0x9cf>
  40498f:	48 8b 05 a2 fb 00 00 	mov    0xfba2(%rip),%rax        # 414538 <yyin>
  404996:	48 89 c7             	mov    %rax,%rdi
  404999:	e8 be 0b 00 00       	callq  40555c <yyrestart>
  40499e:	e9 8a 00 00 00       	jmpq   404a2d <yylex+0x9cf>
  4049a3:	48 8b 15 3e 00 01 00 	mov    0x1003e(%rip),%rdx        # 4149e8 <yytext>
  4049aa:	8b 45 cc             	mov    -0x34(%rbp),%eax
  4049ad:	48 98                	cltq   
  4049af:	48 01 d0             	add    %rdx,%rax
  4049b2:	48 89 05 b7 fb 00 00 	mov    %rax,0xfbb7(%rip)        # 414570 <yy_c_buf_p>
  4049b9:	e8 cc 06 00 00       	callq  40508a <yy_get_previous_state>
  4049be:	89 45 ec             	mov    %eax,-0x14(%rbp)
  4049c1:	48 8b 05 a8 fb 00 00 	mov    0xfba8(%rip),%rax        # 414570 <yy_c_buf_p>
  4049c8:	48 89 45 e0          	mov    %rax,-0x20(%rbp)
  4049cc:	48 8b 05 15 00 01 00 	mov    0x10015(%rip),%rax        # 4149e8 <yytext>
  4049d3:	48 89 45 d8          	mov    %rax,-0x28(%rbp)
  4049d7:	e9 77 f7 ff ff       	jmpq   404153 <yylex+0xf5>
  4049dc:	48 8b 05 7d fb 00 00 	mov    0xfb7d(%rip),%rax        # 414560 <yy_buffer_stack>
  4049e3:	48 8b 15 66 fb 00 00 	mov    0xfb66(%rip),%rdx        # 414550 <yy_buffer_stack_top>
  4049ea:	48 c1 e2 03          	shl    $0x3,%rdx
  4049ee:	48 01 d0             	add    %rdx,%rax
  4049f1:	48 8b 00             	mov    (%rax),%rax
  4049f4:	48 8b 50 08          	mov    0x8(%rax),%rdx
  4049f8:	8b 05 6e fb 00 00    	mov    0xfb6e(%rip),%eax        # 41456c <yy_n_chars>
  4049fe:	48 98                	cltq   
  404a00:	48 01 d0             	add    %rdx,%rax
  404a03:	48 89 05 66 fb 00 00 	mov    %rax,0xfb66(%rip)        # 414570 <yy_c_buf_p>
  404a0a:	e8 7b 06 00 00       	callq  40508a <yy_get_previous_state>
  404a0f:	89 45 ec             	mov    %eax,-0x14(%rbp)
  404a12:	48 8b 05 57 fb 00 00 	mov    0xfb57(%rip),%rax        # 414570 <yy_c_buf_p>
  404a19:	48 89 45 e0          	mov    %rax,-0x20(%rbp)
  404a1d:	48 8b 05 c4 ff 00 00 	mov    0xffc4(%rip),%rax        # 4149e8 <yytext>
  404a24:	48 89 45 d8          	mov    %rax,-0x28(%rbp)
  404a28:	e9 f2 f7 ff ff       	jmpq   40421f <yylex+0x1c1>
  404a2d:	90                   	nop
  404a2e:	eb 0b                	jmp    404a3b <yylex+0x9dd>
  404a30:	bf f0 df 40 00       	mov    $0x40dff0,%edi
  404a35:	e8 d2 14 00 00       	callq  405f0c <yy_fatal_error>
  404a3a:	90                   	nop
  404a3b:	e9 e7 f6 ff ff       	jmpq   404127 <yylex+0xc9>
  404a40:	48 83 c4 38          	add    $0x38,%rsp
  404a44:	5b                   	pop    %rbx
  404a45:	5d                   	pop    %rbp
  404a46:	c3                   	retq   

0000000000404a47 <yy_get_next_buffer>:
  404a47:	55                   	push   %rbp
  404a48:	48 89 e5             	mov    %rsp,%rbp
  404a4b:	53                   	push   %rbx
  404a4c:	48 83 ec 48          	sub    $0x48,%rsp
  404a50:	48 8b 05 09 fb 00 00 	mov    0xfb09(%rip),%rax        # 414560 <yy_buffer_stack>
  404a57:	48 8b 15 f2 fa 00 00 	mov    0xfaf2(%rip),%rdx        # 414550 <yy_buffer_stack_top>
  404a5e:	48 c1 e2 03          	shl    $0x3,%rdx
  404a62:	48 01 d0             	add    %rdx,%rax
  404a65:	48 8b 00             	mov    (%rax),%rax
  404a68:	48 8b 40 08          	mov    0x8(%rax),%rax
  404a6c:	48 89 45 e8          	mov    %rax,-0x18(%rbp)
  404a70:	48 8b 05 71 ff 00 00 	mov    0xff71(%rip),%rax        # 4149e8 <yytext>
  404a77:	48 89 45 e0          	mov    %rax,-0x20(%rbp)
  404a7b:	48 8b 05 de fa 00 00 	mov    0xfade(%rip),%rax        # 414560 <yy_buffer_stack>
  404a82:	48 8b 15 c7 fa 00 00 	mov    0xfac7(%rip),%rdx        # 414550 <yy_buffer_stack_top>
  404a89:	48 c1 e2 03          	shl    $0x3,%rdx
  404a8d:	48 01 d0             	add    %rdx,%rax
  404a90:	48 8b 00             	mov    (%rax),%rax
  404a93:	48 8b 40 08          	mov    0x8(%rax),%rax
  404a97:	8b 15 cf fa 00 00    	mov    0xfacf(%rip),%edx        # 41456c <yy_n_chars>
  404a9d:	48 63 d2             	movslq %edx,%rdx
  404aa0:	48 83 c2 01          	add    $0x1,%rdx
  404aa4:	48 01 c2             	add    %rax,%rdx
  404aa7:	48 8b 05 c2 fa 00 00 	mov    0xfac2(%rip),%rax        # 414570 <yy_c_buf_p>
  404aae:	48 39 c2             	cmp    %rax,%rdx
  404ab1:	73 0a                	jae    404abd <yy_get_next_buffer+0x76>
  404ab3:	bf e8 e1 40 00       	mov    $0x40e1e8,%edi
  404ab8:	e8 4f 14 00 00       	callq  405f0c <yy_fatal_error>
  404abd:	48 8b 05 9c fa 00 00 	mov    0xfa9c(%rip),%rax        # 414560 <yy_buffer_stack>
  404ac4:	48 8b 15 85 fa 00 00 	mov    0xfa85(%rip),%rdx        # 414550 <yy_buffer_stack_top>
  404acb:	48 c1 e2 03          	shl    $0x3,%rdx
  404acf:	48 01 d0             	add    %rdx,%rax
  404ad2:	48 8b 00             	mov    (%rax),%rax
  404ad5:	8b 40 34             	mov    0x34(%rax),%eax
  404ad8:	85 c0                	test   %eax,%eax
  404ada:	75 2e                	jne    404b0a <yy_get_next_buffer+0xc3>
  404adc:	48 8b 15 8d fa 00 00 	mov    0xfa8d(%rip),%rdx        # 414570 <yy_c_buf_p>
  404ae3:	48 8b 05 fe fe 00 00 	mov    0xfefe(%rip),%rax        # 4149e8 <yytext>
  404aea:	48 29 c2             	sub    %rax,%rdx
  404aed:	48 89 d0             	mov    %rdx,%rax
  404af0:	48 83 f8 01          	cmp    $0x1,%rax
  404af4:	75 0a                	jne    404b00 <yy_get_next_buffer+0xb9>
  404af6:	b8 01 00 00 00       	mov    $0x1,%eax
  404afb:	e9 83 05 00 00       	jmpq   405083 <yy_get_next_buffer+0x63c>
  404b00:	b8 02 00 00 00       	mov    $0x2,%eax
  404b05:	e9 79 05 00 00       	jmpq   405083 <yy_get_next_buffer+0x63c>
  404b0a:	48 8b 15 5f fa 00 00 	mov    0xfa5f(%rip),%rdx        # 414570 <yy_c_buf_p>
  404b11:	48 8b 05 d0 fe 00 00 	mov    0xfed0(%rip),%rax        # 4149e8 <yytext>
  404b18:	48 29 c2             	sub    %rax,%rdx
  404b1b:	48 89 d0             	mov    %rdx,%rax
  404b1e:	83 e8 01             	sub    $0x1,%eax
  404b21:	89 45 c8             	mov    %eax,-0x38(%rbp)
  404b24:	c7 45 dc 00 00 00 00 	movl   $0x0,-0x24(%rbp)
  404b2b:	eb 21                	jmp    404b4e <yy_get_next_buffer+0x107>
  404b2d:	48 8b 55 e0          	mov    -0x20(%rbp),%rdx
  404b31:	48 8d 42 01          	lea    0x1(%rdx),%rax
  404b35:	48 89 45 e0          	mov    %rax,-0x20(%rbp)
  404b39:	48 8b 45 e8          	mov    -0x18(%rbp),%rax
  404b3d:	48 8d 48 01          	lea    0x1(%rax),%rcx
  404b41:	48 89 4d e8          	mov    %rcx,-0x18(%rbp)
  404b45:	0f b6 12             	movzbl (%rdx),%edx
  404b48:	88 10                	mov    %dl,(%rax)
  404b4a:	83 45 dc 01          	addl   $0x1,-0x24(%rbp)
  404b4e:	8b 45 dc             	mov    -0x24(%rbp),%eax
  404b51:	3b 45 c8             	cmp    -0x38(%rbp),%eax
  404b54:	7c d7                	jl     404b2d <yy_get_next_buffer+0xe6>
  404b56:	48 8b 05 03 fa 00 00 	mov    0xfa03(%rip),%rax        # 414560 <yy_buffer_stack>
  404b5d:	48 8b 15 ec f9 00 00 	mov    0xf9ec(%rip),%rdx        # 414550 <yy_buffer_stack_top>
  404b64:	48 c1 e2 03          	shl    $0x3,%rdx
  404b68:	48 01 d0             	add    %rdx,%rax
  404b6b:	48 8b 00             	mov    (%rax),%rax
  404b6e:	8b 40 38             	mov    0x38(%rax),%eax
  404b71:	83 f8 02             	cmp    $0x2,%eax
  404b74:	75 30                	jne    404ba6 <yy_get_next_buffer+0x15f>
  404b76:	c7 05 ec f9 00 00 00 	movl   $0x0,0xf9ec(%rip)        # 41456c <yy_n_chars>
  404b7d:	00 00 00 
  404b80:	48 8b 05 d9 f9 00 00 	mov    0xf9d9(%rip),%rax        # 414560 <yy_buffer_stack>
  404b87:	48 8b 15 c2 f9 00 00 	mov    0xf9c2(%rip),%rdx        # 414550 <yy_buffer_stack_top>
  404b8e:	48 c1 e2 03          	shl    $0x3,%rdx
  404b92:	48 01 d0             	add    %rdx,%rax
  404b95:	48 8b 00             	mov    (%rax),%rax
  404b98:	8b 15 ce f9 00 00    	mov    0xf9ce(%rip),%edx        # 41456c <yy_n_chars>
  404b9e:	89 50 1c             	mov    %edx,0x1c(%rax)
  404ba1:	e9 1a 03 00 00       	jmpq   404ec0 <yy_get_next_buffer+0x479>
  404ba6:	48 8b 05 b3 f9 00 00 	mov    0xf9b3(%rip),%rax        # 414560 <yy_buffer_stack>
  404bad:	48 8b 15 9c f9 00 00 	mov    0xf99c(%rip),%rdx        # 414550 <yy_buffer_stack_top>
  404bb4:	48 c1 e2 03          	shl    $0x3,%rdx
  404bb8:	48 01 d0             	add    %rdx,%rax
  404bbb:	48 8b 00             	mov    (%rax),%rax
  404bbe:	8b 40 18             	mov    0x18(%rax),%eax
  404bc1:	2b 45 c8             	sub    -0x38(%rbp),%eax
  404bc4:	83 e8 01             	sub    $0x1,%eax
  404bc7:	89 45 d4             	mov    %eax,-0x2c(%rbp)
  404bca:	e9 11 01 00 00       	jmpq   404ce0 <yy_get_next_buffer+0x299>
  404bcf:	48 8b 05 8a f9 00 00 	mov    0xf98a(%rip),%rax        # 414560 <yy_buffer_stack>
  404bd6:	48 8b 15 73 f9 00 00 	mov    0xf973(%rip),%rdx        # 414550 <yy_buffer_stack_top>
  404bdd:	48 c1 e2 03          	shl    $0x3,%rdx
  404be1:	48 01 d0             	add    %rdx,%rax
  404be4:	48 8b 00             	mov    (%rax),%rax
  404be7:	48 89 45 c0          	mov    %rax,-0x40(%rbp)
  404beb:	48 8b 15 7e f9 00 00 	mov    0xf97e(%rip),%rdx        # 414570 <yy_c_buf_p>
  404bf2:	48 8b 45 c0          	mov    -0x40(%rbp),%rax
  404bf6:	48 8b 40 08          	mov    0x8(%rax),%rax
  404bfa:	48 29 c2             	sub    %rax,%rdx
  404bfd:	48 89 d0             	mov    %rdx,%rax
  404c00:	89 45 bc             	mov    %eax,-0x44(%rbp)
  404c03:	48 8b 45 c0          	mov    -0x40(%rbp),%rax
  404c07:	8b 40 20             	mov    0x20(%rax),%eax
  404c0a:	85 c0                	test   %eax,%eax
  404c0c:	74 74                	je     404c82 <yy_get_next_buffer+0x23b>
  404c0e:	48 8b 45 c0          	mov    -0x40(%rbp),%rax
  404c12:	8b 40 18             	mov    0x18(%rax),%eax
  404c15:	01 c0                	add    %eax,%eax
  404c17:	89 45 b8             	mov    %eax,-0x48(%rbp)
  404c1a:	83 7d b8 00          	cmpl   $0x0,-0x48(%rbp)
  404c1e:	7f 24                	jg     404c44 <yy_get_next_buffer+0x1fd>
  404c20:	48 8b 45 c0          	mov    -0x40(%rbp),%rax
  404c24:	8b 50 18             	mov    0x18(%rax),%edx
  404c27:	48 8b 45 c0          	mov    -0x40(%rbp),%rax
  404c2b:	8b 40 18             	mov    0x18(%rax),%eax
  404c2e:	8d 48 07             	lea    0x7(%rax),%ecx
  404c31:	85 c0                	test   %eax,%eax
  404c33:	0f 48 c1             	cmovs  %ecx,%eax
  404c36:	c1 f8 03             	sar    $0x3,%eax
  404c39:	01 c2                	add    %eax,%edx
  404c3b:	48 8b 45 c0          	mov    -0x40(%rbp),%rax
  404c3f:	89 50 18             	mov    %edx,0x18(%rax)
  404c42:	eb 11                	jmp    404c55 <yy_get_next_buffer+0x20e>
  404c44:	48 8b 45 c0          	mov    -0x40(%rbp),%rax
  404c48:	8b 40 18             	mov    0x18(%rax),%eax
  404c4b:	8d 14 00             	lea    (%rax,%rax,1),%edx
  404c4e:	48 8b 45 c0          	mov    -0x40(%rbp),%rax
  404c52:	89 50 18             	mov    %edx,0x18(%rax)
  404c55:	48 8b 45 c0          	mov    -0x40(%rbp),%rax
  404c59:	8b 40 18             	mov    0x18(%rax),%eax
  404c5c:	83 c0 02             	add    $0x2,%eax
  404c5f:	48 63 d0             	movslq %eax,%rdx
  404c62:	48 8b 45 c0          	mov    -0x40(%rbp),%rax
  404c66:	48 8b 40 08          	mov    0x8(%rax),%rax
  404c6a:	48 89 d6             	mov    %rdx,%rsi
  404c6d:	48 89 c7             	mov    %rax,%rdi
  404c70:	e8 8b 14 00 00       	callq  406100 <yyrealloc>
  404c75:	48 89 c2             	mov    %rax,%rdx
  404c78:	48 8b 45 c0          	mov    -0x40(%rbp),%rax
  404c7c:	48 89 50 08          	mov    %rdx,0x8(%rax)
  404c80:	eb 0c                	jmp    404c8e <yy_get_next_buffer+0x247>
  404c82:	48 8b 45 c0          	mov    -0x40(%rbp),%rax
  404c86:	48 c7 40 08 00 00 00 	movq   $0x0,0x8(%rax)
  404c8d:	00 
  404c8e:	48 8b 45 c0          	mov    -0x40(%rbp),%rax
  404c92:	48 8b 40 08          	mov    0x8(%rax),%rax
  404c96:	48 85 c0             	test   %rax,%rax
  404c99:	75 0a                	jne    404ca5 <yy_get_next_buffer+0x25e>
  404c9b:	bf 20 e2 40 00       	mov    $0x40e220,%edi
  404ca0:	e8 67 12 00 00       	callq  405f0c <yy_fatal_error>
  404ca5:	48 8b 45 c0          	mov    -0x40(%rbp),%rax
  404ca9:	48 8b 50 08          	mov    0x8(%rax),%rdx
  404cad:	8b 45 bc             	mov    -0x44(%rbp),%eax
  404cb0:	48 98                	cltq   
  404cb2:	48 01 d0             	add    %rdx,%rax
  404cb5:	48 89 05 b4 f8 00 00 	mov    %rax,0xf8b4(%rip)        # 414570 <yy_c_buf_p>
  404cbc:	48 8b 05 9d f8 00 00 	mov    0xf89d(%rip),%rax        # 414560 <yy_buffer_stack>
  404cc3:	48 8b 15 86 f8 00 00 	mov    0xf886(%rip),%rdx        # 414550 <yy_buffer_stack_top>
  404cca:	48 c1 e2 03          	shl    $0x3,%rdx
  404cce:	48 01 d0             	add    %rdx,%rax
  404cd1:	48 8b 00             	mov    (%rax),%rax
  404cd4:	8b 40 18             	mov    0x18(%rax),%eax
  404cd7:	2b 45 c8             	sub    -0x38(%rbp),%eax
  404cda:	83 e8 01             	sub    $0x1,%eax
  404cdd:	89 45 d4             	mov    %eax,-0x2c(%rbp)
  404ce0:	83 7d d4 00          	cmpl   $0x0,-0x2c(%rbp)
  404ce4:	0f 8e e5 fe ff ff    	jle    404bcf <yy_get_next_buffer+0x188>
  404cea:	81 7d d4 00 20 00 00 	cmpl   $0x2000,-0x2c(%rbp)
  404cf1:	7e 07                	jle    404cfa <yy_get_next_buffer+0x2b3>
  404cf3:	c7 45 d4 00 20 00 00 	movl   $0x2000,-0x2c(%rbp)
  404cfa:	48 8b 05 5f f8 00 00 	mov    0xf85f(%rip),%rax        # 414560 <yy_buffer_stack>
  404d01:	48 8b 15 48 f8 00 00 	mov    0xf848(%rip),%rdx        # 414550 <yy_buffer_stack_top>
  404d08:	48 c1 e2 03          	shl    $0x3,%rdx
  404d0c:	48 01 d0             	add    %rdx,%rax
  404d0f:	48 8b 00             	mov    (%rax),%rax
  404d12:	8b 40 24             	mov    0x24(%rax),%eax
  404d15:	85 c0                	test   %eax,%eax
  404d17:	0f 84 dc 00 00 00    	je     404df9 <yy_get_next_buffer+0x3b2>
  404d1d:	c7 45 d0 2a 00 00 00 	movl   $0x2a,-0x30(%rbp)
  404d24:	c7 45 cc 00 00 00 00 	movl   $0x0,-0x34(%rbp)
  404d2b:	eb 37                	jmp    404d64 <yy_get_next_buffer+0x31d>
  404d2d:	48 8b 05 2c f8 00 00 	mov    0xf82c(%rip),%rax        # 414560 <yy_buffer_stack>
  404d34:	48 8b 15 15 f8 00 00 	mov    0xf815(%rip),%rdx        # 414550 <yy_buffer_stack_top>
  404d3b:	48 c1 e2 03          	shl    $0x3,%rdx
  404d3f:	48 01 d0             	add    %rdx,%rax
  404d42:	48 8b 00             	mov    (%rax),%rax
  404d45:	48 8b 40 08          	mov    0x8(%rax),%rax
  404d49:	8b 55 c8             	mov    -0x38(%rbp),%edx
  404d4c:	48 63 ca             	movslq %edx,%rcx
  404d4f:	8b 55 cc             	mov    -0x34(%rbp),%edx
  404d52:	48 63 d2             	movslq %edx,%rdx
  404d55:	48 01 ca             	add    %rcx,%rdx
  404d58:	48 01 d0             	add    %rdx,%rax
  404d5b:	8b 55 d0             	mov    -0x30(%rbp),%edx
  404d5e:	88 10                	mov    %dl,(%rax)
  404d60:	83 45 cc 01          	addl   $0x1,-0x34(%rbp)
  404d64:	8b 45 cc             	mov    -0x34(%rbp),%eax
  404d67:	3b 45 d4             	cmp    -0x2c(%rbp),%eax
  404d6a:	7d 1e                	jge    404d8a <yy_get_next_buffer+0x343>
  404d6c:	48 8b 05 c5 f7 00 00 	mov    0xf7c5(%rip),%rax        # 414538 <yyin>
  404d73:	48 89 c7             	mov    %rax,%rdi
  404d76:	e8 55 e3 ff ff       	callq  4030d0 <getc@plt>
  404d7b:	89 45 d0             	mov    %eax,-0x30(%rbp)
  404d7e:	83 7d d0 ff          	cmpl   $0xffffffff,-0x30(%rbp)
  404d82:	74 06                	je     404d8a <yy_get_next_buffer+0x343>
  404d84:	83 7d d0 0a          	cmpl   $0xa,-0x30(%rbp)
  404d88:	75 a3                	jne    404d2d <yy_get_next_buffer+0x2e6>
  404d8a:	83 7d d0 0a          	cmpl   $0xa,-0x30(%rbp)
  404d8e:	75 38                	jne    404dc8 <yy_get_next_buffer+0x381>
  404d90:	48 8b 05 c9 f7 00 00 	mov    0xf7c9(%rip),%rax        # 414560 <yy_buffer_stack>
  404d97:	48 8b 15 b2 f7 00 00 	mov    0xf7b2(%rip),%rdx        # 414550 <yy_buffer_stack_top>
  404d9e:	48 c1 e2 03          	shl    $0x3,%rdx
  404da2:	48 01 d0             	add    %rdx,%rax
  404da5:	48 8b 00             	mov    (%rax),%rax
  404da8:	48 8b 48 08          	mov    0x8(%rax),%rcx
  404dac:	8b 45 c8             	mov    -0x38(%rbp),%eax
  404daf:	48 63 f0             	movslq %eax,%rsi
  404db2:	8b 45 cc             	mov    -0x34(%rbp),%eax
  404db5:	8d 50 01             	lea    0x1(%rax),%edx
  404db8:	89 55 cc             	mov    %edx,-0x34(%rbp)
  404dbb:	48 98                	cltq   
  404dbd:	48 01 f0             	add    %rsi,%rax
  404dc0:	48 01 c8             	add    %rcx,%rax
  404dc3:	8b 55 d0             	mov    -0x30(%rbp),%edx
  404dc6:	88 10                	mov    %dl,(%rax)
  404dc8:	83 7d d0 ff          	cmpl   $0xffffffff,-0x30(%rbp)
  404dcc:	75 1d                	jne    404deb <yy_get_next_buffer+0x3a4>
  404dce:	48 8b 05 63 f7 00 00 	mov    0xf763(%rip),%rax        # 414538 <yyin>
  404dd5:	48 89 c7             	mov    %rax,%rdi
  404dd8:	e8 d3 e6 ff ff       	callq  4034b0 <ferror@plt>
  404ddd:	85 c0                	test   %eax,%eax
  404ddf:	74 0a                	je     404deb <yy_get_next_buffer+0x3a4>
  404de1:	bf 4c e2 40 00       	mov    $0x40e24c,%edi
  404de6:	e8 21 11 00 00       	callq  405f0c <yy_fatal_error>
  404deb:	8b 45 cc             	mov    -0x34(%rbp),%eax
  404dee:	89 05 78 f7 00 00    	mov    %eax,0xf778(%rip)        # 41456c <yy_n_chars>
  404df4:	e9 a6 00 00 00       	jmpq   404e9f <yy_get_next_buffer+0x458>
  404df9:	e8 62 e2 ff ff       	callq  403060 <__errno_location@plt>
  404dfe:	c7 00 00 00 00 00    	movl   $0x0,(%rax)
  404e04:	eb 30                	jmp    404e36 <yy_get_next_buffer+0x3ef>
  404e06:	e8 55 e2 ff ff       	callq  403060 <__errno_location@plt>
  404e0b:	8b 00                	mov    (%rax),%eax
  404e0d:	83 f8 04             	cmp    $0x4,%eax
  404e10:	74 0a                	je     404e1c <yy_get_next_buffer+0x3d5>
  404e12:	bf 4c e2 40 00       	mov    $0x40e24c,%edi
  404e17:	e8 f0 10 00 00       	callq  405f0c <yy_fatal_error>
  404e1c:	e8 3f e2 ff ff       	callq  403060 <__errno_location@plt>
  404e21:	c7 00 00 00 00 00    	movl   $0x0,(%rax)
  404e27:	48 8b 05 0a f7 00 00 	mov    0xf70a(%rip),%rax        # 414538 <yyin>
  404e2e:	48 89 c7             	mov    %rax,%rdi
  404e31:	e8 6a e2 ff ff       	callq  4030a0 <clearerr@plt>
  404e36:	48 8b 15 fb f6 00 00 	mov    0xf6fb(%rip),%rdx        # 414538 <yyin>
  404e3d:	8b 45 d4             	mov    -0x2c(%rbp),%eax
  404e40:	48 98                	cltq   
  404e42:	48 8b 0d 17 f7 00 00 	mov    0xf717(%rip),%rcx        # 414560 <yy_buffer_stack>
  404e49:	48 8b 35 00 f7 00 00 	mov    0xf700(%rip),%rsi        # 414550 <yy_buffer_stack_top>
  404e50:	48 c1 e6 03          	shl    $0x3,%rsi
  404e54:	48 01 f1             	add    %rsi,%rcx
  404e57:	48 8b 09             	mov    (%rcx),%rcx
  404e5a:	48 8b 71 08          	mov    0x8(%rcx),%rsi
  404e5e:	8b 4d c8             	mov    -0x38(%rbp),%ecx
  404e61:	48 63 c9             	movslq %ecx,%rcx
  404e64:	48 8d 3c 0e          	lea    (%rsi,%rcx,1),%rdi
  404e68:	48 89 d1             	mov    %rdx,%rcx
  404e6b:	48 89 c2             	mov    %rax,%rdx
  404e6e:	be 01 00 00 00       	mov    $0x1,%esi
  404e73:	e8 48 e5 ff ff       	callq  4033c0 <fread@plt>
  404e78:	89 05 ee f6 00 00    	mov    %eax,0xf6ee(%rip)        # 41456c <yy_n_chars>
  404e7e:	8b 05 e8 f6 00 00    	mov    0xf6e8(%rip),%eax        # 41456c <yy_n_chars>
  404e84:	85 c0                	test   %eax,%eax
  404e86:	75 17                	jne    404e9f <yy_get_next_buffer+0x458>
  404e88:	48 8b 05 a9 f6 00 00 	mov    0xf6a9(%rip),%rax        # 414538 <yyin>
  404e8f:	48 89 c7             	mov    %rax,%rdi
  404e92:	e8 19 e6 ff ff       	callq  4034b0 <ferror@plt>
  404e97:	85 c0                	test   %eax,%eax
  404e99:	0f 85 67 ff ff ff    	jne    404e06 <yy_get_next_buffer+0x3bf>
  404e9f:	48 8b 05 ba f6 00 00 	mov    0xf6ba(%rip),%rax        # 414560 <yy_buffer_stack>
  404ea6:	48 8b 15 a3 f6 00 00 	mov    0xf6a3(%rip),%rdx        # 414550 <yy_buffer_stack_top>
  404ead:	48 c1 e2 03          	shl    $0x3,%rdx
  404eb1:	48 01 d0             	add    %rdx,%rax
  404eb4:	48 8b 00             	mov    (%rax),%rax
  404eb7:	8b 15 af f6 00 00    	mov    0xf6af(%rip),%edx        # 41456c <yy_n_chars>
  404ebd:	89 50 1c             	mov    %edx,0x1c(%rax)
  404ec0:	8b 05 a6 f6 00 00    	mov    0xf6a6(%rip),%eax        # 41456c <yy_n_chars>
  404ec6:	85 c0                	test   %eax,%eax
  404ec8:	75 46                	jne    404f10 <yy_get_next_buffer+0x4c9>
  404eca:	83 7d c8 00          	cmpl   $0x0,-0x38(%rbp)
  404ece:	75 18                	jne    404ee8 <yy_get_next_buffer+0x4a1>
  404ed0:	c7 45 d8 01 00 00 00 	movl   $0x1,-0x28(%rbp)
  404ed7:	48 8b 05 5a f6 00 00 	mov    0xf65a(%rip),%rax        # 414538 <yyin>
  404ede:	48 89 c7             	mov    %rax,%rdi
  404ee1:	e8 76 06 00 00       	callq  40555c <yyrestart>
  404ee6:	eb 2f                	jmp    404f17 <yy_get_next_buffer+0x4d0>
  404ee8:	c7 45 d8 02 00 00 00 	movl   $0x2,-0x28(%rbp)
  404eef:	48 8b 05 6a f6 00 00 	mov    0xf66a(%rip),%rax        # 414560 <yy_buffer_stack>
  404ef6:	48 8b 15 53 f6 00 00 	mov    0xf653(%rip),%rdx        # 414550 <yy_buffer_stack_top>
  404efd:	48 c1 e2 03          	shl    $0x3,%rdx
  404f01:	48 01 d0             	add    %rdx,%rax
  404f04:	48 8b 00             	mov    (%rax),%rax
  404f07:	c7 40 38 02 00 00 00 	movl   $0x2,0x38(%rax)
  404f0e:	eb 07                	jmp    404f17 <yy_get_next_buffer+0x4d0>
  404f10:	c7 45 d8 00 00 00 00 	movl   $0x0,-0x28(%rbp)
  404f17:	8b 15 4f f6 00 00    	mov    0xf64f(%rip),%edx        # 41456c <yy_n_chars>
  404f1d:	8b 45 c8             	mov    -0x38(%rbp),%eax
  404f20:	8d 0c 02             	lea    (%rdx,%rax,1),%ecx
  404f23:	48 8b 05 36 f6 00 00 	mov    0xf636(%rip),%rax        # 414560 <yy_buffer_stack>
  404f2a:	48 8b 15 1f f6 00 00 	mov    0xf61f(%rip),%rdx        # 414550 <yy_buffer_stack_top>
  404f31:	48 c1 e2 03          	shl    $0x3,%rdx
  404f35:	48 01 d0             	add    %rdx,%rax
  404f38:	48 8b 00             	mov    (%rax),%rax
  404f3b:	8b 40 18             	mov    0x18(%rax),%eax
  404f3e:	39 c1                	cmp    %eax,%ecx
  404f40:	0f 8e ad 00 00 00    	jle    404ff3 <yy_get_next_buffer+0x5ac>
  404f46:	8b 15 20 f6 00 00    	mov    0xf620(%rip),%edx        # 41456c <yy_n_chars>
  404f4c:	8b 45 c8             	mov    -0x38(%rbp),%eax
  404f4f:	01 c2                	add    %eax,%edx
  404f51:	8b 05 15 f6 00 00    	mov    0xf615(%rip),%eax        # 41456c <yy_n_chars>
  404f57:	d1 f8                	sar    %eax
  404f59:	01 d0                	add    %edx,%eax
  404f5b:	89 45 b4             	mov    %eax,-0x4c(%rbp)
  404f5e:	8b 45 b4             	mov    -0x4c(%rbp),%eax
  404f61:	48 63 d0             	movslq %eax,%rdx
  404f64:	48 8b 05 f5 f5 00 00 	mov    0xf5f5(%rip),%rax        # 414560 <yy_buffer_stack>
  404f6b:	48 8b 0d de f5 00 00 	mov    0xf5de(%rip),%rcx        # 414550 <yy_buffer_stack_top>
  404f72:	48 c1 e1 03          	shl    $0x3,%rcx
  404f76:	48 01 c8             	add    %rcx,%rax
  404f79:	48 8b 00             	mov    (%rax),%rax
  404f7c:	48 8b 40 08          	mov    0x8(%rax),%rax
  404f80:	48 8b 0d d9 f5 00 00 	mov    0xf5d9(%rip),%rcx        # 414560 <yy_buffer_stack>
  404f87:	48 8b 35 c2 f5 00 00 	mov    0xf5c2(%rip),%rsi        # 414550 <yy_buffer_stack_top>
  404f8e:	48 c1 e6 03          	shl    $0x3,%rsi
  404f92:	48 01 f1             	add    %rsi,%rcx
  404f95:	48 8b 19             	mov    (%rcx),%rbx
  404f98:	48 89 d6             	mov    %rdx,%rsi
  404f9b:	48 89 c7             	mov    %rax,%rdi
  404f9e:	e8 5d 11 00 00       	callq  406100 <yyrealloc>
  404fa3:	48 89 43 08          	mov    %rax,0x8(%rbx)
  404fa7:	48 8b 05 b2 f5 00 00 	mov    0xf5b2(%rip),%rax        # 414560 <yy_buffer_stack>
  404fae:	48 8b 15 9b f5 00 00 	mov    0xf59b(%rip),%rdx        # 414550 <yy_buffer_stack_top>
  404fb5:	48 c1 e2 03          	shl    $0x3,%rdx
  404fb9:	48 01 d0             	add    %rdx,%rax
  404fbc:	48 8b 00             	mov    (%rax),%rax
  404fbf:	48 8b 40 08          	mov    0x8(%rax),%rax
  404fc3:	48 85 c0             	test   %rax,%rax
  404fc6:	75 0a                	jne    404fd2 <yy_get_next_buffer+0x58b>
  404fc8:	bf 70 e2 40 00       	mov    $0x40e270,%edi
  404fcd:	e8 3a 0f 00 00       	callq  405f0c <yy_fatal_error>
  404fd2:	48 8b 05 87 f5 00 00 	mov    0xf587(%rip),%rax        # 414560 <yy_buffer_stack>
  404fd9:	48 8b 15 70 f5 00 00 	mov    0xf570(%rip),%rdx        # 414550 <yy_buffer_stack_top>
  404fe0:	48 c1 e2 03          	shl    $0x3,%rdx
  404fe4:	48 01 d0             	add    %rdx,%rax
  404fe7:	48 8b 00             	mov    (%rax),%rax
  404fea:	8b 55 b4             	mov    -0x4c(%rbp),%edx
  404fed:	83 ea 02             	sub    $0x2,%edx
  404ff0:	89 50 18             	mov    %edx,0x18(%rax)
  404ff3:	8b 15 73 f5 00 00    	mov    0xf573(%rip),%edx        # 41456c <yy_n_chars>
  404ff9:	8b 45 c8             	mov    -0x38(%rbp),%eax
  404ffc:	01 d0                	add    %edx,%eax
  404ffe:	89 05 68 f5 00 00    	mov    %eax,0xf568(%rip)        # 41456c <yy_n_chars>
  405004:	48 8b 05 55 f5 00 00 	mov    0xf555(%rip),%rax        # 414560 <yy_buffer_stack>
  40500b:	48 8b 15 3e f5 00 00 	mov    0xf53e(%rip),%rdx        # 414550 <yy_buffer_stack_top>
  405012:	48 c1 e2 03          	shl    $0x3,%rdx
  405016:	48 01 d0             	add    %rdx,%rax
  405019:	48 8b 00             	mov    (%rax),%rax
  40501c:	48 8b 50 08          	mov    0x8(%rax),%rdx
  405020:	8b 05 46 f5 00 00    	mov    0xf546(%rip),%eax        # 41456c <yy_n_chars>
  405026:	48 98                	cltq   
  405028:	48 01 d0             	add    %rdx,%rax
  40502b:	c6 00 00             	movb   $0x0,(%rax)
  40502e:	48 8b 05 2b f5 00 00 	mov    0xf52b(%rip),%rax        # 414560 <yy_buffer_stack>
  405035:	48 8b 15 14 f5 00 00 	mov    0xf514(%rip),%rdx        # 414550 <yy_buffer_stack_top>
  40503c:	48 c1 e2 03          	shl    $0x3,%rdx
  405040:	48 01 d0             	add    %rdx,%rax
  405043:	48 8b 00             	mov    (%rax),%rax
  405046:	48 8b 40 08          	mov    0x8(%rax),%rax
  40504a:	8b 15 1c f5 00 00    	mov    0xf51c(%rip),%edx        # 41456c <yy_n_chars>
  405050:	48 63 d2             	movslq %edx,%rdx
  405053:	48 83 c2 01          	add    $0x1,%rdx
  405057:	48 01 d0             	add    %rdx,%rax
  40505a:	c6 00 00             	movb   $0x0,(%rax)
  40505d:	48 8b 05 fc f4 00 00 	mov    0xf4fc(%rip),%rax        # 414560 <yy_buffer_stack>
  405064:	48 8b 15 e5 f4 00 00 	mov    0xf4e5(%rip),%rdx        # 414550 <yy_buffer_stack_top>
  40506b:	48 c1 e2 03          	shl    $0x3,%rdx
  40506f:	48 01 d0             	add    %rdx,%rax
  405072:	48 8b 00             	mov    (%rax),%rax
  405075:	48 8b 40 08          	mov    0x8(%rax),%rax
  405079:	48 89 05 68 f9 00 00 	mov    %rax,0xf968(%rip)        # 4149e8 <yytext>
  405080:	8b 45 d8             	mov    -0x28(%rbp),%eax
  405083:	48 83 c4 48          	add    $0x48,%rsp
  405087:	5b                   	pop    %rbx
  405088:	5d                   	pop    %rbp
  405089:	c3                   	retq   

000000000040508a <yy_get_previous_state>:
  40508a:	55                   	push   %rbp
  40508b:	48 89 e5             	mov    %rsp,%rbp
  40508e:	8b 05 e8 f4 00 00    	mov    0xf4e8(%rip),%eax        # 41457c <yy_start>
  405094:	89 45 fc             	mov    %eax,-0x4(%rbp)
  405097:	48 8b 05 4a f9 00 00 	mov    0xf94a(%rip),%rax        # 4149e8 <yytext>
  40509e:	48 89 45 f0          	mov    %rax,-0x10(%rbp)
  4050a2:	e9 c6 00 00 00       	jmpq   40516d <yy_get_previous_state+0xe3>
  4050a7:	48 8b 45 f0          	mov    -0x10(%rbp),%rax
  4050ab:	0f b6 00             	movzbl (%rax),%eax
  4050ae:	84 c0                	test   %al,%al
  4050b0:	74 15                	je     4050c7 <yy_get_previous_state+0x3d>
  4050b2:	48 8b 45 f0          	mov    -0x10(%rbp),%rax
  4050b6:	0f b6 00             	movzbl (%rax),%eax
  4050b9:	0f b6 c0             	movzbl %al,%eax
  4050bc:	48 98                	cltq   
  4050be:	0f b6 80 40 d8 40 00 	movzbl 0x40d840(%rax),%eax
  4050c5:	eb 05                	jmp    4050cc <yy_get_previous_state+0x42>
  4050c7:	b8 01 00 00 00       	mov    $0x1,%eax
  4050cc:	88 45 ef             	mov    %al,-0x11(%rbp)
  4050cf:	8b 45 fc             	mov    -0x4(%rbp),%eax
  4050d2:	48 98                	cltq   
  4050d4:	0f b7 84 00 40 d7 40 	movzwl 0x40d740(%rax,%rax,1),%eax
  4050db:	00 
  4050dc:	66 85 c0             	test   %ax,%ax
  4050df:	74 3d                	je     40511e <yy_get_previous_state+0x94>
  4050e1:	8b 45 fc             	mov    -0x4(%rbp),%eax
  4050e4:	89 05 9a f4 00 00    	mov    %eax,0xf49a(%rip)        # 414584 <yy_last_accepting_state>
  4050ea:	48 8b 45 f0          	mov    -0x10(%rbp),%rax
  4050ee:	48 89 05 93 f4 00 00 	mov    %rax,0xf493(%rip)        # 414588 <yy_last_accepting_cpos>
  4050f5:	eb 27                	jmp    40511e <yy_get_previous_state+0x94>
  4050f7:	8b 45 fc             	mov    -0x4(%rbp),%eax
  4050fa:	48 98                	cltq   
  4050fc:	0f b7 84 00 80 da 40 	movzwl 0x40da80(%rax,%rax,1),%eax
  405103:	00 
  405104:	98                   	cwtl   
  405105:	89 45 fc             	mov    %eax,-0x4(%rbp)
  405108:	83 7d fc 78          	cmpl   $0x78,-0x4(%rbp)
  40510c:	7e 10                	jle    40511e <yy_get_previous_state+0x94>
  40510e:	0f b6 45 ef          	movzbl -0x11(%rbp),%eax
  405112:	48 98                	cltq   
  405114:	0f b6 80 40 d9 40 00 	movzbl 0x40d940(%rax),%eax
  40511b:	88 45 ef             	mov    %al,-0x11(%rbp)
  40511e:	8b 45 fc             	mov    -0x4(%rbp),%eax
  405121:	48 98                	cltq   
  405123:	0f b7 84 00 80 d9 40 	movzwl 0x40d980(%rax,%rax,1),%eax
  40512a:	00 
  40512b:	0f bf d0             	movswl %ax,%edx
  40512e:	0f b6 45 ef          	movzbl -0x11(%rbp),%eax
  405132:	01 d0                	add    %edx,%eax
  405134:	48 98                	cltq   
  405136:	0f b7 84 00 00 dd 40 	movzwl 0x40dd00(%rax,%rax,1),%eax
  40513d:	00 
  40513e:	98                   	cwtl   
  40513f:	39 45 fc             	cmp    %eax,-0x4(%rbp)
  405142:	75 b3                	jne    4050f7 <yy_get_previous_state+0x6d>
  405144:	8b 45 fc             	mov    -0x4(%rbp),%eax
  405147:	48 98                	cltq   
  405149:	0f b7 84 00 80 d9 40 	movzwl 0x40d980(%rax,%rax,1),%eax
  405150:	00 
  405151:	0f bf d0             	movswl %ax,%edx
  405154:	0f b6 45 ef          	movzbl -0x11(%rbp),%eax
  405158:	01 d0                	add    %edx,%eax
  40515a:	48 98                	cltq   
  40515c:	0f b7 84 00 80 db 40 	movzwl 0x40db80(%rax,%rax,1),%eax
  405163:	00 
  405164:	98                   	cwtl   
  405165:	89 45 fc             	mov    %eax,-0x4(%rbp)
  405168:	48 83 45 f0 01       	addq   $0x1,-0x10(%rbp)
  40516d:	48 8b 05 fc f3 00 00 	mov    0xf3fc(%rip),%rax        # 414570 <yy_c_buf_p>
  405174:	48 39 45 f0          	cmp    %rax,-0x10(%rbp)
  405178:	0f 82 29 ff ff ff    	jb     4050a7 <yy_get_previous_state+0x1d>
  40517e:	8b 45 fc             	mov    -0x4(%rbp),%eax
  405181:	5d                   	pop    %rbp
  405182:	c3                   	retq   

0000000000405183 <yy_try_NUL_trans>:
  405183:	55                   	push   %rbp
  405184:	48 89 e5             	mov    %rsp,%rbp
  405187:	89 7d dc             	mov    %edi,-0x24(%rbp)
  40518a:	48 8b 05 df f3 00 00 	mov    0xf3df(%rip),%rax        # 414570 <yy_c_buf_p>
  405191:	48 89 45 f0          	mov    %rax,-0x10(%rbp)
  405195:	c6 45 ff 01          	movb   $0x1,-0x1(%rbp)
  405199:	8b 45 dc             	mov    -0x24(%rbp),%eax
  40519c:	48 98                	cltq   
  40519e:	0f b7 84 00 40 d7 40 	movzwl 0x40d740(%rax,%rax,1),%eax
  4051a5:	00 
  4051a6:	66 85 c0             	test   %ax,%ax
  4051a9:	74 3d                	je     4051e8 <yy_try_NUL_trans+0x65>
  4051ab:	8b 45 dc             	mov    -0x24(%rbp),%eax
  4051ae:	89 05 d0 f3 00 00    	mov    %eax,0xf3d0(%rip)        # 414584 <yy_last_accepting_state>
  4051b4:	48 8b 45 f0          	mov    -0x10(%rbp),%rax
  4051b8:	48 89 05 c9 f3 00 00 	mov    %rax,0xf3c9(%rip)        # 414588 <yy_last_accepting_cpos>
  4051bf:	eb 27                	jmp    4051e8 <yy_try_NUL_trans+0x65>
  4051c1:	8b 45 dc             	mov    -0x24(%rbp),%eax
  4051c4:	48 98                	cltq   
  4051c6:	0f b7 84 00 80 da 40 	movzwl 0x40da80(%rax,%rax,1),%eax
  4051cd:	00 
  4051ce:	98                   	cwtl   
  4051cf:	89 45 dc             	mov    %eax,-0x24(%rbp)
  4051d2:	83 7d dc 78          	cmpl   $0x78,-0x24(%rbp)
  4051d6:	7e 10                	jle    4051e8 <yy_try_NUL_trans+0x65>
  4051d8:	0f b6 45 ff          	movzbl -0x1(%rbp),%eax
  4051dc:	48 98                	cltq   
  4051de:	0f b6 80 40 d9 40 00 	movzbl 0x40d940(%rax),%eax
  4051e5:	88 45 ff             	mov    %al,-0x1(%rbp)
  4051e8:	8b 45 dc             	mov    -0x24(%rbp),%eax
  4051eb:	48 98                	cltq   
  4051ed:	0f b7 84 00 80 d9 40 	movzwl 0x40d980(%rax,%rax,1),%eax
  4051f4:	00 
  4051f5:	0f bf d0             	movswl %ax,%edx
  4051f8:	0f b6 45 ff          	movzbl -0x1(%rbp),%eax
  4051fc:	01 d0                	add    %edx,%eax
  4051fe:	48 98                	cltq   
  405200:	0f b7 84 00 00 dd 40 	movzwl 0x40dd00(%rax,%rax,1),%eax
  405207:	00 
  405208:	98                   	cwtl   
  405209:	39 45 dc             	cmp    %eax,-0x24(%rbp)
  40520c:	75 b3                	jne    4051c1 <yy_try_NUL_trans+0x3e>
  40520e:	8b 45 dc             	mov    -0x24(%rbp),%eax
  405211:	48 98                	cltq   
  405213:	0f b7 84 00 80 d9 40 	movzwl 0x40d980(%rax,%rax,1),%eax
  40521a:	00 
  40521b:	0f bf d0             	movswl %ax,%edx
  40521e:	0f b6 45 ff          	movzbl -0x1(%rbp),%eax
  405222:	01 d0                	add    %edx,%eax
  405224:	48 98                	cltq   
  405226:	0f b7 84 00 80 db 40 	movzwl 0x40db80(%rax,%rax,1),%eax
  40522d:	00 
  40522e:	98                   	cwtl   
  40522f:	89 45 dc             	mov    %eax,-0x24(%rbp)
  405232:	83 7d dc 78          	cmpl   $0x78,-0x24(%rbp)
  405236:	0f 94 c0             	sete   %al
  405239:	0f b6 c0             	movzbl %al,%eax
  40523c:	89 45 ec             	mov    %eax,-0x14(%rbp)
  40523f:	83 7d ec 00          	cmpl   $0x0,-0x14(%rbp)
  405243:	75 05                	jne    40524a <yy_try_NUL_trans+0xc7>
  405245:	8b 45 dc             	mov    -0x24(%rbp),%eax
  405248:	eb 05                	jmp    40524f <yy_try_NUL_trans+0xcc>
  40524a:	b8 00 00 00 00       	mov    $0x0,%eax
  40524f:	5d                   	pop    %rbp
  405250:	c3                   	retq   

0000000000405251 <yyunput>:
  405251:	55                   	push   %rbp
  405252:	48 89 e5             	mov    %rsp,%rbp
  405255:	48 83 ec 30          	sub    $0x30,%rsp
  405259:	89 7d dc             	mov    %edi,-0x24(%rbp)
  40525c:	48 89 75 d0          	mov    %rsi,-0x30(%rbp)
  405260:	48 8b 05 09 f3 00 00 	mov    0xf309(%rip),%rax        # 414570 <yy_c_buf_p>
  405267:	48 89 45 f8          	mov    %rax,-0x8(%rbp)
  40526b:	0f b6 15 f6 f2 00 00 	movzbl 0xf2f6(%rip),%edx        # 414568 <yy_hold_char>
  405272:	48 8b 45 f8          	mov    -0x8(%rbp),%rax
  405276:	88 10                	mov    %dl,(%rax)
  405278:	48 8b 05 e1 f2 00 00 	mov    0xf2e1(%rip),%rax        # 414560 <yy_buffer_stack>
  40527f:	48 8b 15 ca f2 00 00 	mov    0xf2ca(%rip),%rdx        # 414550 <yy_buffer_stack_top>
  405286:	48 c1 e2 03          	shl    $0x3,%rdx
  40528a:	48 01 d0             	add    %rdx,%rax
  40528d:	48 8b 00             	mov    (%rax),%rax
  405290:	48 8b 40 08          	mov    0x8(%rax),%rax
  405294:	48 83 c0 02          	add    $0x2,%rax
  405298:	48 39 45 f8          	cmp    %rax,-0x8(%rbp)
  40529c:	0f 83 41 01 00 00    	jae    4053e3 <yyunput+0x192>
  4052a2:	8b 05 c4 f2 00 00    	mov    0xf2c4(%rip),%eax        # 41456c <yy_n_chars>
  4052a8:	83 c0 02             	add    $0x2,%eax
  4052ab:	89 45 e4             	mov    %eax,-0x1c(%rbp)
  4052ae:	48 8b 05 ab f2 00 00 	mov    0xf2ab(%rip),%rax        # 414560 <yy_buffer_stack>
  4052b5:	48 8b 15 94 f2 00 00 	mov    0xf294(%rip),%rdx        # 414550 <yy_buffer_stack_top>
  4052bc:	48 c1 e2 03          	shl    $0x3,%rdx
  4052c0:	48 01 d0             	add    %rdx,%rax
  4052c3:	48 8b 00             	mov    (%rax),%rax
  4052c6:	48 8b 50 08          	mov    0x8(%rax),%rdx
  4052ca:	48 8b 05 8f f2 00 00 	mov    0xf28f(%rip),%rax        # 414560 <yy_buffer_stack>
  4052d1:	48 8b 0d 78 f2 00 00 	mov    0xf278(%rip),%rcx        # 414550 <yy_buffer_stack_top>
  4052d8:	48 c1 e1 03          	shl    $0x3,%rcx
  4052dc:	48 01 c8             	add    %rcx,%rax
  4052df:	48 8b 00             	mov    (%rax),%rax
  4052e2:	8b 40 18             	mov    0x18(%rax),%eax
  4052e5:	48 98                	cltq   
  4052e7:	48 83 c0 02          	add    $0x2,%rax
  4052eb:	48 01 d0             	add    %rdx,%rax
  4052ee:	48 89 45 f0          	mov    %rax,-0x10(%rbp)
  4052f2:	48 8b 05 67 f2 00 00 	mov    0xf267(%rip),%rax        # 414560 <yy_buffer_stack>
  4052f9:	48 8b 15 50 f2 00 00 	mov    0xf250(%rip),%rdx        # 414550 <yy_buffer_stack_top>
  405300:	48 c1 e2 03          	shl    $0x3,%rdx
  405304:	48 01 d0             	add    %rdx,%rax
  405307:	48 8b 00             	mov    (%rax),%rax
  40530a:	48 8b 50 08          	mov    0x8(%rax),%rdx
  40530e:	8b 45 e4             	mov    -0x1c(%rbp),%eax
  405311:	48 98                	cltq   
  405313:	48 01 d0             	add    %rdx,%rax
  405316:	48 89 45 e8          	mov    %rax,-0x18(%rbp)
  40531a:	eb 17                	jmp    405333 <yyunput+0xe2>
  40531c:	48 83 6d e8 01       	subq   $0x1,-0x18(%rbp)
  405321:	48 83 6d f0 01       	subq   $0x1,-0x10(%rbp)
  405326:	48 8b 45 e8          	mov    -0x18(%rbp),%rax
  40532a:	0f b6 10             	movzbl (%rax),%edx
  40532d:	48 8b 45 f0          	mov    -0x10(%rbp),%rax
  405331:	88 10                	mov    %dl,(%rax)
  405333:	48 8b 05 26 f2 00 00 	mov    0xf226(%rip),%rax        # 414560 <yy_buffer_stack>
  40533a:	48 8b 15 0f f2 00 00 	mov    0xf20f(%rip),%rdx        # 414550 <yy_buffer_stack_top>
  405341:	48 c1 e2 03          	shl    $0x3,%rdx
  405345:	48 01 d0             	add    %rdx,%rax
  405348:	48 8b 00             	mov    (%rax),%rax
  40534b:	48 8b 40 08          	mov    0x8(%rax),%rax
  40534f:	48 39 45 e8          	cmp    %rax,-0x18(%rbp)
  405353:	77 c7                	ja     40531c <yyunput+0xcb>
  405355:	48 8b 45 f0          	mov    -0x10(%rbp),%rax
  405359:	48 2b 45 e8          	sub    -0x18(%rbp),%rax
  40535d:	48 98                	cltq   
  40535f:	48 01 45 f8          	add    %rax,-0x8(%rbp)
  405363:	48 8b 45 f0          	mov    -0x10(%rbp),%rax
  405367:	48 2b 45 e8          	sub    -0x18(%rbp),%rax
  40536b:	48 98                	cltq   
  40536d:	48 01 45 d0          	add    %rax,-0x30(%rbp)
  405371:	48 8b 05 e8 f1 00 00 	mov    0xf1e8(%rip),%rax        # 414560 <yy_buffer_stack>
  405378:	48 8b 15 d1 f1 00 00 	mov    0xf1d1(%rip),%rdx        # 414550 <yy_buffer_stack_top>
  40537f:	48 c1 e2 03          	shl    $0x3,%rdx
  405383:	48 01 d0             	add    %rdx,%rax
  405386:	48 8b 00             	mov    (%rax),%rax
  405389:	8b 40 18             	mov    0x18(%rax),%eax
  40538c:	89 05 da f1 00 00    	mov    %eax,0xf1da(%rip)        # 41456c <yy_n_chars>
  405392:	48 8b 05 c7 f1 00 00 	mov    0xf1c7(%rip),%rax        # 414560 <yy_buffer_stack>
  405399:	48 8b 15 b0 f1 00 00 	mov    0xf1b0(%rip),%rdx        # 414550 <yy_buffer_stack_top>
  4053a0:	48 c1 e2 03          	shl    $0x3,%rdx
  4053a4:	48 01 d0             	add    %rdx,%rax
  4053a7:	48 8b 00             	mov    (%rax),%rax
  4053aa:	8b 15 bc f1 00 00    	mov    0xf1bc(%rip),%edx        # 41456c <yy_n_chars>
  4053b0:	89 50 1c             	mov    %edx,0x1c(%rax)
  4053b3:	48 8b 05 a6 f1 00 00 	mov    0xf1a6(%rip),%rax        # 414560 <yy_buffer_stack>
  4053ba:	48 8b 15 8f f1 00 00 	mov    0xf18f(%rip),%rdx        # 414550 <yy_buffer_stack_top>
  4053c1:	48 c1 e2 03          	shl    $0x3,%rdx
  4053c5:	48 01 d0             	add    %rdx,%rax
  4053c8:	48 8b 00             	mov    (%rax),%rax
  4053cb:	48 8b 40 08          	mov    0x8(%rax),%rax
  4053cf:	48 83 c0 02          	add    $0x2,%rax
  4053d3:	48 39 45 f8          	cmp    %rax,-0x8(%rbp)
  4053d7:	73 0a                	jae    4053e3 <yyunput+0x192>
  4053d9:	bf a0 e2 40 00       	mov    $0x40e2a0,%edi
  4053de:	e8 29 0b 00 00       	callq  405f0c <yy_fatal_error>
  4053e3:	48 83 6d f8 01       	subq   $0x1,-0x8(%rbp)
  4053e8:	8b 45 dc             	mov    -0x24(%rbp),%eax
  4053eb:	89 c2                	mov    %eax,%edx
  4053ed:	48 8b 45 f8          	mov    -0x8(%rbp),%rax
  4053f1:	88 10                	mov    %dl,(%rax)
  4053f3:	48 8b 45 d0          	mov    -0x30(%rbp),%rax
  4053f7:	48 89 05 ea f5 00 00 	mov    %rax,0xf5ea(%rip)        # 4149e8 <yytext>
  4053fe:	48 8b 45 f8          	mov    -0x8(%rbp),%rax
  405402:	0f b6 00             	movzbl (%rax),%eax
  405405:	88 05 5d f1 00 00    	mov    %al,0xf15d(%rip)        # 414568 <yy_hold_char>
  40540b:	48 8b 45 f8          	mov    -0x8(%rbp),%rax
  40540f:	48 89 05 5a f1 00 00 	mov    %rax,0xf15a(%rip)        # 414570 <yy_c_buf_p>
  405416:	90                   	nop
  405417:	c9                   	leaveq 
  405418:	c3                   	retq   

0000000000405419 <input>:
  405419:	55                   	push   %rbp
  40541a:	48 89 e5             	mov    %rsp,%rbp
  40541d:	48 83 ec 10          	sub    $0x10,%rsp
  405421:	48 8b 05 48 f1 00 00 	mov    0xf148(%rip),%rax        # 414570 <yy_c_buf_p>
  405428:	0f b6 15 39 f1 00 00 	movzbl 0xf139(%rip),%edx        # 414568 <yy_hold_char>
  40542f:	88 10                	mov    %dl,(%rax)
  405431:	48 8b 05 38 f1 00 00 	mov    0xf138(%rip),%rax        # 414570 <yy_c_buf_p>
  405438:	0f b6 00             	movzbl (%rax),%eax
  40543b:	84 c0                	test   %al,%al
  40543d:	0f 85 d7 00 00 00    	jne    40551a <input+0x101>
  405443:	48 8b 05 16 f1 00 00 	mov    0xf116(%rip),%rax        # 414560 <yy_buffer_stack>
  40544a:	48 8b 15 ff f0 00 00 	mov    0xf0ff(%rip),%rdx        # 414550 <yy_buffer_stack_top>
  405451:	48 c1 e2 03          	shl    $0x3,%rdx
  405455:	48 01 d0             	add    %rdx,%rax
  405458:	48 8b 00             	mov    (%rax),%rax
  40545b:	48 8b 50 08          	mov    0x8(%rax),%rdx
  40545f:	8b 05 07 f1 00 00    	mov    0xf107(%rip),%eax        # 41456c <yy_n_chars>
  405465:	48 98                	cltq   
  405467:	48 01 c2             	add    %rax,%rdx
  40546a:	48 8b 05 ff f0 00 00 	mov    0xf0ff(%rip),%rax        # 414570 <yy_c_buf_p>
  405471:	48 39 c2             	cmp    %rax,%rdx
  405474:	76 0f                	jbe    405485 <input+0x6c>
  405476:	48 8b 05 f3 f0 00 00 	mov    0xf0f3(%rip),%rax        # 414570 <yy_c_buf_p>
  40547d:	c6 00 00             	movb   $0x0,(%rax)
  405480:	e9 96 00 00 00       	jmpq   40551b <input+0x102>
  405485:	48 8b 15 e4 f0 00 00 	mov    0xf0e4(%rip),%rdx        # 414570 <yy_c_buf_p>
  40548c:	48 8b 05 55 f5 00 00 	mov    0xf555(%rip),%rax        # 4149e8 <yytext>
  405493:	48 29 c2             	sub    %rax,%rdx
  405496:	48 89 d0             	mov    %rdx,%rax
  405499:	89 45 fc             	mov    %eax,-0x4(%rbp)
  40549c:	48 8b 05 cd f0 00 00 	mov    0xf0cd(%rip),%rax        # 414570 <yy_c_buf_p>
  4054a3:	48 83 c0 01          	add    $0x1,%rax
  4054a7:	48 89 05 c2 f0 00 00 	mov    %rax,0xf0c2(%rip)        # 414570 <yy_c_buf_p>
  4054ae:	e8 94 f5 ff ff       	callq  404a47 <yy_get_next_buffer>
  4054b3:	83 f8 01             	cmp    $0x1,%eax
  4054b6:	74 1a                	je     4054d2 <input+0xb9>
  4054b8:	83 f8 02             	cmp    $0x2,%eax
  4054bb:	74 06                	je     4054c3 <input+0xaa>
  4054bd:	85 c0                	test   %eax,%eax
  4054bf:	74 41                	je     405502 <input+0xe9>
  4054c1:	eb 58                	jmp    40551b <input+0x102>
  4054c3:	48 8b 05 6e f0 00 00 	mov    0xf06e(%rip),%rax        # 414538 <yyin>
  4054ca:	48 89 c7             	mov    %rax,%rdi
  4054cd:	e8 8a 00 00 00       	callq  40555c <yyrestart>
  4054d2:	e8 69 0c 00 00       	callq  406140 <yywrap>
  4054d7:	85 c0                	test   %eax,%eax
  4054d9:	74 07                	je     4054e2 <input+0xc9>
  4054db:	b8 00 00 00 00       	mov    $0x0,%eax
  4054e0:	eb 78                	jmp    40555a <input+0x141>
  4054e2:	8b 05 98 f0 00 00    	mov    0xf098(%rip),%eax        # 414580 <yy_did_buffer_switch_on_eof>
  4054e8:	85 c0                	test   %eax,%eax
  4054ea:	75 0f                	jne    4054fb <input+0xe2>
  4054ec:	48 8b 05 45 f0 00 00 	mov    0xf045(%rip),%rax        # 414538 <yyin>
  4054f3:	48 89 c7             	mov    %rax,%rdi
  4054f6:	e8 61 00 00 00       	callq  40555c <yyrestart>
  4054fb:	e8 19 ff ff ff       	callq  405419 <input>
  405500:	eb 58                	jmp    40555a <input+0x141>
  405502:	48 8b 15 df f4 00 00 	mov    0xf4df(%rip),%rdx        # 4149e8 <yytext>
  405509:	8b 45 fc             	mov    -0x4(%rbp),%eax
  40550c:	48 98                	cltq   
  40550e:	48 01 d0             	add    %rdx,%rax
  405511:	48 89 05 58 f0 00 00 	mov    %rax,0xf058(%rip)        # 414570 <yy_c_buf_p>
  405518:	eb 01                	jmp    40551b <input+0x102>
  40551a:	90                   	nop
  40551b:	48 8b 05 4e f0 00 00 	mov    0xf04e(%rip),%rax        # 414570 <yy_c_buf_p>
  405522:	0f b6 00             	movzbl (%rax),%eax
  405525:	0f b6 c0             	movzbl %al,%eax
  405528:	89 45 f8             	mov    %eax,-0x8(%rbp)
  40552b:	48 8b 05 3e f0 00 00 	mov    0xf03e(%rip),%rax        # 414570 <yy_c_buf_p>
  405532:	c6 00 00             	movb   $0x0,(%rax)
  405535:	48 8b 05 34 f0 00 00 	mov    0xf034(%rip),%rax        # 414570 <yy_c_buf_p>
  40553c:	48 83 c0 01          	add    $0x1,%rax
  405540:	48 89 05 29 f0 00 00 	mov    %rax,0xf029(%rip)        # 414570 <yy_c_buf_p>
  405547:	48 8b 05 22 f0 00 00 	mov    0xf022(%rip),%rax        # 414570 <yy_c_buf_p>
  40554e:	0f b6 00             	movzbl (%rax),%eax
  405551:	88 05 11 f0 00 00    	mov    %al,0xf011(%rip)        # 414568 <yy_hold_char>
  405557:	8b 45 f8             	mov    -0x8(%rbp),%eax
  40555a:	c9                   	leaveq 
  40555b:	c3                   	retq   

000000000040555c <yyrestart>:
  40555c:	55                   	push   %rbp
  40555d:	48 89 e5             	mov    %rsp,%rbp
  405560:	53                   	push   %rbx
  405561:	48 83 ec 18          	sub    $0x18,%rsp
  405565:	48 89 7d e8          	mov    %rdi,-0x18(%rbp)
  405569:	48 8b 05 f0 ef 00 00 	mov    0xeff0(%rip),%rax        # 414560 <yy_buffer_stack>
  405570:	48 85 c0             	test   %rax,%rax
  405573:	74 1d                	je     405592 <yyrestart+0x36>
  405575:	48 8b 05 e4 ef 00 00 	mov    0xefe4(%rip),%rax        # 414560 <yy_buffer_stack>
  40557c:	48 8b 15 cd ef 00 00 	mov    0xefcd(%rip),%rdx        # 414550 <yy_buffer_stack_top>
  405583:	48 c1 e2 03          	shl    $0x3,%rdx
  405587:	48 01 d0             	add    %rdx,%rax
  40558a:	48 8b 00             	mov    (%rax),%rax
  40558d:	48 85 c0             	test   %rax,%rax
  405590:	75 32                	jne    4055c4 <yyrestart+0x68>
  405592:	e8 54 06 00 00       	callq  405beb <yyensure_buffer_stack>
  405597:	48 8b 05 9a ef 00 00 	mov    0xef9a(%rip),%rax        # 414538 <yyin>
  40559e:	48 8b 15 bb ef 00 00 	mov    0xefbb(%rip),%rdx        # 414560 <yy_buffer_stack>
  4055a5:	48 8b 0d a4 ef 00 00 	mov    0xefa4(%rip),%rcx        # 414550 <yy_buffer_stack_top>
  4055ac:	48 c1 e1 03          	shl    $0x3,%rcx
  4055b0:	48 8d 1c 0a          	lea    (%rdx,%rcx,1),%rbx
  4055b4:	be 00 40 00 00       	mov    $0x4000,%esi
  4055b9:	48 89 c7             	mov    %rax,%rdi
  4055bc:	e8 c8 01 00 00       	callq  405789 <yy_create_buffer>
  4055c1:	48 89 03             	mov    %rax,(%rbx)
  4055c4:	48 8b 05 95 ef 00 00 	mov    0xef95(%rip),%rax        # 414560 <yy_buffer_stack>
  4055cb:	48 85 c0             	test   %rax,%rax
  4055ce:	74 1a                	je     4055ea <yyrestart+0x8e>
  4055d0:	48 8b 05 89 ef 00 00 	mov    0xef89(%rip),%rax        # 414560 <yy_buffer_stack>
  4055d7:	48 8b 15 72 ef 00 00 	mov    0xef72(%rip),%rdx        # 414550 <yy_buffer_stack_top>
  4055de:	48 c1 e2 03          	shl    $0x3,%rdx
  4055e2:	48 01 d0             	add    %rdx,%rax
  4055e5:	48 8b 00             	mov    (%rax),%rax
  4055e8:	eb 05                	jmp    4055ef <yyrestart+0x93>
  4055ea:	b8 00 00 00 00       	mov    $0x0,%eax
  4055ef:	48 8b 55 e8          	mov    -0x18(%rbp),%rdx
  4055f3:	48 89 d6             	mov    %rdx,%rsi
  4055f6:	48 89 c7             	mov    %rax,%rdi
  4055f9:	e8 a9 02 00 00       	callq  4058a7 <yy_init_buffer>
  4055fe:	e8 fb 00 00 00       	callq  4056fe <yy_load_buffer_state>
  405603:	90                   	nop
  405604:	48 83 c4 18          	add    $0x18,%rsp
  405608:	5b                   	pop    %rbx
  405609:	5d                   	pop    %rbp
  40560a:	c3                   	retq   

000000000040560b <yy_switch_to_buffer>:
  40560b:	55                   	push   %rbp
  40560c:	48 89 e5             	mov    %rsp,%rbp
  40560f:	48 83 ec 10          	sub    $0x10,%rsp
  405613:	48 89 7d f8          	mov    %rdi,-0x8(%rbp)
  405617:	e8 cf 05 00 00       	callq  405beb <yyensure_buffer_stack>
  40561c:	48 8b 05 3d ef 00 00 	mov    0xef3d(%rip),%rax        # 414560 <yy_buffer_stack>
  405623:	48 85 c0             	test   %rax,%rax
  405626:	74 1a                	je     405642 <yy_switch_to_buffer+0x37>
  405628:	48 8b 05 31 ef 00 00 	mov    0xef31(%rip),%rax        # 414560 <yy_buffer_stack>
  40562f:	48 8b 15 1a ef 00 00 	mov    0xef1a(%rip),%rdx        # 414550 <yy_buffer_stack_top>
  405636:	48 c1 e2 03          	shl    $0x3,%rdx
  40563a:	48 01 d0             	add    %rdx,%rax
  40563d:	48 8b 00             	mov    (%rax),%rax
  405640:	eb 05                	jmp    405647 <yy_switch_to_buffer+0x3c>
  405642:	b8 00 00 00 00       	mov    $0x0,%eax
  405647:	48 3b 45 f8          	cmp    -0x8(%rbp),%rax
  40564b:	0f 84 aa 00 00 00    	je     4056fb <yy_switch_to_buffer+0xf0>
  405651:	48 8b 05 08 ef 00 00 	mov    0xef08(%rip),%rax        # 414560 <yy_buffer_stack>
  405658:	48 85 c0             	test   %rax,%rax
  40565b:	74 71                	je     4056ce <yy_switch_to_buffer+0xc3>
  40565d:	48 8b 05 fc ee 00 00 	mov    0xeefc(%rip),%rax        # 414560 <yy_buffer_stack>
  405664:	48 8b 15 e5 ee 00 00 	mov    0xeee5(%rip),%rdx        # 414550 <yy_buffer_stack_top>
  40566b:	48 c1 e2 03          	shl    $0x3,%rdx
  40566f:	48 01 d0             	add    %rdx,%rax
  405672:	48 8b 00             	mov    (%rax),%rax
  405675:	48 85 c0             	test   %rax,%rax
  405678:	74 54                	je     4056ce <yy_switch_to_buffer+0xc3>
  40567a:	48 8b 05 ef ee 00 00 	mov    0xeeef(%rip),%rax        # 414570 <yy_c_buf_p>
  405681:	0f b6 15 e0 ee 00 00 	movzbl 0xeee0(%rip),%edx        # 414568 <yy_hold_char>
  405688:	88 10                	mov    %dl,(%rax)
  40568a:	48 8b 05 cf ee 00 00 	mov    0xeecf(%rip),%rax        # 414560 <yy_buffer_stack>
  405691:	48 8b 15 b8 ee 00 00 	mov    0xeeb8(%rip),%rdx        # 414550 <yy_buffer_stack_top>
  405698:	48 c1 e2 03          	shl    $0x3,%rdx
  40569c:	48 01 d0             	add    %rdx,%rax
  40569f:	48 8b 00             	mov    (%rax),%rax
  4056a2:	48 8b 15 c7 ee 00 00 	mov    0xeec7(%rip),%rdx        # 414570 <yy_c_buf_p>
  4056a9:	48 89 50 10          	mov    %rdx,0x10(%rax)
  4056ad:	48 8b 05 ac ee 00 00 	mov    0xeeac(%rip),%rax        # 414560 <yy_buffer_stack>
  4056b4:	48 8b 15 95 ee 00 00 	mov    0xee95(%rip),%rdx        # 414550 <yy_buffer_stack_top>
  4056bb:	48 c1 e2 03          	shl    $0x3,%rdx
  4056bf:	48 01 d0             	add    %rdx,%rax
  4056c2:	48 8b 00             	mov    (%rax),%rax
  4056c5:	8b 15 a1 ee 00 00    	mov    0xeea1(%rip),%edx        # 41456c <yy_n_chars>
  4056cb:	89 50 1c             	mov    %edx,0x1c(%rax)
  4056ce:	48 8b 05 8b ee 00 00 	mov    0xee8b(%rip),%rax        # 414560 <yy_buffer_stack>
  4056d5:	48 8b 15 74 ee 00 00 	mov    0xee74(%rip),%rdx        # 414550 <yy_buffer_stack_top>
  4056dc:	48 c1 e2 03          	shl    $0x3,%rdx
  4056e0:	48 01 c2             	add    %rax,%rdx
  4056e3:	48 8b 45 f8          	mov    -0x8(%rbp),%rax
  4056e7:	48 89 02             	mov    %rax,(%rdx)
  4056ea:	e8 0f 00 00 00       	callq  4056fe <yy_load_buffer_state>
  4056ef:	c7 05 87 ee 00 00 01 	movl   $0x1,0xee87(%rip)        # 414580 <yy_did_buffer_switch_on_eof>
  4056f6:	00 00 00 
  4056f9:	eb 01                	jmp    4056fc <yy_switch_to_buffer+0xf1>
  4056fb:	90                   	nop
  4056fc:	c9                   	leaveq 
  4056fd:	c3                   	retq   

00000000004056fe <yy_load_buffer_state>:
  4056fe:	55                   	push   %rbp
  4056ff:	48 89 e5             	mov    %rsp,%rbp
  405702:	48 8b 05 57 ee 00 00 	mov    0xee57(%rip),%rax        # 414560 <yy_buffer_stack>
  405709:	48 8b 15 40 ee 00 00 	mov    0xee40(%rip),%rdx        # 414550 <yy_buffer_stack_top>
  405710:	48 c1 e2 03          	shl    $0x3,%rdx
  405714:	48 01 d0             	add    %rdx,%rax
  405717:	48 8b 00             	mov    (%rax),%rax
  40571a:	8b 40 1c             	mov    0x1c(%rax),%eax
  40571d:	89 05 49 ee 00 00    	mov    %eax,0xee49(%rip)        # 41456c <yy_n_chars>
  405723:	48 8b 05 36 ee 00 00 	mov    0xee36(%rip),%rax        # 414560 <yy_buffer_stack>
  40572a:	48 8b 15 1f ee 00 00 	mov    0xee1f(%rip),%rdx        # 414550 <yy_buffer_stack_top>
  405731:	48 c1 e2 03          	shl    $0x3,%rdx
  405735:	48 01 d0             	add    %rdx,%rax
  405738:	48 8b 00             	mov    (%rax),%rax
  40573b:	48 8b 40 10          	mov    0x10(%rax),%rax
  40573f:	48 89 05 2a ee 00 00 	mov    %rax,0xee2a(%rip)        # 414570 <yy_c_buf_p>
  405746:	48 8b 05 23 ee 00 00 	mov    0xee23(%rip),%rax        # 414570 <yy_c_buf_p>
  40574d:	48 89 05 94 f2 00 00 	mov    %rax,0xf294(%rip)        # 4149e8 <yytext>
  405754:	48 8b 05 05 ee 00 00 	mov    0xee05(%rip),%rax        # 414560 <yy_buffer_stack>
  40575b:	48 8b 15 ee ed 00 00 	mov    0xedee(%rip),%rdx        # 414550 <yy_buffer_stack_top>
  405762:	48 c1 e2 03          	shl    $0x3,%rdx
  405766:	48 01 d0             	add    %rdx,%rax
  405769:	48 8b 00             	mov    (%rax),%rax
  40576c:	48 8b 00             	mov    (%rax),%rax
  40576f:	48 89 05 c2 ed 00 00 	mov    %rax,0xedc2(%rip)        # 414538 <yyin>
  405776:	48 8b 05 f3 ed 00 00 	mov    0xedf3(%rip),%rax        # 414570 <yy_c_buf_p>
  40577d:	0f b6 00             	movzbl (%rax),%eax
  405780:	88 05 e2 ed 00 00    	mov    %al,0xede2(%rip)        # 414568 <yy_hold_char>
  405786:	90                   	nop
  405787:	5d                   	pop    %rbp
  405788:	c3                   	retq   

0000000000405789 <yy_create_buffer>:
  405789:	55                   	push   %rbp
  40578a:	48 89 e5             	mov    %rsp,%rbp
  40578d:	48 83 ec 20          	sub    $0x20,%rsp
  405791:	48 89 7d e8          	mov    %rdi,-0x18(%rbp)
  405795:	89 75 e4             	mov    %esi,-0x1c(%rbp)
  405798:	bf 40 00 00 00       	mov    $0x40,%edi
  40579d:	e8 44 09 00 00       	callq  4060e6 <yyalloc>
  4057a2:	48 89 45 f8          	mov    %rax,-0x8(%rbp)
  4057a6:	48 83 7d f8 00       	cmpq   $0x0,-0x8(%rbp)
  4057ab:	75 0a                	jne    4057b7 <yy_create_buffer+0x2e>
  4057ad:	bf c0 e2 40 00       	mov    $0x40e2c0,%edi
  4057b2:	e8 55 07 00 00       	callq  405f0c <yy_fatal_error>
  4057b7:	48 8b 45 f8          	mov    -0x8(%rbp),%rax
  4057bb:	8b 55 e4             	mov    -0x1c(%rbp),%edx
  4057be:	89 50 18             	mov    %edx,0x18(%rax)
  4057c1:	48 8b 45 f8          	mov    -0x8(%rbp),%rax
  4057c5:	8b 40 18             	mov    0x18(%rax),%eax
  4057c8:	83 c0 02             	add    $0x2,%eax
  4057cb:	48 98                	cltq   
  4057cd:	48 89 c7             	mov    %rax,%rdi
  4057d0:	e8 11 09 00 00       	callq  4060e6 <yyalloc>
  4057d5:	48 89 c2             	mov    %rax,%rdx
  4057d8:	48 8b 45 f8          	mov    -0x8(%rbp),%rax
  4057dc:	48 89 50 08          	mov    %rdx,0x8(%rax)
  4057e0:	48 8b 45 f8          	mov    -0x8(%rbp),%rax
  4057e4:	48 8b 40 08          	mov    0x8(%rax),%rax
  4057e8:	48 85 c0             	test   %rax,%rax
  4057eb:	75 0a                	jne    4057f7 <yy_create_buffer+0x6e>
  4057ed:	bf c0 e2 40 00       	mov    $0x40e2c0,%edi
  4057f2:	e8 15 07 00 00       	callq  405f0c <yy_fatal_error>
  4057f7:	48 8b 45 f8          	mov    -0x8(%rbp),%rax
  4057fb:	c7 40 20 01 00 00 00 	movl   $0x1,0x20(%rax)
  405802:	48 8b 55 e8          	mov    -0x18(%rbp),%rdx
  405806:	48 8b 45 f8          	mov    -0x8(%rbp),%rax
  40580a:	48 89 d6             	mov    %rdx,%rsi
  40580d:	48 89 c7             	mov    %rax,%rdi
  405810:	e8 92 00 00 00       	callq  4058a7 <yy_init_buffer>
  405815:	48 8b 45 f8          	mov    -0x8(%rbp),%rax
  405819:	c9                   	leaveq 
  40581a:	c3                   	retq   

000000000040581b <yy_delete_buffer>:
  40581b:	55                   	push   %rbp
  40581c:	48 89 e5             	mov    %rsp,%rbp
  40581f:	48 83 ec 10          	sub    $0x10,%rsp
  405823:	48 89 7d f8          	mov    %rdi,-0x8(%rbp)
  405827:	48 83 7d f8 00       	cmpq   $0x0,-0x8(%rbp)
  40582c:	74 76                	je     4058a4 <yy_delete_buffer+0x89>
  40582e:	48 8b 05 2b ed 00 00 	mov    0xed2b(%rip),%rax        # 414560 <yy_buffer_stack>
  405835:	48 85 c0             	test   %rax,%rax
  405838:	74 1a                	je     405854 <yy_delete_buffer+0x39>
  40583a:	48 8b 05 1f ed 00 00 	mov    0xed1f(%rip),%rax        # 414560 <yy_buffer_stack>
  405841:	48 8b 15 08 ed 00 00 	mov    0xed08(%rip),%rdx        # 414550 <yy_buffer_stack_top>
  405848:	48 c1 e2 03          	shl    $0x3,%rdx
  40584c:	48 01 d0             	add    %rdx,%rax
  40584f:	48 8b 00             	mov    (%rax),%rax
  405852:	eb 05                	jmp    405859 <yy_delete_buffer+0x3e>
  405854:	b8 00 00 00 00       	mov    $0x0,%eax
  405859:	48 3b 45 f8          	cmp    -0x8(%rbp),%rax
  40585d:	75 1c                	jne    40587b <yy_delete_buffer+0x60>
  40585f:	48 8b 05 fa ec 00 00 	mov    0xecfa(%rip),%rax        # 414560 <yy_buffer_stack>
  405866:	48 8b 15 e3 ec 00 00 	mov    0xece3(%rip),%rdx        # 414550 <yy_buffer_stack_top>
  40586d:	48 c1 e2 03          	shl    $0x3,%rdx
  405871:	48 01 d0             	add    %rdx,%rax
  405874:	48 c7 00 00 00 00 00 	movq   $0x0,(%rax)
  40587b:	48 8b 45 f8          	mov    -0x8(%rbp),%rax
  40587f:	8b 40 20             	mov    0x20(%rax),%eax
  405882:	85 c0                	test   %eax,%eax
  405884:	74 10                	je     405896 <yy_delete_buffer+0x7b>
  405886:	48 8b 45 f8          	mov    -0x8(%rbp),%rax
  40588a:	48 8b 40 08          	mov    0x8(%rax),%rax
  40588e:	48 89 c7             	mov    %rax,%rdi
  405891:	e8 8f 08 00 00       	callq  406125 <yyfree>
  405896:	48 8b 45 f8          	mov    -0x8(%rbp),%rax
  40589a:	48 89 c7             	mov    %rax,%rdi
  40589d:	e8 83 08 00 00       	callq  406125 <yyfree>
  4058a2:	eb 01                	jmp    4058a5 <yy_delete_buffer+0x8a>
  4058a4:	90                   	nop
  4058a5:	c9                   	leaveq 
  4058a6:	c3                   	retq   

00000000004058a7 <yy_init_buffer>:
  4058a7:	55                   	push   %rbp
  4058a8:	48 89 e5             	mov    %rsp,%rbp
  4058ab:	48 83 ec 20          	sub    $0x20,%rsp
  4058af:	48 89 7d e8          	mov    %rdi,-0x18(%rbp)
  4058b3:	48 89 75 e0          	mov    %rsi,-0x20(%rbp)
  4058b7:	e8 a4 d7 ff ff       	callq  403060 <__errno_location@plt>
  4058bc:	8b 00                	mov    (%rax),%eax
  4058be:	89 45 fc             	mov    %eax,-0x4(%rbp)
  4058c1:	48 8b 45 e8          	mov    -0x18(%rbp),%rax
  4058c5:	48 89 c7             	mov    %rax,%rdi
  4058c8:	e8 9e 00 00 00       	callq  40596b <yy_flush_buffer>
  4058cd:	48 8b 45 e8          	mov    -0x18(%rbp),%rax
  4058d1:	48 8b 55 e0          	mov    -0x20(%rbp),%rdx
  4058d5:	48 89 10             	mov    %rdx,(%rax)
  4058d8:	48 8b 45 e8          	mov    -0x18(%rbp),%rax
  4058dc:	c7 40 34 01 00 00 00 	movl   $0x1,0x34(%rax)
  4058e3:	48 8b 05 76 ec 00 00 	mov    0xec76(%rip),%rax        # 414560 <yy_buffer_stack>
  4058ea:	48 85 c0             	test   %rax,%rax
  4058ed:	74 1a                	je     405909 <yy_init_buffer+0x62>
  4058ef:	48 8b 05 6a ec 00 00 	mov    0xec6a(%rip),%rax        # 414560 <yy_buffer_stack>
  4058f6:	48 8b 15 53 ec 00 00 	mov    0xec53(%rip),%rdx        # 414550 <yy_buffer_stack_top>
  4058fd:	48 c1 e2 03          	shl    $0x3,%rdx
  405901:	48 01 d0             	add    %rdx,%rax
  405904:	48 8b 00             	mov    (%rax),%rax
  405907:	eb 05                	jmp    40590e <yy_init_buffer+0x67>
  405909:	b8 00 00 00 00       	mov    $0x0,%eax
  40590e:	48 3b 45 e8          	cmp    -0x18(%rbp),%rax
  405912:	74 16                	je     40592a <yy_init_buffer+0x83>
  405914:	48 8b 45 e8          	mov    -0x18(%rbp),%rax
  405918:	c7 40 2c 01 00 00 00 	movl   $0x1,0x2c(%rax)
  40591f:	48 8b 45 e8          	mov    -0x18(%rbp),%rax
  405923:	c7 40 30 00 00 00 00 	movl   $0x0,0x30(%rax)
  40592a:	48 83 7d e0 00       	cmpq   $0x0,-0x20(%rbp)
  40592f:	74 1e                	je     40594f <yy_init_buffer+0xa8>
  405931:	48 8b 45 e0          	mov    -0x20(%rbp),%rax
  405935:	48 89 c7             	mov    %rax,%rdi
  405938:	e8 83 d9 ff ff       	callq  4032c0 <fileno@plt>
  40593d:	89 c7                	mov    %eax,%edi
  40593f:	e8 1c db ff ff       	callq  403460 <isatty@plt>
  405944:	85 c0                	test   %eax,%eax
  405946:	7e 07                	jle    40594f <yy_init_buffer+0xa8>
  405948:	ba 01 00 00 00       	mov    $0x1,%edx
  40594d:	eb 05                	jmp    405954 <yy_init_buffer+0xad>
  40594f:	ba 00 00 00 00       	mov    $0x0,%edx
  405954:	48 8b 45 e8          	mov    -0x18(%rbp),%rax
  405958:	89 50 24             	mov    %edx,0x24(%rax)
  40595b:	e8 00 d7 ff ff       	callq  403060 <__errno_location@plt>
  405960:	48 89 c2             	mov    %rax,%rdx
  405963:	8b 45 fc             	mov    -0x4(%rbp),%eax
  405966:	89 02                	mov    %eax,(%rdx)
  405968:	90                   	nop
  405969:	c9                   	leaveq 
  40596a:	c3                   	retq   

000000000040596b <yy_flush_buffer>:
  40596b:	55                   	push   %rbp
  40596c:	48 89 e5             	mov    %rsp,%rbp
  40596f:	48 83 ec 08          	sub    $0x8,%rsp
  405973:	48 89 7d f8          	mov    %rdi,-0x8(%rbp)
  405977:	48 83 7d f8 00       	cmpq   $0x0,-0x8(%rbp)
  40597c:	0f 84 83 00 00 00    	je     405a05 <yy_flush_buffer+0x9a>
  405982:	48 8b 45 f8          	mov    -0x8(%rbp),%rax
  405986:	c7 40 1c 00 00 00 00 	movl   $0x0,0x1c(%rax)
  40598d:	48 8b 45 f8          	mov    -0x8(%rbp),%rax
  405991:	48 8b 40 08          	mov    0x8(%rax),%rax
  405995:	c6 00 00             	movb   $0x0,(%rax)
  405998:	48 8b 45 f8          	mov    -0x8(%rbp),%rax
  40599c:	48 8b 40 08          	mov    0x8(%rax),%rax
  4059a0:	48 83 c0 01          	add    $0x1,%rax
  4059a4:	c6 00 00             	movb   $0x0,(%rax)
  4059a7:	48 8b 45 f8          	mov    -0x8(%rbp),%rax
  4059ab:	48 8b 50 08          	mov    0x8(%rax),%rdx
  4059af:	48 8b 45 f8          	mov    -0x8(%rbp),%rax
  4059b3:	48 89 50 10          	mov    %rdx,0x10(%rax)
  4059b7:	48 8b 45 f8          	mov    -0x8(%rbp),%rax
  4059bb:	c7 40 28 01 00 00 00 	movl   $0x1,0x28(%rax)
  4059c2:	48 8b 45 f8          	mov    -0x8(%rbp),%rax
  4059c6:	c7 40 38 00 00 00 00 	movl   $0x0,0x38(%rax)
  4059cd:	48 8b 05 8c eb 00 00 	mov    0xeb8c(%rip),%rax        # 414560 <yy_buffer_stack>
  4059d4:	48 85 c0             	test   %rax,%rax
  4059d7:	74 1a                	je     4059f3 <yy_flush_buffer+0x88>
  4059d9:	48 8b 05 80 eb 00 00 	mov    0xeb80(%rip),%rax        # 414560 <yy_buffer_stack>
  4059e0:	48 8b 15 69 eb 00 00 	mov    0xeb69(%rip),%rdx        # 414550 <yy_buffer_stack_top>
  4059e7:	48 c1 e2 03          	shl    $0x3,%rdx
  4059eb:	48 01 d0             	add    %rdx,%rax
  4059ee:	48 8b 00             	mov    (%rax),%rax
  4059f1:	eb 05                	jmp    4059f8 <yy_flush_buffer+0x8d>
  4059f3:	b8 00 00 00 00       	mov    $0x0,%eax
  4059f8:	48 3b 45 f8          	cmp    -0x8(%rbp),%rax
  4059fc:	75 08                	jne    405a06 <yy_flush_buffer+0x9b>
  4059fe:	e8 fb fc ff ff       	callq  4056fe <yy_load_buffer_state>
  405a03:	eb 01                	jmp    405a06 <yy_flush_buffer+0x9b>
  405a05:	90                   	nop
  405a06:	c9                   	leaveq 
  405a07:	c3                   	retq   

0000000000405a08 <yypush_buffer_state>:
  405a08:	55                   	push   %rbp
  405a09:	48 89 e5             	mov    %rsp,%rbp
  405a0c:	48 83 ec 10          	sub    $0x10,%rsp
  405a10:	48 89 7d f8          	mov    %rdi,-0x8(%rbp)
  405a14:	48 83 7d f8 00       	cmpq   $0x0,-0x8(%rbp)
  405a19:	0f 84 ea 00 00 00    	je     405b09 <yypush_buffer_state+0x101>
  405a1f:	e8 c7 01 00 00       	callq  405beb <yyensure_buffer_stack>
  405a24:	48 8b 05 35 eb 00 00 	mov    0xeb35(%rip),%rax        # 414560 <yy_buffer_stack>
  405a2b:	48 85 c0             	test   %rax,%rax
  405a2e:	74 71                	je     405aa1 <yypush_buffer_state+0x99>
  405a30:	48 8b 05 29 eb 00 00 	mov    0xeb29(%rip),%rax        # 414560 <yy_buffer_stack>
  405a37:	48 8b 15 12 eb 00 00 	mov    0xeb12(%rip),%rdx        # 414550 <yy_buffer_stack_top>
  405a3e:	48 c1 e2 03          	shl    $0x3,%rdx
  405a42:	48 01 d0             	add    %rdx,%rax
  405a45:	48 8b 00             	mov    (%rax),%rax
  405a48:	48 85 c0             	test   %rax,%rax
  405a4b:	74 54                	je     405aa1 <yypush_buffer_state+0x99>
  405a4d:	48 8b 05 1c eb 00 00 	mov    0xeb1c(%rip),%rax        # 414570 <yy_c_buf_p>
  405a54:	0f b6 15 0d eb 00 00 	movzbl 0xeb0d(%rip),%edx        # 414568 <yy_hold_char>
  405a5b:	88 10                	mov    %dl,(%rax)
  405a5d:	48 8b 05 fc ea 00 00 	mov    0xeafc(%rip),%rax        # 414560 <yy_buffer_stack>
  405a64:	48 8b 15 e5 ea 00 00 	mov    0xeae5(%rip),%rdx        # 414550 <yy_buffer_stack_top>
  405a6b:	48 c1 e2 03          	shl    $0x3,%rdx
  405a6f:	48 01 d0             	add    %rdx,%rax
  405a72:	48 8b 00             	mov    (%rax),%rax
  405a75:	48 8b 15 f4 ea 00 00 	mov    0xeaf4(%rip),%rdx        # 414570 <yy_c_buf_p>
  405a7c:	48 89 50 10          	mov    %rdx,0x10(%rax)
  405a80:	48 8b 05 d9 ea 00 00 	mov    0xead9(%rip),%rax        # 414560 <yy_buffer_stack>
  405a87:	48 8b 15 c2 ea 00 00 	mov    0xeac2(%rip),%rdx        # 414550 <yy_buffer_stack_top>
  405a8e:	48 c1 e2 03          	shl    $0x3,%rdx
  405a92:	48 01 d0             	add    %rdx,%rax
  405a95:	48 8b 00             	mov    (%rax),%rax
  405a98:	8b 15 ce ea 00 00    	mov    0xeace(%rip),%edx        # 41456c <yy_n_chars>
  405a9e:	89 50 1c             	mov    %edx,0x1c(%rax)
  405aa1:	48 8b 05 b8 ea 00 00 	mov    0xeab8(%rip),%rax        # 414560 <yy_buffer_stack>
  405aa8:	48 85 c0             	test   %rax,%rax
  405aab:	74 2f                	je     405adc <yypush_buffer_state+0xd4>
  405aad:	48 8b 05 ac ea 00 00 	mov    0xeaac(%rip),%rax        # 414560 <yy_buffer_stack>
  405ab4:	48 8b 15 95 ea 00 00 	mov    0xea95(%rip),%rdx        # 414550 <yy_buffer_stack_top>
  405abb:	48 c1 e2 03          	shl    $0x3,%rdx
  405abf:	48 01 d0             	add    %rdx,%rax
  405ac2:	48 8b 00             	mov    (%rax),%rax
  405ac5:	48 85 c0             	test   %rax,%rax
  405ac8:	74 12                	je     405adc <yypush_buffer_state+0xd4>
  405aca:	48 8b 05 7f ea 00 00 	mov    0xea7f(%rip),%rax        # 414550 <yy_buffer_stack_top>
  405ad1:	48 83 c0 01          	add    $0x1,%rax
  405ad5:	48 89 05 74 ea 00 00 	mov    %rax,0xea74(%rip)        # 414550 <yy_buffer_stack_top>
  405adc:	48 8b 05 7d ea 00 00 	mov    0xea7d(%rip),%rax        # 414560 <yy_buffer_stack>
  405ae3:	48 8b 15 66 ea 00 00 	mov    0xea66(%rip),%rdx        # 414550 <yy_buffer_stack_top>
  405aea:	48 c1 e2 03          	shl    $0x3,%rdx
  405aee:	48 01 c2             	add    %rax,%rdx
  405af1:	48 8b 45 f8          	mov    -0x8(%rbp),%rax
  405af5:	48 89 02             	mov    %rax,(%rdx)
  405af8:	e8 01 fc ff ff       	callq  4056fe <yy_load_buffer_state>
  405afd:	c7 05 79 ea 00 00 01 	movl   $0x1,0xea79(%rip)        # 414580 <yy_did_buffer_switch_on_eof>
  405b04:	00 00 00 
  405b07:	eb 01                	jmp    405b0a <yypush_buffer_state+0x102>
  405b09:	90                   	nop
  405b0a:	c9                   	leaveq 
  405b0b:	c3                   	retq   

0000000000405b0c <yypop_buffer_state>:
  405b0c:	55                   	push   %rbp
  405b0d:	48 89 e5             	mov    %rsp,%rbp
  405b10:	48 8b 05 49 ea 00 00 	mov    0xea49(%rip),%rax        # 414560 <yy_buffer_stack>
  405b17:	48 85 c0             	test   %rax,%rax
  405b1a:	0f 84 c8 00 00 00    	je     405be8 <yypop_buffer_state+0xdc>
  405b20:	48 8b 05 39 ea 00 00 	mov    0xea39(%rip),%rax        # 414560 <yy_buffer_stack>
  405b27:	48 8b 15 22 ea 00 00 	mov    0xea22(%rip),%rdx        # 414550 <yy_buffer_stack_top>
  405b2e:	48 c1 e2 03          	shl    $0x3,%rdx
  405b32:	48 01 d0             	add    %rdx,%rax
  405b35:	48 8b 00             	mov    (%rax),%rax
  405b38:	48 85 c0             	test   %rax,%rax
  405b3b:	0f 84 a7 00 00 00    	je     405be8 <yypop_buffer_state+0xdc>
  405b41:	48 8b 05 18 ea 00 00 	mov    0xea18(%rip),%rax        # 414560 <yy_buffer_stack>
  405b48:	48 85 c0             	test   %rax,%rax
  405b4b:	74 1a                	je     405b67 <yypop_buffer_state+0x5b>
  405b4d:	48 8b 05 0c ea 00 00 	mov    0xea0c(%rip),%rax        # 414560 <yy_buffer_stack>
  405b54:	48 8b 15 f5 e9 00 00 	mov    0xe9f5(%rip),%rdx        # 414550 <yy_buffer_stack_top>
  405b5b:	48 c1 e2 03          	shl    $0x3,%rdx
  405b5f:	48 01 d0             	add    %rdx,%rax
  405b62:	48 8b 00             	mov    (%rax),%rax
  405b65:	eb 05                	jmp    405b6c <yypop_buffer_state+0x60>
  405b67:	b8 00 00 00 00       	mov    $0x0,%eax
  405b6c:	48 89 c7             	mov    %rax,%rdi
  405b6f:	e8 a7 fc ff ff       	callq  40581b <yy_delete_buffer>
  405b74:	48 8b 05 e5 e9 00 00 	mov    0xe9e5(%rip),%rax        # 414560 <yy_buffer_stack>
  405b7b:	48 8b 15 ce e9 00 00 	mov    0xe9ce(%rip),%rdx        # 414550 <yy_buffer_stack_top>
  405b82:	48 c1 e2 03          	shl    $0x3,%rdx
  405b86:	48 01 d0             	add    %rdx,%rax
  405b89:	48 c7 00 00 00 00 00 	movq   $0x0,(%rax)
  405b90:	48 8b 05 b9 e9 00 00 	mov    0xe9b9(%rip),%rax        # 414550 <yy_buffer_stack_top>
  405b97:	48 85 c0             	test   %rax,%rax
  405b9a:	74 12                	je     405bae <yypop_buffer_state+0xa2>
  405b9c:	48 8b 05 ad e9 00 00 	mov    0xe9ad(%rip),%rax        # 414550 <yy_buffer_stack_top>
  405ba3:	48 83 e8 01          	sub    $0x1,%rax
  405ba7:	48 89 05 a2 e9 00 00 	mov    %rax,0xe9a2(%rip)        # 414550 <yy_buffer_stack_top>
  405bae:	48 8b 05 ab e9 00 00 	mov    0xe9ab(%rip),%rax        # 414560 <yy_buffer_stack>
  405bb5:	48 85 c0             	test   %rax,%rax
  405bb8:	74 2f                	je     405be9 <yypop_buffer_state+0xdd>
  405bba:	48 8b 05 9f e9 00 00 	mov    0xe99f(%rip),%rax        # 414560 <yy_buffer_stack>
  405bc1:	48 8b 15 88 e9 00 00 	mov    0xe988(%rip),%rdx        # 414550 <yy_buffer_stack_top>
  405bc8:	48 c1 e2 03          	shl    $0x3,%rdx
  405bcc:	48 01 d0             	add    %rdx,%rax
  405bcf:	48 8b 00             	mov    (%rax),%rax
  405bd2:	48 85 c0             	test   %rax,%rax
  405bd5:	74 12                	je     405be9 <yypop_buffer_state+0xdd>
  405bd7:	e8 22 fb ff ff       	callq  4056fe <yy_load_buffer_state>
  405bdc:	c7 05 9a e9 00 00 01 	movl   $0x1,0xe99a(%rip)        # 414580 <yy_did_buffer_switch_on_eof>
  405be3:	00 00 00 
  405be6:	eb 01                	jmp    405be9 <yypop_buffer_state+0xdd>
  405be8:	90                   	nop
  405be9:	5d                   	pop    %rbp
  405bea:	c3                   	retq   

0000000000405beb <yyensure_buffer_stack>:
  405beb:	55                   	push   %rbp
  405bec:	48 89 e5             	mov    %rsp,%rbp
  405bef:	48 83 ec 10          	sub    $0x10,%rsp
  405bf3:	48 8b 05 66 e9 00 00 	mov    0xe966(%rip),%rax        # 414560 <yy_buffer_stack>
  405bfa:	48 85 c0             	test   %rax,%rax
  405bfd:	75 70                	jne    405c6f <yyensure_buffer_stack+0x84>
  405bff:	48 c7 45 f8 01 00 00 	movq   $0x1,-0x8(%rbp)
  405c06:	00 
  405c07:	48 8b 45 f8          	mov    -0x8(%rbp),%rax
  405c0b:	48 c1 e0 03          	shl    $0x3,%rax
  405c0f:	48 89 c7             	mov    %rax,%rdi
  405c12:	e8 cf 04 00 00       	callq  4060e6 <yyalloc>
  405c17:	48 89 05 42 e9 00 00 	mov    %rax,0xe942(%rip)        # 414560 <yy_buffer_stack>
  405c1e:	48 8b 05 3b e9 00 00 	mov    0xe93b(%rip),%rax        # 414560 <yy_buffer_stack>
  405c25:	48 85 c0             	test   %rax,%rax
  405c28:	75 0a                	jne    405c34 <yyensure_buffer_stack+0x49>
  405c2a:	bf f0 e2 40 00       	mov    $0x40e2f0,%edi
  405c2f:	e8 d8 02 00 00       	callq  405f0c <yy_fatal_error>
  405c34:	48 8b 45 f8          	mov    -0x8(%rbp),%rax
  405c38:	48 8d 14 c5 00 00 00 	lea    0x0(,%rax,8),%rdx
  405c3f:	00 
  405c40:	48 8b 05 19 e9 00 00 	mov    0xe919(%rip),%rax        # 414560 <yy_buffer_stack>
  405c47:	be 00 00 00 00       	mov    $0x0,%esi
  405c4c:	48 89 c7             	mov    %rax,%rdi
  405c4f:	e8 1c d5 ff ff       	callq  403170 <memset@plt>
  405c54:	48 8b 45 f8          	mov    -0x8(%rbp),%rax
  405c58:	48 89 05 f9 e8 00 00 	mov    %rax,0xe8f9(%rip)        # 414558 <yy_buffer_stack_max>
  405c5f:	48 c7 05 e6 e8 00 00 	movq   $0x0,0xe8e6(%rip)        # 414550 <yy_buffer_stack_top>
  405c66:	00 00 00 00 
  405c6a:	e9 a9 00 00 00       	jmpq   405d18 <yyensure_buffer_stack+0x12d>
  405c6f:	48 8b 05 e2 e8 00 00 	mov    0xe8e2(%rip),%rax        # 414558 <yy_buffer_stack_max>
  405c76:	48 8d 50 ff          	lea    -0x1(%rax),%rdx
  405c7a:	48 8b 05 cf e8 00 00 	mov    0xe8cf(%rip),%rax        # 414550 <yy_buffer_stack_top>
  405c81:	48 39 c2             	cmp    %rax,%rdx
  405c84:	0f 87 8e 00 00 00    	ja     405d18 <yyensure_buffer_stack+0x12d>
  405c8a:	48 c7 45 f0 08 00 00 	movq   $0x8,-0x10(%rbp)
  405c91:	00 
  405c92:	48 8b 15 bf e8 00 00 	mov    0xe8bf(%rip),%rdx        # 414558 <yy_buffer_stack_max>
  405c99:	48 8b 45 f0          	mov    -0x10(%rbp),%rax
  405c9d:	48 01 d0             	add    %rdx,%rax
  405ca0:	48 89 45 f8          	mov    %rax,-0x8(%rbp)
  405ca4:	48 8b 45 f8          	mov    -0x8(%rbp),%rax
  405ca8:	48 8d 14 c5 00 00 00 	lea    0x0(,%rax,8),%rdx
  405caf:	00 
  405cb0:	48 8b 05 a9 e8 00 00 	mov    0xe8a9(%rip),%rax        # 414560 <yy_buffer_stack>
  405cb7:	48 89 d6             	mov    %rdx,%rsi
  405cba:	48 89 c7             	mov    %rax,%rdi
  405cbd:	e8 3e 04 00 00       	callq  406100 <yyrealloc>
  405cc2:	48 89 05 97 e8 00 00 	mov    %rax,0xe897(%rip)        # 414560 <yy_buffer_stack>
  405cc9:	48 8b 05 90 e8 00 00 	mov    0xe890(%rip),%rax        # 414560 <yy_buffer_stack>
  405cd0:	48 85 c0             	test   %rax,%rax
  405cd3:	75 0a                	jne    405cdf <yyensure_buffer_stack+0xf4>
  405cd5:	bf f0 e2 40 00       	mov    $0x40e2f0,%edi
  405cda:	e8 2d 02 00 00       	callq  405f0c <yy_fatal_error>
  405cdf:	48 8b 45 f0          	mov    -0x10(%rbp),%rax
  405ce3:	48 8d 14 c5 00 00 00 	lea    0x0(,%rax,8),%rdx
  405cea:	00 
  405ceb:	48 8b 05 6e e8 00 00 	mov    0xe86e(%rip),%rax        # 414560 <yy_buffer_stack>
  405cf2:	48 8b 0d 5f e8 00 00 	mov    0xe85f(%rip),%rcx        # 414558 <yy_buffer_stack_max>
  405cf9:	48 c1 e1 03          	shl    $0x3,%rcx
  405cfd:	48 01 c8             	add    %rcx,%rax
  405d00:	be 00 00 00 00       	mov    $0x0,%esi
  405d05:	48 89 c7             	mov    %rax,%rdi
  405d08:	e8 63 d4 ff ff       	callq  403170 <memset@plt>
  405d0d:	48 8b 45 f8          	mov    -0x8(%rbp),%rax
  405d11:	48 89 05 40 e8 00 00 	mov    %rax,0xe840(%rip)        # 414558 <yy_buffer_stack_max>
  405d18:	c9                   	leaveq 
  405d19:	c3                   	retq   

0000000000405d1a <yy_scan_buffer>:
  405d1a:	55                   	push   %rbp
  405d1b:	48 89 e5             	mov    %rsp,%rbp
  405d1e:	48 83 ec 20          	sub    $0x20,%rsp
  405d22:	48 89 7d e8          	mov    %rdi,-0x18(%rbp)
  405d26:	48 89 75 e0          	mov    %rsi,-0x20(%rbp)
  405d2a:	48 83 7d e0 01       	cmpq   $0x1,-0x20(%rbp)
  405d2f:	76 2c                	jbe    405d5d <yy_scan_buffer+0x43>
  405d31:	48 8b 45 e0          	mov    -0x20(%rbp),%rax
  405d35:	48 8d 50 fe          	lea    -0x2(%rax),%rdx
  405d39:	48 8b 45 e8          	mov    -0x18(%rbp),%rax
  405d3d:	48 01 d0             	add    %rdx,%rax
  405d40:	0f b6 00             	movzbl (%rax),%eax
  405d43:	84 c0                	test   %al,%al
  405d45:	75 16                	jne    405d5d <yy_scan_buffer+0x43>
  405d47:	48 8b 45 e0          	mov    -0x20(%rbp),%rax
  405d4b:	48 8d 50 ff          	lea    -0x1(%rax),%rdx
  405d4f:	48 8b 45 e8          	mov    -0x18(%rbp),%rax
  405d53:	48 01 d0             	add    %rdx,%rax
  405d56:	0f b6 00             	movzbl (%rax),%eax
  405d59:	84 c0                	test   %al,%al
  405d5b:	74 0a                	je     405d67 <yy_scan_buffer+0x4d>
  405d5d:	b8 00 00 00 00       	mov    $0x0,%eax
  405d62:	e9 ab 00 00 00       	jmpq   405e12 <yy_scan_buffer+0xf8>
  405d67:	bf 40 00 00 00       	mov    $0x40,%edi
  405d6c:	e8 75 03 00 00       	callq  4060e6 <yyalloc>
  405d71:	48 89 45 f8          	mov    %rax,-0x8(%rbp)
  405d75:	48 83 7d f8 00       	cmpq   $0x0,-0x8(%rbp)
  405d7a:	75 0a                	jne    405d86 <yy_scan_buffer+0x6c>
  405d7c:	bf 28 e3 40 00       	mov    $0x40e328,%edi
  405d81:	e8 86 01 00 00       	callq  405f0c <yy_fatal_error>
  405d86:	48 8b 45 e0          	mov    -0x20(%rbp),%rax
  405d8a:	83 e8 02             	sub    $0x2,%eax
  405d8d:	89 c2                	mov    %eax,%edx
  405d8f:	48 8b 45 f8          	mov    -0x8(%rbp),%rax
  405d93:	89 50 18             	mov    %edx,0x18(%rax)
  405d96:	48 8b 45 f8          	mov    -0x8(%rbp),%rax
  405d9a:	48 8b 55 e8          	mov    -0x18(%rbp),%rdx
  405d9e:	48 89 50 08          	mov    %rdx,0x8(%rax)
  405da2:	48 8b 45 f8          	mov    -0x8(%rbp),%rax
  405da6:	48 8b 50 08          	mov    0x8(%rax),%rdx
  405daa:	48 8b 45 f8          	mov    -0x8(%rbp),%rax
  405dae:	48 89 50 10          	mov    %rdx,0x10(%rax)
  405db2:	48 8b 45 f8          	mov    -0x8(%rbp),%rax
  405db6:	c7 40 20 00 00 00 00 	movl   $0x0,0x20(%rax)
  405dbd:	48 8b 45 f8          	mov    -0x8(%rbp),%rax
  405dc1:	48 c7 00 00 00 00 00 	movq   $0x0,(%rax)
  405dc8:	48 8b 45 f8          	mov    -0x8(%rbp),%rax
  405dcc:	8b 50 18             	mov    0x18(%rax),%edx
  405dcf:	48 8b 45 f8          	mov    -0x8(%rbp),%rax
  405dd3:	89 50 1c             	mov    %edx,0x1c(%rax)
  405dd6:	48 8b 45 f8          	mov    -0x8(%rbp),%rax
  405dda:	c7 40 24 00 00 00 00 	movl   $0x0,0x24(%rax)
  405de1:	48 8b 45 f8          	mov    -0x8(%rbp),%rax
  405de5:	c7 40 28 01 00 00 00 	movl   $0x1,0x28(%rax)
  405dec:	48 8b 45 f8          	mov    -0x8(%rbp),%rax
  405df0:	c7 40 34 00 00 00 00 	movl   $0x0,0x34(%rax)
  405df7:	48 8b 45 f8          	mov    -0x8(%rbp),%rax
  405dfb:	c7 40 38 00 00 00 00 	movl   $0x0,0x38(%rax)
  405e02:	48 8b 45 f8          	mov    -0x8(%rbp),%rax
  405e06:	48 89 c7             	mov    %rax,%rdi
  405e09:	e8 fd f7 ff ff       	callq  40560b <yy_switch_to_buffer>
  405e0e:	48 8b 45 f8          	mov    -0x8(%rbp),%rax
  405e12:	c9                   	leaveq 
  405e13:	c3                   	retq   

0000000000405e14 <yy_scan_string>:
  405e14:	55                   	push   %rbp
  405e15:	48 89 e5             	mov    %rsp,%rbp
  405e18:	48 83 ec 10          	sub    $0x10,%rsp
  405e1c:	48 89 7d f8          	mov    %rdi,-0x8(%rbp)
  405e20:	48 8b 45 f8          	mov    -0x8(%rbp),%rax
  405e24:	48 89 c7             	mov    %rax,%rdi
  405e27:	e8 14 d3 ff ff       	callq  403140 <strlen@plt>
  405e2c:	89 c2                	mov    %eax,%edx
  405e2e:	48 8b 45 f8          	mov    -0x8(%rbp),%rax
  405e32:	89 d6                	mov    %edx,%esi
  405e34:	48 89 c7             	mov    %rax,%rdi
  405e37:	e8 02 00 00 00       	callq  405e3e <yy_scan_bytes>
  405e3c:	c9                   	leaveq 
  405e3d:	c3                   	retq   

0000000000405e3e <yy_scan_bytes>:
  405e3e:	55                   	push   %rbp
  405e3f:	48 89 e5             	mov    %rsp,%rbp
  405e42:	48 83 ec 30          	sub    $0x30,%rsp
  405e46:	48 89 7d d8          	mov    %rdi,-0x28(%rbp)
  405e4a:	89 75 d4             	mov    %esi,-0x2c(%rbp)
  405e4d:	8b 45 d4             	mov    -0x2c(%rbp),%eax
  405e50:	83 c0 02             	add    $0x2,%eax
  405e53:	48 98                	cltq   
  405e55:	48 89 45 f0          	mov    %rax,-0x10(%rbp)
  405e59:	48 8b 45 f0          	mov    -0x10(%rbp),%rax
  405e5d:	48 89 c7             	mov    %rax,%rdi
  405e60:	e8 81 02 00 00       	callq  4060e6 <yyalloc>
  405e65:	48 89 45 e8          	mov    %rax,-0x18(%rbp)
  405e69:	48 83 7d e8 00       	cmpq   $0x0,-0x18(%rbp)
  405e6e:	75 0a                	jne    405e7a <yy_scan_bytes+0x3c>
  405e70:	bf 58 e3 40 00       	mov    $0x40e358,%edi
  405e75:	e8 92 00 00 00       	callq  405f0c <yy_fatal_error>
  405e7a:	c7 45 fc 00 00 00 00 	movl   $0x0,-0x4(%rbp)
  405e81:	eb 23                	jmp    405ea6 <yy_scan_bytes+0x68>
  405e83:	8b 45 fc             	mov    -0x4(%rbp),%eax
  405e86:	48 63 d0             	movslq %eax,%rdx
  405e89:	48 8b 45 d8          	mov    -0x28(%rbp),%rax
  405e8d:	48 01 d0             	add    %rdx,%rax
  405e90:	8b 55 fc             	mov    -0x4(%rbp),%edx
  405e93:	48 63 ca             	movslq %edx,%rcx
  405e96:	48 8b 55 e8          	mov    -0x18(%rbp),%rdx
  405e9a:	48 01 ca             	add    %rcx,%rdx
  405e9d:	0f b6 00             	movzbl (%rax),%eax
  405ea0:	88 02                	mov    %al,(%rdx)
  405ea2:	83 45 fc 01          	addl   $0x1,-0x4(%rbp)
  405ea6:	8b 45 fc             	mov    -0x4(%rbp),%eax
  405ea9:	3b 45 d4             	cmp    -0x2c(%rbp),%eax
  405eac:	7c d5                	jl     405e83 <yy_scan_bytes+0x45>
  405eae:	8b 45 d4             	mov    -0x2c(%rbp),%eax
  405eb1:	48 98                	cltq   
  405eb3:	48 8d 50 01          	lea    0x1(%rax),%rdx
  405eb7:	48 8b 45 e8          	mov    -0x18(%rbp),%rax
  405ebb:	48 01 d0             	add    %rdx,%rax
  405ebe:	c6 00 00             	movb   $0x0,(%rax)
  405ec1:	8b 55 d4             	mov    -0x2c(%rbp),%edx
  405ec4:	48 63 ca             	movslq %edx,%rcx
  405ec7:	48 8b 55 e8          	mov    -0x18(%rbp),%rdx
  405ecb:	48 01 ca             	add    %rcx,%rdx
  405ece:	0f b6 00             	movzbl (%rax),%eax
  405ed1:	88 02                	mov    %al,(%rdx)
  405ed3:	48 8b 55 f0          	mov    -0x10(%rbp),%rdx
  405ed7:	48 8b 45 e8          	mov    -0x18(%rbp),%rax
  405edb:	48 89 d6             	mov    %rdx,%rsi
  405ede:	48 89 c7             	mov    %rax,%rdi
  405ee1:	e8 34 fe ff ff       	callq  405d1a <yy_scan_buffer>
  405ee6:	48 89 45 e0          	mov    %rax,-0x20(%rbp)
  405eea:	48 83 7d e0 00       	cmpq   $0x0,-0x20(%rbp)
  405eef:	75 0a                	jne    405efb <yy_scan_bytes+0xbd>
  405ef1:	bf 81 e3 40 00       	mov    $0x40e381,%edi
  405ef6:	e8 11 00 00 00       	callq  405f0c <yy_fatal_error>
  405efb:	48 8b 45 e0          	mov    -0x20(%rbp),%rax
  405eff:	c7 40 20 01 00 00 00 	movl   $0x1,0x20(%rax)
  405f06:	48 8b 45 e0          	mov    -0x20(%rbp),%rax
  405f0a:	c9                   	leaveq 
  405f0b:	c3                   	retq   

0000000000405f0c <yy_fatal_error>:
  405f0c:	55                   	push   %rbp
  405f0d:	48 89 e5             	mov    %rsp,%rbp
  405f10:	48 83 ec 10          	sub    $0x10,%rsp
  405f14:	48 89 7d f8          	mov    %rdi,-0x8(%rbp)
  405f18:	48 8b 05 e1 e4 00 00 	mov    0xe4e1(%rip),%rax        # 414400 <stderr@@GLIBC_2.2.5>
  405f1f:	48 8b 55 f8          	mov    -0x8(%rbp),%rdx
  405f23:	be 9f e3 40 00       	mov    $0x40e39f,%esi
  405f28:	48 89 c7             	mov    %rax,%rdi
  405f2b:	b8 00 00 00 00       	mov    $0x0,%eax
  405f30:	e8 5b d4 ff ff       	callq  403390 <fprintf@plt>
  405f35:	bf 02 00 00 00       	mov    $0x2,%edi
  405f3a:	e8 d1 d3 ff ff       	callq  403310 <exit@plt>

0000000000405f3f <yyget_lineno>:
  405f3f:	55                   	push   %rbp
  405f40:	48 89 e5             	mov    %rsp,%rbp
  405f43:	8b 05 4f e3 00 00    	mov    0xe34f(%rip),%eax        # 414298 <yylineno>
  405f49:	5d                   	pop    %rbp
  405f4a:	c3                   	retq   

0000000000405f4b <yyget_in>:
  405f4b:	55                   	push   %rbp
  405f4c:	48 89 e5             	mov    %rsp,%rbp
  405f4f:	48 8b 05 e2 e5 00 00 	mov    0xe5e2(%rip),%rax        # 414538 <yyin>
  405f56:	5d                   	pop    %rbp
  405f57:	c3                   	retq   

0000000000405f58 <yyget_out>:
  405f58:	55                   	push   %rbp
  405f59:	48 89 e5             	mov    %rsp,%rbp
  405f5c:	48 8b 05 dd e5 00 00 	mov    0xe5dd(%rip),%rax        # 414540 <yyout>
  405f63:	5d                   	pop    %rbp
  405f64:	c3                   	retq   

0000000000405f65 <yyget_leng>:
  405f65:	55                   	push   %rbp
  405f66:	48 89 e5             	mov    %rsp,%rbp
  405f69:	8b 05 81 ea 00 00    	mov    0xea81(%rip),%eax        # 4149f0 <yyleng>
  405f6f:	5d                   	pop    %rbp
  405f70:	c3                   	retq   

0000000000405f71 <yyget_text>:
  405f71:	55                   	push   %rbp
  405f72:	48 89 e5             	mov    %rsp,%rbp
  405f75:	48 8b 05 6c ea 00 00 	mov    0xea6c(%rip),%rax        # 4149e8 <yytext>
  405f7c:	5d                   	pop    %rbp
  405f7d:	c3                   	retq   

0000000000405f7e <yyset_lineno>:
  405f7e:	55                   	push   %rbp
  405f7f:	48 89 e5             	mov    %rsp,%rbp
  405f82:	89 7d fc             	mov    %edi,-0x4(%rbp)
  405f85:	8b 45 fc             	mov    -0x4(%rbp),%eax
  405f88:	89 05 0a e3 00 00    	mov    %eax,0xe30a(%rip)        # 414298 <yylineno>
  405f8e:	90                   	nop
  405f8f:	5d                   	pop    %rbp
  405f90:	c3                   	retq   

0000000000405f91 <yyset_in>:
  405f91:	55                   	push   %rbp
  405f92:	48 89 e5             	mov    %rsp,%rbp
  405f95:	48 89 7d f8          	mov    %rdi,-0x8(%rbp)
  405f99:	48 8b 45 f8          	mov    -0x8(%rbp),%rax
  405f9d:	48 89 05 94 e5 00 00 	mov    %rax,0xe594(%rip)        # 414538 <yyin>
  405fa4:	90                   	nop
  405fa5:	5d                   	pop    %rbp
  405fa6:	c3                   	retq   

0000000000405fa7 <yyset_out>:
  405fa7:	55                   	push   %rbp
  405fa8:	48 89 e5             	mov    %rsp,%rbp
  405fab:	48 89 7d f8          	mov    %rdi,-0x8(%rbp)
  405faf:	48 8b 45 f8          	mov    -0x8(%rbp),%rax
  405fb3:	48 89 05 86 e5 00 00 	mov    %rax,0xe586(%rip)        # 414540 <yyout>
  405fba:	90                   	nop
  405fbb:	5d                   	pop    %rbp
  405fbc:	c3                   	retq   

0000000000405fbd <yyget_debug>:
  405fbd:	55                   	push   %rbp
  405fbe:	48 89 e5             	mov    %rsp,%rbp
  405fc1:	8b 05 81 e5 00 00    	mov    0xe581(%rip),%eax        # 414548 <yy_flex_debug>
  405fc7:	5d                   	pop    %rbp
  405fc8:	c3                   	retq   

0000000000405fc9 <yyset_debug>:
  405fc9:	55                   	push   %rbp
  405fca:	48 89 e5             	mov    %rsp,%rbp
  405fcd:	89 7d fc             	mov    %edi,-0x4(%rbp)
  405fd0:	8b 45 fc             	mov    -0x4(%rbp),%eax
  405fd3:	89 05 6f e5 00 00    	mov    %eax,0xe56f(%rip)        # 414548 <yy_flex_debug>
  405fd9:	90                   	nop
  405fda:	5d                   	pop    %rbp
  405fdb:	c3                   	retq   

0000000000405fdc <yy_init_globals>:
  405fdc:	55                   	push   %rbp
  405fdd:	48 89 e5             	mov    %rsp,%rbp
  405fe0:	48 c7 05 75 e5 00 00 	movq   $0x0,0xe575(%rip)        # 414560 <yy_buffer_stack>
  405fe7:	00 00 00 00 
  405feb:	48 c7 05 5a e5 00 00 	movq   $0x0,0xe55a(%rip)        # 414550 <yy_buffer_stack_top>
  405ff2:	00 00 00 00 
  405ff6:	48 c7 05 57 e5 00 00 	movq   $0x0,0xe557(%rip)        # 414558 <yy_buffer_stack_max>
  405ffd:	00 00 00 00 
  406001:	48 c7 05 64 e5 00 00 	movq   $0x0,0xe564(%rip)        # 414570 <yy_c_buf_p>
  406008:	00 00 00 00 
  40600c:	c7 05 62 e5 00 00 00 	movl   $0x0,0xe562(%rip)        # 414578 <yy_init>
  406013:	00 00 00 
  406016:	c7 05 5c e5 00 00 00 	movl   $0x0,0xe55c(%rip)        # 41457c <yy_start>
  40601d:	00 00 00 
  406020:	48 c7 05 0d e5 00 00 	movq   $0x0,0xe50d(%rip)        # 414538 <yyin>
  406027:	00 00 00 00 
  40602b:	48 c7 05 0a e5 00 00 	movq   $0x0,0xe50a(%rip)        # 414540 <yyout>
  406032:	00 00 00 00 
  406036:	b8 00 00 00 00       	mov    $0x0,%eax
  40603b:	5d                   	pop    %rbp
  40603c:	c3                   	retq   

000000000040603d <yylex_destroy>:
  40603d:	55                   	push   %rbp
  40603e:	48 89 e5             	mov    %rsp,%rbp
  406041:	eb 54                	jmp    406097 <yylex_destroy+0x5a>
  406043:	48 8b 05 16 e5 00 00 	mov    0xe516(%rip),%rax        # 414560 <yy_buffer_stack>
  40604a:	48 85 c0             	test   %rax,%rax
  40604d:	74 1a                	je     406069 <yylex_destroy+0x2c>
  40604f:	48 8b 05 0a e5 00 00 	mov    0xe50a(%rip),%rax        # 414560 <yy_buffer_stack>
  406056:	48 8b 15 f3 e4 00 00 	mov    0xe4f3(%rip),%rdx        # 414550 <yy_buffer_stack_top>
  40605d:	48 c1 e2 03          	shl    $0x3,%rdx
  406061:	48 01 d0             	add    %rdx,%rax
  406064:	48 8b 00             	mov    (%rax),%rax
  406067:	eb 05                	jmp    40606e <yylex_destroy+0x31>
  406069:	b8 00 00 00 00       	mov    $0x0,%eax
  40606e:	48 89 c7             	mov    %rax,%rdi
  406071:	e8 a5 f7 ff ff       	callq  40581b <yy_delete_buffer>
  406076:	48 8b 05 e3 e4 00 00 	mov    0xe4e3(%rip),%rax        # 414560 <yy_buffer_stack>
  40607d:	48 8b 15 cc e4 00 00 	mov    0xe4cc(%rip),%rdx        # 414550 <yy_buffer_stack_top>
  406084:	48 c1 e2 03          	shl    $0x3,%rdx
  406088:	48 01 d0             	add    %rdx,%rax
  40608b:	48 c7 00 00 00 00 00 	movq   $0x0,(%rax)
  406092:	e8 75 fa ff ff       	callq  405b0c <yypop_buffer_state>
  406097:	48 8b 05 c2 e4 00 00 	mov    0xe4c2(%rip),%rax        # 414560 <yy_buffer_stack>
  40609e:	48 85 c0             	test   %rax,%rax
  4060a1:	74 1d                	je     4060c0 <yylex_destroy+0x83>
  4060a3:	48 8b 05 b6 e4 00 00 	mov    0xe4b6(%rip),%rax        # 414560 <yy_buffer_stack>
  4060aa:	48 8b 15 9f e4 00 00 	mov    0xe49f(%rip),%rdx        # 414550 <yy_buffer_stack_top>
  4060b1:	48 c1 e2 03          	shl    $0x3,%rdx
  4060b5:	48 01 d0             	add    %rdx,%rax
  4060b8:	48 8b 00             	mov    (%rax),%rax
  4060bb:	48 85 c0             	test   %rax,%rax
  4060be:	75 83                	jne    406043 <yylex_destroy+0x6>
  4060c0:	48 8b 05 99 e4 00 00 	mov    0xe499(%rip),%rax        # 414560 <yy_buffer_stack>
  4060c7:	48 89 c7             	mov    %rax,%rdi
  4060ca:	e8 56 00 00 00       	callq  406125 <yyfree>
  4060cf:	48 c7 05 86 e4 00 00 	movq   $0x0,0xe486(%rip)        # 414560 <yy_buffer_stack>
  4060d6:	00 00 00 00 
  4060da:	e8 fd fe ff ff       	callq  405fdc <yy_init_globals>
  4060df:	b8 00 00 00 00       	mov    $0x0,%eax
  4060e4:	5d                   	pop    %rbp
  4060e5:	c3                   	retq   

00000000004060e6 <yyalloc>:
  4060e6:	55                   	push   %rbp
  4060e7:	48 89 e5             	mov    %rsp,%rbp
  4060ea:	48 83 ec 10          	sub    $0x10,%rsp
  4060ee:	48 89 7d f8          	mov    %rdi,-0x8(%rbp)
  4060f2:	48 8b 45 f8          	mov    -0x8(%rbp),%rax
  4060f6:	48 89 c7             	mov    %rax,%rdi
  4060f9:	e8 42 d2 ff ff       	callq  403340 <malloc@plt>
  4060fe:	c9                   	leaveq 
  4060ff:	c3                   	retq   

0000000000406100 <yyrealloc>:
  406100:	55                   	push   %rbp
  406101:	48 89 e5             	mov    %rsp,%rbp
  406104:	48 83 ec 10          	sub    $0x10,%rsp
  406108:	48 89 7d f8          	mov    %rdi,-0x8(%rbp)
  40610c:	48 89 75 f0          	mov    %rsi,-0x10(%rbp)
  406110:	48 8b 55 f0          	mov    -0x10(%rbp),%rdx
  406114:	48 8b 45 f8          	mov    -0x8(%rbp),%rax
  406118:	48 89 d6             	mov    %rdx,%rsi
  40611b:	48 89 c7             	mov    %rax,%rdi
  40611e:	e8 0d d3 ff ff       	callq  403430 <realloc@plt>
  406123:	c9                   	leaveq 
  406124:	c3                   	retq   

0000000000406125 <yyfree>:
  406125:	55                   	push   %rbp
  406126:	48 89 e5             	mov    %rsp,%rbp
  406129:	48 83 ec 10          	sub    $0x10,%rsp
  40612d:	48 89 7d f8          	mov    %rdi,-0x8(%rbp)
  406131:	48 8b 45 f8          	mov    -0x8(%rbp),%rax
  406135:	48 89 c7             	mov    %rax,%rdi
  406138:	e8 c3 d1 ff ff       	callq  403300 <free@plt>
  40613d:	90                   	nop
  40613e:	c9                   	leaveq 
  40613f:	c3                   	retq   

0000000000406140 <yywrap>:
  406140:	55                   	push   %rbp
  406141:	48 89 e5             	mov    %rsp,%rbp
  406144:	b8 01 00 00 00       	mov    $0x1,%eax
  406149:	5d                   	pop    %rbp
  40614a:	c3                   	retq   

000000000040614b <_ZL18__gthread_active_pv>:
  40614b:	55                   	push   %rbp
  40614c:	48 89 e5             	mov    %rsp,%rbp
  40614f:	48 8b 05 4a e1 00 00 	mov    0xe14a(%rip),%rax        # 4142a0 <_ZZL18__gthread_active_pvE20__gthread_active_ptr>
  406156:	48 85 c0             	test   %rax,%rax
  406159:	0f 95 c0             	setne  %al
  40615c:	0f b6 c0             	movzbl %al,%eax
  40615f:	5d                   	pop    %rbp
  406160:	c3                   	retq   

0000000000406161 <_Z8getScopeB5cxx11v>:
  406161:	55                   	push   %rbp
  406162:	48 89 e5             	mov    %rsp,%rbp
  406165:	53                   	push   %rbx
  406166:	48 83 ec 28          	sub    $0x28,%rsp
  40616a:	48 89 7d d8          	mov    %rdi,-0x28(%rbp)
  40616e:	bf 50 46 41 00       	mov    $0x414650,%edi
  406173:	e8 84 0c 00 00       	callq  406dfc <_ZNKSt6vectorINSt7__cxx1112basic_stringIcSt11char_traitsIcESaIcEEESaIS5_EE5emptyEv>
  406178:	84 c0                	test   %al,%al
  40617a:	74 2f                	je     4061ab <_Z8getScopeB5cxx11v+0x4a>
  40617c:	48 8d 45 ef          	lea    -0x11(%rbp),%rax
  406180:	48 89 c7             	mov    %rax,%rdi
  406183:	e8 f8 d2 ff ff       	callq  403480 <_ZNSaIcEC1Ev@plt>
  406188:	48 8d 55 ef          	lea    -0x11(%rbp),%rdx
  40618c:	48 8b 45 d8          	mov    -0x28(%rbp),%rax
  406190:	be b2 e3 40 00       	mov    $0x40e3b2,%esi
  406195:	48 89 c7             	mov    %rax,%rdi
  406198:	e8 c3 d1 ff ff       	callq  403360 <_ZNSt7__cxx1112basic_stringIcSt11char_traitsIcESaIcEEC1EPKcRKS3_@plt>
  40619d:	48 8d 45 ef          	lea    -0x11(%rbp),%rax
  4061a1:	48 89 c7             	mov    %rax,%rdi
  4061a4:	e8 27 d1 ff ff       	callq  4032d0 <_ZNSaIcED1Ev@plt>
  4061a9:	eb 38                	jmp    4061e3 <_Z8getScopeB5cxx11v+0x82>
  4061ab:	bf 50 46 41 00       	mov    $0x414650,%edi
  4061b0:	e8 89 0c 00 00       	callq  406e3e <_ZNSt6vectorINSt7__cxx1112basic_stringIcSt11char_traitsIcESaIcEEESaIS5_EE4backEv>
  4061b5:	48 89 c2             	mov    %rax,%rdx
  4061b8:	48 8b 45 d8          	mov    -0x28(%rbp),%rax
  4061bc:	48 89 d6             	mov    %rdx,%rsi
  4061bf:	48 89 c7             	mov    %rax,%rdi
  4061c2:	e8 69 cf ff ff       	callq  403130 <_ZNSt7__cxx1112basic_stringIcSt11char_traitsIcESaIcEEC1ERKS4_@plt>
  4061c7:	eb 1a                	jmp    4061e3 <_Z8getScopeB5cxx11v+0x82>
  4061c9:	48 89 c3             	mov    %rax,%rbx
  4061cc:	48 8d 45 ef          	lea    -0x11(%rbp),%rax
  4061d0:	48 89 c7             	mov    %rax,%rdi
  4061d3:	e8 f8 d0 ff ff       	callq  4032d0 <_ZNSaIcED1Ev@plt>
  4061d8:	48 89 d8             	mov    %rbx,%rax
  4061db:	48 89 c7             	mov    %rax,%rdi
  4061de:	e8 8d d2 ff ff       	callq  403470 <_Unwind_Resume@plt>
  4061e3:	48 8b 45 d8          	mov    -0x28(%rbp),%rax
  4061e7:	48 83 c4 28          	add    $0x28,%rsp
  4061eb:	5b                   	pop    %rbx
  4061ec:	5d                   	pop    %rbp
  4061ed:	c3                   	retq   

00000000004061ee <_Z7declarePKc>:
  4061ee:	55                   	push   %rbp
  4061ef:	48 89 e5             	mov    %rsp,%rbp
  4061f2:	48 83 ec 10          	sub    $0x10,%rsp
  4061f6:	48 89 7d f8          	mov    %rdi,-0x8(%rbp)
  4061fa:	48 8b 45 f8          	mov    -0x8(%rbp),%rax
  4061fe:	48 89 c6             	mov    %rax,%rsi
  406201:	bf b9 e3 40 00       	mov    $0x40e3b9,%edi
  406206:	b8 00 00 00 00       	mov    $0x0,%eax
  40620b:	e8 60 ce ff ff       	callq  403070 <printf@plt>
  406210:	90                   	nop
  406211:	c9                   	leaveq 
  406212:	c3                   	retq   

0000000000406213 <_Z7declarePKcS0_>:
  406213:	55                   	push   %rbp
  406214:	48 89 e5             	mov    %rsp,%rbp
  406217:	48 83 ec 10          	sub    $0x10,%rsp
  40621b:	48 89 7d f8          	mov    %rdi,-0x8(%rbp)
  40621f:	48 89 75 f0          	mov    %rsi,-0x10(%rbp)
  406223:	48 8b 55 f0          	mov    -0x10(%rbp),%rdx
  406227:	48 8b 45 f8          	mov    -0x8(%rbp),%rax
  40622b:	48 89 c6             	mov    %rax,%rsi
  40622e:	bf c1 e3 40 00       	mov    $0x40e3c1,%edi
  406233:	b8 00 00 00 00       	mov    $0x0,%eax
  406238:	e8 33 ce ff ff       	callq  403070 <printf@plt>
  40623d:	90                   	nop
  40623e:	c9                   	leaveq 
  40623f:	c3                   	retq   

0000000000406240 <_lea>:
  406240:	55                   	push   %rbp
  406241:	48 89 e5             	mov    %rsp,%rbp
  406244:	48 83 ec 10          	sub    $0x10,%rsp
  406248:	48 89 7d f8          	mov    %rdi,-0x8(%rbp)
  40624c:	bf 50 46 41 00       	mov    $0x414650,%edi
  406251:	e8 28 0c 00 00       	callq  406e7e <_ZNSt6vectorINSt7__cxx1112basic_stringIcSt11char_traitsIcESaIcEEESaIS5_EE5clearEv>
  406256:	90                   	nop
  406257:	c9                   	leaveq 
  406258:	c3                   	retq   

0000000000406259 <_line_inc>:
  406259:	55                   	push   %rbp
  40625a:	48 89 e5             	mov    %rsp,%rbp
  40625d:	bf 20 46 41 00       	mov    $0x414620,%edi
  406262:	e8 55 09 00 00       	callq  406bbc <_ZNSt5mutex4lockEv>
  406267:	48 8b 05 9a e3 00 00 	mov    0xe39a(%rip),%rax        # 414608 <lea_line>
  40626e:	48 83 c0 01          	add    $0x1,%rax
  406272:	48 89 05 8f e3 00 00 	mov    %rax,0xe38f(%rip)        # 414608 <lea_line>
  406279:	bf 20 46 41 00       	mov    $0x414620,%edi
  40627e:	e8 67 09 00 00       	callq  406bea <_ZNSt5mutex6unlockEv>
  406283:	90                   	nop
  406284:	5d                   	pop    %rbp
  406285:	c3                   	retq   

0000000000406286 <_push>:
  406286:	55                   	push   %rbp
  406287:	48 89 e5             	mov    %rsp,%rbp
  40628a:	48 83 ec 10          	sub    $0x10,%rsp
  40628e:	48 89 7d f8          	mov    %rdi,-0x8(%rbp)
  406292:	48 8b 45 f8          	mov    -0x8(%rbp),%rax
  406296:	48 89 c2             	mov    %rax,%rdx
  406299:	be cc e3 40 00       	mov    $0x40e3cc,%esi
  40629e:	bf 80 48 41 00       	mov    $0x414880,%edi
  4062a3:	b8 00 00 00 00       	mov    $0x0,%eax
  4062a8:	e8 03 ce ff ff       	callq  4030b0 <sprintf@plt>
  4062ad:	90                   	nop
  4062ae:	c9                   	leaveq 
  4062af:	c3                   	retq   

00000000004062b0 <_pull>:
  4062b0:	55                   	push   %rbp
  4062b1:	48 89 e5             	mov    %rsp,%rbp
  4062b4:	48 83 ec 10          	sub    $0x10,%rsp
  4062b8:	48 89 7d f8          	mov    %rdi,-0x8(%rbp)
  4062bc:	48 8b 45 f8          	mov    -0x8(%rbp),%rax
  4062c0:	ba 80 48 41 00       	mov    $0x414880,%edx
  4062c5:	be cc e3 40 00       	mov    $0x40e3cc,%esi
  4062ca:	48 89 c7             	mov    %rax,%rdi
  4062cd:	b8 00 00 00 00       	mov    $0x0,%eax
  4062d2:	e8 d9 cd ff ff       	callq  4030b0 <sprintf@plt>
  4062d7:	90                   	nop
  4062d8:	c9                   	leaveq 
  4062d9:	c3                   	retq   

00000000004062da <_open_mc>:
  4062da:	55                   	push   %rbp
  4062db:	48 89 e5             	mov    %rsp,%rbp
  4062de:	c7 05 18 e6 00 00 01 	movl   $0x1,0xe618(%rip)        # 414900 <_openMultiComment>
  4062e5:	00 00 00 
  4062e8:	90                   	nop
  4062e9:	5d                   	pop    %rbp
  4062ea:	c3                   	retq   

00000000004062eb <_close_mc>:
  4062eb:	55                   	push   %rbp
  4062ec:	48 89 e5             	mov    %rsp,%rbp
  4062ef:	c7 05 07 e6 00 00 00 	movl   $0x0,0xe607(%rip)        # 414900 <_openMultiComment>
  4062f6:	00 00 00 
  4062f9:	90                   	nop
  4062fa:	5d                   	pop    %rbp
  4062fb:	c3                   	retq   

00000000004062fc <_scope_ano>:
  4062fc:	55                   	push   %rbp
  4062fd:	48 89 e5             	mov    %rsp,%rbp
  406300:	53                   	push   %rbx
  406301:	48 83 ec 58          	sub    $0x58,%rsp
  406305:	48 89 7d a8          	mov    %rdi,-0x58(%rbp)
  406309:	48 8d 45 d0          	lea    -0x30(%rbp),%rax
  40630d:	48 8b 55 a8          	mov    -0x58(%rbp),%rdx
  406311:	48 89 d6             	mov    %rdx,%rsi
  406314:	48 89 c7             	mov    %rax,%rdi
  406317:	e8 63 08 00 00       	callq  406b7f <_ZNSt7__cxx119to_stringEl>
  40631c:	48 8d 45 b0          	lea    -0x50(%rbp),%rax
  406320:	48 8d 55 d0          	lea    -0x30(%rbp),%rdx
  406324:	be cf e3 40 00       	mov    $0x40e3cf,%esi
  406329:	48 89 c7             	mov    %rax,%rdi
  40632c:	e8 66 0a 00 00       	callq  406d97 <_ZStplIcSt11char_traitsIcESaIcEENSt7__cxx1112basic_stringIT_T0_T1_EEPKS5_OS8_>
  406331:	48 8d 45 b0          	lea    -0x50(%rbp),%rax
  406335:	48 89 c6             	mov    %rax,%rsi
  406338:	bf 50 46 41 00       	mov    $0x414650,%edi
  40633d:	e8 62 0b 00 00       	callq  406ea4 <_ZNSt6vectorINSt7__cxx1112basic_stringIcSt11char_traitsIcESaIcEEESaIS5_EE12emplace_backIJS5_EEEvDpOT_>
  406342:	48 8d 45 b0          	lea    -0x50(%rbp),%rax
  406346:	48 89 c7             	mov    %rax,%rdi
  406349:	e8 42 ce ff ff       	callq  403190 <_ZNSt7__cxx1112basic_stringIcSt11char_traitsIcESaIcEED1Ev@plt>
  40634e:	48 8d 45 d0          	lea    -0x30(%rbp),%rax
  406352:	48 89 c7             	mov    %rax,%rdi
  406355:	e8 36 ce ff ff       	callq  403190 <_ZNSt7__cxx1112basic_stringIcSt11char_traitsIcESaIcEED1Ev@plt>
  40635a:	eb 2b                	jmp    406387 <_scope_ano+0x8b>
  40635c:	48 89 c3             	mov    %rax,%rbx
  40635f:	48 8d 45 b0          	lea    -0x50(%rbp),%rax
  406363:	48 89 c7             	mov    %rax,%rdi
  406366:	e8 25 ce ff ff       	callq  403190 <_ZNSt7__cxx1112basic_stringIcSt11char_traitsIcESaIcEED1Ev@plt>
  40636b:	eb 03                	jmp    406370 <_scope_ano+0x74>
  40636d:	48 89 c3             	mov    %rax,%rbx
  406370:	48 8d 45 d0          	lea    -0x30(%rbp),%rax
  406374:	48 89 c7             	mov    %rax,%rdi
  406377:	e8 14 ce ff ff       	callq  403190 <_ZNSt7__cxx1112basic_stringIcSt11char_traitsIcESaIcEED1Ev@plt>
  40637c:	48 89 d8             	mov    %rbx,%rax
  40637f:	48 89 c7             	mov    %rax,%rdi
  406382:	e8 e9 d0 ff ff       	callq  403470 <_Unwind_Resume@plt>
  406387:	48 83 c4 58          	add    $0x58,%rsp
  40638b:	5b                   	pop    %rbx
  40638c:	5d                   	pop    %rbp
  40638d:	c3                   	retq   

000000000040638e <_scope_begin>:
  40638e:	55                   	push   %rbp
  40638f:	48 89 e5             	mov    %rsp,%rbp
  406392:	53                   	push   %rbx
  406393:	48 83 ec 48          	sub    $0x48,%rsp
  406397:	48 89 7d b8          	mov    %rdi,-0x48(%rbp)
  40639b:	48 8d 45 ef          	lea    -0x11(%rbp),%rax
  40639f:	48 89 c7             	mov    %rax,%rdi
  4063a2:	e8 d9 d0 ff ff       	callq  403480 <_ZNSaIcEC1Ev@plt>
  4063a7:	48 8d 55 ef          	lea    -0x11(%rbp),%rdx
  4063ab:	48 8b 4d b8          	mov    -0x48(%rbp),%rcx
  4063af:	48 8d 45 c0          	lea    -0x40(%rbp),%rax
  4063b3:	48 89 ce             	mov    %rcx,%rsi
  4063b6:	48 89 c7             	mov    %rax,%rdi
  4063b9:	e8 a2 cf ff ff       	callq  403360 <_ZNSt7__cxx1112basic_stringIcSt11char_traitsIcESaIcEEC1EPKcRKS3_@plt>
  4063be:	48 8d 45 c0          	lea    -0x40(%rbp),%rax
  4063c2:	48 89 c6             	mov    %rax,%rsi
  4063c5:	bf 50 46 41 00       	mov    $0x414650,%edi
  4063ca:	e8 d5 0a 00 00       	callq  406ea4 <_ZNSt6vectorINSt7__cxx1112basic_stringIcSt11char_traitsIcESaIcEEESaIS5_EE12emplace_backIJS5_EEEvDpOT_>
  4063cf:	48 8d 45 c0          	lea    -0x40(%rbp),%rax
  4063d3:	48 89 c7             	mov    %rax,%rdi
  4063d6:	e8 b5 cd ff ff       	callq  403190 <_ZNSt7__cxx1112basic_stringIcSt11char_traitsIcESaIcEED1Ev@plt>
  4063db:	48 8d 45 ef          	lea    -0x11(%rbp),%rax
  4063df:	48 89 c7             	mov    %rax,%rdi
  4063e2:	e8 e9 ce ff ff       	callq  4032d0 <_ZNSaIcED1Ev@plt>
  4063e7:	eb 2b                	jmp    406414 <_scope_begin+0x86>
  4063e9:	48 89 c3             	mov    %rax,%rbx
  4063ec:	48 8d 45 c0          	lea    -0x40(%rbp),%rax
  4063f0:	48 89 c7             	mov    %rax,%rdi
  4063f3:	e8 98 cd ff ff       	callq  403190 <_ZNSt7__cxx1112basic_stringIcSt11char_traitsIcESaIcEED1Ev@plt>
  4063f8:	eb 03                	jmp    4063fd <_scope_begin+0x6f>
  4063fa:	48 89 c3             	mov    %rax,%rbx
  4063fd:	48 8d 45 ef          	lea    -0x11(%rbp),%rax
  406401:	48 89 c7             	mov    %rax,%rdi
  406404:	e8 c7 ce ff ff       	callq  4032d0 <_ZNSaIcED1Ev@plt>
  406409:	48 89 d8             	mov    %rbx,%rax
  40640c:	48 89 c7             	mov    %rax,%rdi
  40640f:	e8 5c d0 ff ff       	callq  403470 <_Unwind_Resume@plt>
  406414:	48 83 c4 48          	add    $0x48,%rsp
  406418:	5b                   	pop    %rbx
  406419:	5d                   	pop    %rbp
  40641a:	c3                   	retq   

000000000040641b <_scope_end>:
  40641b:	55                   	push   %rbp
  40641c:	48 89 e5             	mov    %rsp,%rbp
  40641f:	53                   	push   %rbx
  406420:	48 81 ec 88 00 00 00 	sub    $0x88,%rsp
  406427:	48 89 bd 78 ff ff ff 	mov    %rdi,-0x88(%rbp)
  40642e:	be db e3 40 00       	mov    $0x40e3db,%esi
  406433:	bf e0 42 41 00       	mov    $0x4142e0,%edi
  406438:	e8 33 ce ff ff       	callq  403270 <_ZStlsISt11char_traitsIcEERSt13basic_ostreamIcT_ES5_PKc@plt>
  40643d:	48 c7 45 e8 50 46 41 	movq   $0x414650,-0x18(%rbp)
  406444:	00 
  406445:	48 8b 45 e8          	mov    -0x18(%rbp),%rax
  406449:	48 89 c7             	mov    %rax,%rdi
  40644c:	e8 ed 0a 00 00       	callq  406f3e <_ZNSt6vectorINSt7__cxx1112basic_stringIcSt11char_traitsIcESaIcEEESaIS5_EE5beginEv>
  406451:	48 89 45 88          	mov    %rax,-0x78(%rbp)
  406455:	48 8b 45 e8          	mov    -0x18(%rbp),%rax
  406459:	48 89 c7             	mov    %rax,%rdi
  40645c:	e8 03 0b 00 00       	callq  406f64 <_ZNSt6vectorINSt7__cxx1112basic_stringIcSt11char_traitsIcESaIcEEESaIS5_EE3endEv>
  406461:	48 89 45 80          	mov    %rax,-0x80(%rbp)
  406465:	48 8d 55 80          	lea    -0x80(%rbp),%rdx
  406469:	48 8d 45 88          	lea    -0x78(%rbp),%rax
  40646d:	48 89 d6             	mov    %rdx,%rsi
  406470:	48 89 c7             	mov    %rax,%rdi
  406473:	e8 15 0b 00 00       	callq  406f8d <_ZN9__gnu_cxxneIPNSt7__cxx1112basic_stringIcSt11char_traitsIcESaIcEEESt6vectorIS6_SaIS6_EEEEbRKNS_17__normal_iteratorIT_T0_EESG_>
  406478:	84 c0                	test   %al,%al
  40647a:	74 3c                	je     4064b8 <_scope_end+0x9d>
  40647c:	48 8d 45 88          	lea    -0x78(%rbp),%rax
  406480:	48 89 c7             	mov    %rax,%rdi
  406483:	e8 62 0b 00 00       	callq  406fea <_ZNK9__gnu_cxx17__normal_iteratorIPNSt7__cxx1112basic_stringIcSt11char_traitsIcESaIcEEESt6vectorIS6_SaIS6_EEEdeEv>
  406488:	48 89 45 e0          	mov    %rax,-0x20(%rbp)
  40648c:	48 8b 45 e0          	mov    -0x20(%rbp),%rax
  406490:	48 89 c6             	mov    %rax,%rsi
  406493:	bf e0 42 41 00       	mov    $0x4142e0,%edi
  406498:	e8 b3 cd ff ff       	callq  403250 <_ZStlsIcSt11char_traitsIcESaIcEERSt13basic_ostreamIT_T0_ES7_RKNSt7__cxx1112basic_stringIS4_S5_T1_EE@plt>
  40649d:	be e5 e3 40 00       	mov    $0x40e3e5,%esi
  4064a2:	48 89 c7             	mov    %rax,%rdi
  4064a5:	e8 c6 cd ff ff       	callq  403270 <_ZStlsISt11char_traitsIcEERSt13basic_ostreamIcT_ES5_PKc@plt>
  4064aa:	48 8d 45 88          	lea    -0x78(%rbp),%rax
  4064ae:	48 89 c7             	mov    %rax,%rdi
  4064b1:	e8 14 0b 00 00       	callq  406fca <_ZN9__gnu_cxx17__normal_iteratorIPNSt7__cxx1112basic_stringIcSt11char_traitsIcESaIcEEESt6vectorIS6_SaIS6_EEEppEv>
  4064b6:	eb ad                	jmp    406465 <_scope_end+0x4a>
  4064b8:	be 50 31 40 00       	mov    $0x403150,%esi
  4064bd:	bf e0 42 41 00       	mov    $0x4142e0,%edi
  4064c2:	e8 d9 cd ff ff       	callq  4032a0 <_ZNSolsEPFRSoS_E@plt>
  4064c7:	bf 50 46 41 00       	mov    $0x414650,%edi
  4064cc:	e8 6d 09 00 00       	callq  406e3e <_ZNSt6vectorINSt7__cxx1112basic_stringIcSt11char_traitsIcESaIcEEESaIS5_EE4backEv>
  4064d1:	48 89 c2             	mov    %rax,%rdx
  4064d4:	48 8d 45 90          	lea    -0x70(%rbp),%rax
  4064d8:	48 89 d6             	mov    %rdx,%rsi
  4064db:	48 89 c7             	mov    %rax,%rdi
  4064de:	e8 4d cc ff ff       	callq  403130 <_ZNSt7__cxx1112basic_stringIcSt11char_traitsIcESaIcEEC1ERKS4_@plt>
  4064e3:	48 83 bd 78 ff ff ff 	cmpq   $0x0,-0x88(%rbp)
  4064ea:	00 
  4064eb:	74 2c                	je     406519 <_scope_end+0xfe>
  4064ed:	48 8d 45 90          	lea    -0x70(%rbp),%rax
  4064f1:	48 89 c7             	mov    %rax,%rdi
  4064f4:	e8 27 cc ff ff       	callq  403120 <_ZNKSt7__cxx1112basic_stringIcSt11char_traitsIcESaIcEE5c_strEv@plt>
  4064f9:	48 89 c2             	mov    %rax,%rdx
  4064fc:	48 8b 85 78 ff ff ff 	mov    -0x88(%rbp),%rax
  406503:	48 89 c6             	mov    %rax,%rsi
  406506:	48 89 d7             	mov    %rdx,%rdi
  406509:	e8 72 ce ff ff       	callq  403380 <strcmp@plt>
  40650e:	85 c0                	test   %eax,%eax
  406510:	74 07                	je     406519 <_scope_end+0xfe>
  406512:	b8 01 00 00 00       	mov    $0x1,%eax
  406517:	eb 05                	jmp    40651e <_scope_end+0x103>
  406519:	b8 00 00 00 00       	mov    $0x0,%eax
  40651e:	84 c0                	test   %al,%al
  406520:	0f 84 a2 00 00 00    	je     4065c8 <_scope_end+0x1ad>
  406526:	be e7 e3 40 00       	mov    $0x40e3e7,%esi
  40652b:	bf 20 44 41 00       	mov    $0x414420,%edi
  406530:	e8 3b cd ff ff       	callq  403270 <_ZStlsISt11char_traitsIcEERSt13basic_ostreamIcT_ES5_PKc@plt>
  406535:	48 89 c3             	mov    %rax,%rbx
  406538:	48 8d 45 df          	lea    -0x21(%rbp),%rax
  40653c:	48 89 c7             	mov    %rax,%rdi
  40653f:	e8 3c cf ff ff       	callq  403480 <_ZNSaIcEC1Ev@plt>
  406544:	48 8d 55 df          	lea    -0x21(%rbp),%rdx
  406548:	48 8b 8d 78 ff ff ff 	mov    -0x88(%rbp),%rcx
  40654f:	48 8d 45 b0          	lea    -0x50(%rbp),%rax
  406553:	48 89 ce             	mov    %rcx,%rsi
  406556:	48 89 c7             	mov    %rax,%rdi
  406559:	e8 02 ce ff ff       	callq  403360 <_ZNSt7__cxx1112basic_stringIcSt11char_traitsIcESaIcEEC1EPKcRKS3_@plt>
  40655e:	48 8d 45 b0          	lea    -0x50(%rbp),%rax
  406562:	48 89 c6             	mov    %rax,%rsi
  406565:	48 89 df             	mov    %rbx,%rdi
  406568:	e8 e3 cc ff ff       	callq  403250 <_ZStlsIcSt11char_traitsIcESaIcEERSt13basic_ostreamIT_T0_ES7_RKNSt7__cxx1112basic_stringIS4_S5_T1_EE@plt>
  40656d:	be fe e3 40 00       	mov    $0x40e3fe,%esi
  406572:	48 89 c7             	mov    %rax,%rdi
  406575:	e8 f6 cc ff ff       	callq  403270 <_ZStlsISt11char_traitsIcEERSt13basic_ostreamIcT_ES5_PKc@plt>
  40657a:	48 89 c2             	mov    %rax,%rdx
  40657d:	48 8d 45 90          	lea    -0x70(%rbp),%rax
  406581:	48 89 c6             	mov    %rax,%rsi
  406584:	48 89 d7             	mov    %rdx,%rdi
  406587:	e8 c4 cc ff ff       	callq  403250 <_ZStlsIcSt11char_traitsIcESaIcEERSt13basic_ostreamIT_T0_ES7_RKNSt7__cxx1112basic_stringIS4_S5_T1_EE@plt>
  40658c:	be 0a e4 40 00       	mov    $0x40e40a,%esi
  406591:	48 89 c7             	mov    %rax,%rdi
  406594:	e8 d7 cc ff ff       	callq  403270 <_ZStlsISt11char_traitsIcEERSt13basic_ostreamIcT_ES5_PKc@plt>
  406599:	be 50 31 40 00       	mov    $0x403150,%esi
  40659e:	48 89 c7             	mov    %rax,%rdi
  4065a1:	e8 fa cc ff ff       	callq  4032a0 <_ZNSolsEPFRSoS_E@plt>
  4065a6:	48 8d 45 b0          	lea    -0x50(%rbp),%rax
  4065aa:	48 89 c7             	mov    %rax,%rdi
  4065ad:	e8 de cb ff ff       	callq  403190 <_ZNSt7__cxx1112basic_stringIcSt11char_traitsIcESaIcEED1Ev@plt>
  4065b2:	48 8d 45 df          	lea    -0x21(%rbp),%rax
  4065b6:	48 89 c7             	mov    %rax,%rdi
  4065b9:	e8 12 cd ff ff       	callq  4032d0 <_ZNSaIcED1Ev@plt>
  4065be:	bf 01 00 00 00       	mov    $0x1,%edi
  4065c3:	e8 48 cd ff ff       	callq  403310 <exit@plt>
  4065c8:	bf 50 46 41 00       	mov    $0x414650,%edi
  4065cd:	e8 2a 0a 00 00       	callq  406ffc <_ZNSt6vectorINSt7__cxx1112basic_stringIcSt11char_traitsIcESaIcEEESaIS5_EE8pop_backEv>
  4065d2:	48 8d 45 90          	lea    -0x70(%rbp),%rax
  4065d6:	48 89 c7             	mov    %rax,%rdi
  4065d9:	e8 b2 cb ff ff       	callq  403190 <_ZNSt7__cxx1112basic_stringIcSt11char_traitsIcESaIcEED1Ev@plt>
  4065de:	eb 3c                	jmp    40661c <_scope_end+0x201>
  4065e0:	48 89 c3             	mov    %rax,%rbx
  4065e3:	48 8d 45 b0          	lea    -0x50(%rbp),%rax
  4065e7:	48 89 c7             	mov    %rax,%rdi
  4065ea:	e8 a1 cb ff ff       	callq  403190 <_ZNSt7__cxx1112basic_stringIcSt11char_traitsIcESaIcEED1Ev@plt>
  4065ef:	eb 03                	jmp    4065f4 <_scope_end+0x1d9>
  4065f1:	48 89 c3             	mov    %rax,%rbx
  4065f4:	48 8d 45 df          	lea    -0x21(%rbp),%rax
  4065f8:	48 89 c7             	mov    %rax,%rdi
  4065fb:	e8 d0 cc ff ff       	callq  4032d0 <_ZNSaIcED1Ev@plt>
  406600:	eb 03                	jmp    406605 <_scope_end+0x1ea>
  406602:	48 89 c3             	mov    %rax,%rbx
  406605:	48 8d 45 90          	lea    -0x70(%rbp),%rax
  406609:	48 89 c7             	mov    %rax,%rdi
  40660c:	e8 7f cb ff ff       	callq  403190 <_ZNSt7__cxx1112basic_stringIcSt11char_traitsIcESaIcEED1Ev@plt>
  406611:	48 89 d8             	mov    %rbx,%rax
  406614:	48 89 c7             	mov    %rax,%rdi
  406617:	e8 54 ce ff ff       	callq  403470 <_Unwind_Resume@plt>
  40661c:	48 81 c4 88 00 00 00 	add    $0x88,%rsp
  406623:	5b                   	pop    %rbx
  406624:	5d                   	pop    %rbp
  406625:	c3                   	retq   

0000000000406626 <_if>:
  406626:	55                   	push   %rbp
  406627:	48 89 e5             	mov    %rsp,%rbp
  40662a:	bf 0d e4 40 00       	mov    $0x40e40d,%edi
  40662f:	e8 ba fb ff ff       	callq  4061ee <_Z7declarePKc>
  406634:	90                   	nop
  406635:	5d                   	pop    %rbp
  406636:	c3                   	retq   

0000000000406637 <_elif>:
  406637:	55                   	push   %rbp
  406638:	48 89 e5             	mov    %rsp,%rbp
  40663b:	bf 10 e4 40 00       	mov    $0x40e410,%edi
  406640:	e8 a9 fb ff ff       	callq  4061ee <_Z7declarePKc>
  406645:	90                   	nop
  406646:	5d                   	pop    %rbp
  406647:	c3                   	retq   

0000000000406648 <_else>:
  406648:	55                   	push   %rbp
  406649:	48 89 e5             	mov    %rsp,%rbp
  40664c:	bf 15 e4 40 00       	mov    $0x40e415,%edi
  406651:	e8 98 fb ff ff       	callq  4061ee <_Z7declarePKc>
  406656:	90                   	nop
  406657:	5d                   	pop    %rbp
  406658:	c3                   	retq   

0000000000406659 <_def>:
  406659:	55                   	push   %rbp
  40665a:	48 89 e5             	mov    %rsp,%rbp
  40665d:	53                   	push   %rbx
  40665e:	48 83 ec 38          	sub    $0x38,%rsp
  406662:	48 89 7d c8          	mov    %rdi,-0x38(%rbp)
  406666:	48 8b 45 c8          	mov    -0x38(%rbp),%rax
  40666a:	48 89 c6             	mov    %rax,%rsi
  40666d:	bf 1a e4 40 00       	mov    $0x40e41a,%edi
  406672:	e8 9c fb ff ff       	callq  406213 <_Z7declarePKcS0_>
  406677:	48 8d 45 d0          	lea    -0x30(%rbp),%rax
  40667b:	48 89 c7             	mov    %rax,%rdi
  40667e:	e8 de fa ff ff       	callq  406161 <_Z8getScopeB5cxx11v>
  406683:	48 8b 05 7e df 00 00 	mov    0xdf7e(%rip),%rax        # 414608 <lea_line>
  40668a:	48 8b 4d c8          	mov    -0x38(%rbp),%rcx
  40668e:	48 8d 55 d0          	lea    -0x30(%rbp),%rdx
  406692:	41 b8 00 00 00 00    	mov    $0x0,%r8d
  406698:	48 89 c6             	mov    %rax,%rsi
  40669b:	bf a0 45 41 00       	mov    $0x4145a0,%edi
  4066a0:	e8 7d 2a 00 00       	callq  409122 <_ZN11SymbolTable7addFuncElRKNSt7__cxx1112basic_stringIcSt11char_traitsIcESaIcEEEPc14FunctionAction>
  4066a5:	48 8d 45 d0          	lea    -0x30(%rbp),%rax
  4066a9:	48 89 c7             	mov    %rax,%rdi
  4066ac:	e8 df ca ff ff       	callq  403190 <_ZNSt7__cxx1112basic_stringIcSt11char_traitsIcESaIcEED1Ev@plt>
  4066b1:	eb 1a                	jmp    4066cd <_def+0x74>
  4066b3:	48 89 c3             	mov    %rax,%rbx
  4066b6:	48 8d 45 d0          	lea    -0x30(%rbp),%rax
  4066ba:	48 89 c7             	mov    %rax,%rdi
  4066bd:	e8 ce ca ff ff       	callq  403190 <_ZNSt7__cxx1112basic_stringIcSt11char_traitsIcESaIcEED1Ev@plt>
  4066c2:	48 89 d8             	mov    %rbx,%rax
  4066c5:	48 89 c7             	mov    %rax,%rdi
  4066c8:	e8 a3 cd ff ff       	callq  403470 <_Unwind_Resume@plt>
  4066cd:	48 83 c4 38          	add    $0x38,%rsp
  4066d1:	5b                   	pop    %rbx
  4066d2:	5d                   	pop    %rbp
  4066d3:	c3                   	retq   

00000000004066d4 <_block>:
  4066d4:	55                   	push   %rbp
  4066d5:	48 89 e5             	mov    %rsp,%rbp
  4066d8:	bf 1e e4 40 00       	mov    $0x40e41e,%edi
  4066dd:	e8 0c fb ff ff       	callq  4061ee <_Z7declarePKc>
  4066e2:	90                   	nop
  4066e3:	5d                   	pop    %rbp
  4066e4:	c3                   	retq   

00000000004066e5 <_block_>:
  4066e5:	55                   	push   %rbp
  4066e6:	48 89 e5             	mov    %rsp,%rbp
  4066e9:	bf 25 e4 40 00       	mov    $0x40e425,%edi
  4066ee:	e8 fb fa ff ff       	callq  4061ee <_Z7declarePKc>
  4066f3:	90                   	nop
  4066f4:	5d                   	pop    %rbp
  4066f5:	c3                   	retq   

00000000004066f6 <_add_arg>:
  4066f6:	55                   	push   %rbp
  4066f7:	48 89 e5             	mov    %rsp,%rbp
  4066fa:	48 83 ec 10          	sub    $0x10,%rsp
  4066fe:	c7 45 fc 01 00 00 00 	movl   $0x1,-0x4(%rbp)
  406705:	48 8d 45 fc          	lea    -0x4(%rbp),%rax
  406709:	48 89 c6             	mov    %rax,%rsi
  40670c:	bf 10 49 41 00       	mov    $0x414910,%edi
  406711:	e8 3c 09 00 00       	callq  407052 <_ZNSt6vectorIiSaIiEE12emplace_backIJiEEEvDpOT_>
  406716:	90                   	nop
  406717:	c9                   	leaveq 
  406718:	c3                   	retq   

0000000000406719 <_call>:
  406719:	55                   	push   %rbp
  40671a:	48 89 e5             	mov    %rsp,%rbp
  40671d:	53                   	push   %rbx
  40671e:	48 81 ec 48 02 00 00 	sub    $0x248,%rsp
  406725:	89 bd bc fd ff ff    	mov    %edi,-0x244(%rbp)
  40672b:	8b 05 cf e1 00 00    	mov    0xe1cf(%rip),%eax        # 414900 <_openMultiComment>
  406731:	85 c0                	test   %eax,%eax
  406733:	0f 85 ab 00 00 00    	jne    4067e4 <_call+0xcb>
  406739:	bf 10 49 41 00       	mov    $0x414910,%edi
  40673e:	e8 a9 09 00 00       	callq  4070ec <_ZNKSt6vectorIiSaIiEE4sizeEv>
  406743:	48 89 c2             	mov    %rax,%rdx
  406746:	48 8d 45 c8          	lea    -0x38(%rbp),%rax
  40674a:	be 2c e4 40 00       	mov    $0x40e42c,%esi
  40674f:	48 89 c7             	mov    %rax,%rdi
  406752:	b8 00 00 00 00       	mov    $0x0,%eax
  406757:	e8 54 c9 ff ff       	callq  4030b0 <sprintf@plt>
  40675c:	bf 10 49 41 00       	mov    $0x414910,%edi
  406761:	e8 aa 09 00 00       	callq  407110 <_ZNSt6vectorIiSaIiEE5clearEv>
  406766:	48 8d 85 c0 fd ff ff 	lea    -0x240(%rbp),%rax
  40676d:	48 89 c7             	mov    %rax,%rdi
  406770:	e8 3b fb ff ff       	callq  4062b0 <_pull>
  406775:	48 8d 95 c0 fd ff ff 	lea    -0x240(%rbp),%rdx
  40677c:	48 8d 45 c8          	lea    -0x38(%rbp),%rax
  406780:	48 89 d6             	mov    %rdx,%rsi
  406783:	48 89 c7             	mov    %rax,%rdi
  406786:	e8 88 fa ff ff       	callq  406213 <_Z7declarePKcS0_>
  40678b:	48 8d 45 d0          	lea    -0x30(%rbp),%rax
  40678f:	48 89 c7             	mov    %rax,%rdi
  406792:	e8 ca f9 ff ff       	callq  406161 <_Z8getScopeB5cxx11v>
  406797:	48 8b 05 6a de 00 00 	mov    0xde6a(%rip),%rax        # 414608 <lea_line>
  40679e:	48 8d 8d c0 fd ff ff 	lea    -0x240(%rbp),%rcx
  4067a5:	48 8d 55 d0          	lea    -0x30(%rbp),%rdx
  4067a9:	41 b8 01 00 00 00    	mov    $0x1,%r8d
  4067af:	48 89 c6             	mov    %rax,%rsi
  4067b2:	bf a0 45 41 00       	mov    $0x4145a0,%edi
  4067b7:	e8 66 29 00 00       	callq  409122 <_ZN11SymbolTable7addFuncElRKNSt7__cxx1112basic_stringIcSt11char_traitsIcESaIcEEEPc14FunctionAction>
  4067bc:	48 8d 45 d0          	lea    -0x30(%rbp),%rax
  4067c0:	48 89 c7             	mov    %rax,%rdi
  4067c3:	e8 c8 c9 ff ff       	callq  403190 <_ZNSt7__cxx1112basic_stringIcSt11char_traitsIcESaIcEED1Ev@plt>
  4067c8:	eb 1b                	jmp    4067e5 <_call+0xcc>
  4067ca:	48 89 c3             	mov    %rax,%rbx
  4067cd:	48 8d 45 d0          	lea    -0x30(%rbp),%rax
  4067d1:	48 89 c7             	mov    %rax,%rdi
  4067d4:	e8 b7 c9 ff ff       	callq  403190 <_ZNSt7__cxx1112basic_stringIcSt11char_traitsIcESaIcEED1Ev@plt>
  4067d9:	48 89 d8             	mov    %rbx,%rax
  4067dc:	48 89 c7             	mov    %rax,%rdi
  4067df:	e8 8c cc ff ff       	callq  403470 <_Unwind_Resume@plt>
  4067e4:	90                   	nop
  4067e5:	48 81 c4 48 02 00 00 	add    $0x248,%rsp
  4067ec:	5b                   	pop    %rbx
  4067ed:	5d                   	pop    %rbp
  4067ee:	c3                   	retq   

00000000004067ef <_var_def>:
  4067ef:	55                   	push   %rbp
  4067f0:	48 89 e5             	mov    %rsp,%rbp
  4067f3:	53                   	push   %rbx
  4067f4:	48 81 ec 38 02 00 00 	sub    $0x238,%rsp
  4067fb:	48 89 bd c8 fd ff ff 	mov    %rdi,-0x238(%rbp)
  406802:	48 8d 85 d0 fd ff ff 	lea    -0x230(%rbp),%rax
  406809:	48 89 c7             	mov    %rax,%rdi
  40680c:	e8 9f fa ff ff       	callq  4062b0 <_pull>
  406811:	48 8d 85 d0 fd ff ff 	lea    -0x230(%rbp),%rax
  406818:	48 89 c6             	mov    %rax,%rsi
  40681b:	bf 35 e4 40 00       	mov    $0x40e435,%edi
  406820:	e8 ee f9 ff ff       	callq  406213 <_Z7declarePKcS0_>
  406825:	48 8d 45 d0          	lea    -0x30(%rbp),%rax
  406829:	48 89 c7             	mov    %rax,%rdi
  40682c:	e8 30 f9 ff ff       	callq  406161 <_Z8getScopeB5cxx11v>
  406831:	48 8b 05 d0 dd 00 00 	mov    0xddd0(%rip),%rax        # 414608 <lea_line>
  406838:	48 8d 8d d0 fd ff ff 	lea    -0x230(%rbp),%rcx
  40683f:	48 8d 55 d0          	lea    -0x30(%rbp),%rdx
  406843:	41 b8 3a e4 40 00    	mov    $0x40e43a,%r8d
  406849:	48 89 c6             	mov    %rax,%rsi
  40684c:	bf a0 45 41 00       	mov    $0x4145a0,%edi
  406851:	e8 fc 25 00 00       	callq  408e52 <_ZN11SymbolTable6addVarElRKNSt7__cxx1112basic_stringIcSt11char_traitsIcESaIcEEEPcS8_>
  406856:	48 8d 45 d0          	lea    -0x30(%rbp),%rax
  40685a:	48 89 c7             	mov    %rax,%rdi
  40685d:	e8 2e c9 ff ff       	callq  403190 <_ZNSt7__cxx1112basic_stringIcSt11char_traitsIcESaIcEED1Ev@plt>
  406862:	eb 1a                	jmp    40687e <_var_def+0x8f>
  406864:	48 89 c3             	mov    %rax,%rbx
  406867:	48 8d 45 d0          	lea    -0x30(%rbp),%rax
  40686b:	48 89 c7             	mov    %rax,%rdi
  40686e:	e8 1d c9 ff ff       	callq  403190 <_ZNSt7__cxx1112basic_stringIcSt11char_traitsIcESaIcEED1Ev@plt>
  406873:	48 89 d8             	mov    %rbx,%rax
  406876:	48 89 c7             	mov    %rax,%rdi
  406879:	e8 f2 cb ff ff       	callq  403470 <_Unwind_Resume@plt>
  40687e:	48 81 c4 38 02 00 00 	add    $0x238,%rsp
  406885:	5b                   	pop    %rbx
  406886:	5d                   	pop    %rbp
  406887:	c3                   	retq   

0000000000406888 <_var_ass>:
  406888:	55                   	push   %rbp
  406889:	48 89 e5             	mov    %rsp,%rbp
  40688c:	53                   	push   %rbx
  40688d:	48 81 ec 38 02 00 00 	sub    $0x238,%rsp
  406894:	48 89 bd c8 fd ff ff 	mov    %rdi,-0x238(%rbp)
  40689b:	48 8d 85 d0 fd ff ff 	lea    -0x230(%rbp),%rax
  4068a2:	48 89 c7             	mov    %rax,%rdi
  4068a5:	e8 06 fa ff ff       	callq  4062b0 <_pull>
  4068aa:	48 8d 85 d0 fd ff ff 	lea    -0x230(%rbp),%rax
  4068b1:	48 89 c6             	mov    %rax,%rsi
  4068b4:	bf 3b e4 40 00       	mov    $0x40e43b,%edi
  4068b9:	e8 55 f9 ff ff       	callq  406213 <_Z7declarePKcS0_>
  4068be:	48 8d 45 d0          	lea    -0x30(%rbp),%rax
  4068c2:	48 89 c7             	mov    %rax,%rdi
  4068c5:	e8 97 f8 ff ff       	callq  406161 <_Z8getScopeB5cxx11v>
  4068ca:	48 8b 05 37 dd 00 00 	mov    0xdd37(%rip),%rax        # 414608 <lea_line>
  4068d1:	48 8d 8d d0 fd ff ff 	lea    -0x230(%rbp),%rcx
  4068d8:	48 8d 55 d0          	lea    -0x30(%rbp),%rdx
  4068dc:	41 b8 3a e4 40 00    	mov    $0x40e43a,%r8d
  4068e2:	48 89 c6             	mov    %rax,%rsi
  4068e5:	bf a0 45 41 00       	mov    $0x4145a0,%edi
  4068ea:	e8 63 25 00 00       	callq  408e52 <_ZN11SymbolTable6addVarElRKNSt7__cxx1112basic_stringIcSt11char_traitsIcESaIcEEEPcS8_>
  4068ef:	48 8d 45 d0          	lea    -0x30(%rbp),%rax
  4068f3:	48 89 c7             	mov    %rax,%rdi
  4068f6:	e8 95 c8 ff ff       	callq  403190 <_ZNSt7__cxx1112basic_stringIcSt11char_traitsIcESaIcEED1Ev@plt>
  4068fb:	eb 1a                	jmp    406917 <_var_ass+0x8f>
  4068fd:	48 89 c3             	mov    %rax,%rbx
  406900:	48 8d 45 d0          	lea    -0x30(%rbp),%rax
  406904:	48 89 c7             	mov    %rax,%rdi
  406907:	e8 84 c8 ff ff       	callq  403190 <_ZNSt7__cxx1112basic_stringIcSt11char_traitsIcESaIcEED1Ev@plt>
  40690c:	48 89 d8             	mov    %rbx,%rax
  40690f:	48 89 c7             	mov    %rax,%rdi
  406912:	e8 59 cb ff ff       	callq  403470 <_Unwind_Resume@plt>
  406917:	48 81 c4 38 02 00 00 	add    $0x238,%rsp
  40691e:	5b                   	pop    %rbx
  40691f:	5d                   	pop    %rbp
  406920:	c3                   	retq   

0000000000406921 <_var_def_ass>:
  406921:	55                   	push   %rbp
  406922:	48 89 e5             	mov    %rsp,%rbp
  406925:	53                   	push   %rbx
  406926:	48 81 ec 38 02 00 00 	sub    $0x238,%rsp
  40692d:	48 89 bd c8 fd ff ff 	mov    %rdi,-0x238(%rbp)
  406934:	48 8d 85 d0 fd ff ff 	lea    -0x230(%rbp),%rax
  40693b:	48 89 c7             	mov    %rax,%rdi
  40693e:	e8 6d f9 ff ff       	callq  4062b0 <_pull>
  406943:	48 8d 85 d0 fd ff ff 	lea    -0x230(%rbp),%rax
  40694a:	48 89 c6             	mov    %rax,%rsi
  40694d:	bf 40 e4 40 00       	mov    $0x40e440,%edi
  406952:	e8 bc f8 ff ff       	callq  406213 <_Z7declarePKcS0_>
  406957:	48 8d 45 d0          	lea    -0x30(%rbp),%rax
  40695b:	48 89 c7             	mov    %rax,%rdi
  40695e:	e8 fe f7 ff ff       	callq  406161 <_Z8getScopeB5cxx11v>
  406963:	48 8b 05 9e dc 00 00 	mov    0xdc9e(%rip),%rax        # 414608 <lea_line>
  40696a:	48 8d 8d d0 fd ff ff 	lea    -0x230(%rbp),%rcx
  406971:	48 8d 55 d0          	lea    -0x30(%rbp),%rdx
  406975:	41 b8 3a e4 40 00    	mov    $0x40e43a,%r8d
  40697b:	48 89 c6             	mov    %rax,%rsi
  40697e:	bf a0 45 41 00       	mov    $0x4145a0,%edi
  406983:	e8 ca 24 00 00       	callq  408e52 <_ZN11SymbolTable6addVarElRKNSt7__cxx1112basic_stringIcSt11char_traitsIcESaIcEEEPcS8_>
  406988:	48 8d 45 d0          	lea    -0x30(%rbp),%rax
  40698c:	48 89 c7             	mov    %rax,%rdi
  40698f:	e8 fc c7 ff ff       	callq  403190 <_ZNSt7__cxx1112basic_stringIcSt11char_traitsIcESaIcEED1Ev@plt>
  406994:	eb 1a                	jmp    4069b0 <_var_def_ass+0x8f>
  406996:	48 89 c3             	mov    %rax,%rbx
  406999:	48 8d 45 d0          	lea    -0x30(%rbp),%rax
  40699d:	48 89 c7             	mov    %rax,%rdi
  4069a0:	e8 eb c7 ff ff       	callq  403190 <_ZNSt7__cxx1112basic_stringIcSt11char_traitsIcESaIcEED1Ev@plt>
  4069a5:	48 89 d8             	mov    %rbx,%rax
  4069a8:	48 89 c7             	mov    %rax,%rdi
  4069ab:	e8 c0 ca ff ff       	callq  403470 <_Unwind_Resume@plt>
  4069b0:	48 81 c4 38 02 00 00 	add    $0x238,%rsp
  4069b7:	5b                   	pop    %rbx
  4069b8:	5d                   	pop    %rbp
  4069b9:	c3                   	retq   

00000000004069ba <_for>:
  4069ba:	55                   	push   %rbp
  4069bb:	48 89 e5             	mov    %rsp,%rbp
  4069be:	bf 46 e4 40 00       	mov    $0x40e446,%edi
  4069c3:	e8 26 f8 ff ff       	callq  4061ee <_Z7declarePKc>
  4069c8:	90                   	nop
  4069c9:	5d                   	pop    %rbp
  4069ca:	c3                   	retq   

00000000004069cb <_match>:
  4069cb:	55                   	push   %rbp
  4069cc:	48 89 e5             	mov    %rsp,%rbp
  4069cf:	bf 4a e4 40 00       	mov    $0x40e44a,%edi
  4069d4:	e8 15 f8 ff ff       	callq  4061ee <_Z7declarePKc>
  4069d9:	90                   	nop
  4069da:	5d                   	pop    %rbp
  4069db:	c3                   	retq   

00000000004069dc <_case>:
  4069dc:	55                   	push   %rbp
  4069dd:	48 89 e5             	mov    %rsp,%rbp
  4069e0:	bf 50 e4 40 00       	mov    $0x40e450,%edi
  4069e5:	e8 04 f8 ff ff       	callq  4061ee <_Z7declarePKc>
  4069ea:	90                   	nop
  4069eb:	5d                   	pop    %rbp
  4069ec:	c3                   	retq   

00000000004069ed <printf_empty>:
  4069ed:	55                   	push   %rbp
  4069ee:	48 89 e5             	mov    %rsp,%rbp
  4069f1:	48 83 ec 48          	sub    $0x48,%rsp
  4069f5:	48 89 bd 48 ff ff ff 	mov    %rdi,-0xb8(%rbp)
  4069fc:	48 89 b5 58 ff ff ff 	mov    %rsi,-0xa8(%rbp)
  406a03:	48 89 95 60 ff ff ff 	mov    %rdx,-0xa0(%rbp)
  406a0a:	48 89 8d 68 ff ff ff 	mov    %rcx,-0x98(%rbp)
  406a11:	4c 89 85 70 ff ff ff 	mov    %r8,-0x90(%rbp)
  406a18:	4c 89 8d 78 ff ff ff 	mov    %r9,-0x88(%rbp)
  406a1f:	84 c0                	test   %al,%al
  406a21:	74 20                	je     406a43 <printf_empty+0x56>
  406a23:	0f 29 45 80          	movaps %xmm0,-0x80(%rbp)
  406a27:	0f 29 4d 90          	movaps %xmm1,-0x70(%rbp)
  406a2b:	0f 29 55 a0          	movaps %xmm2,-0x60(%rbp)
  406a2f:	0f 29 5d b0          	movaps %xmm3,-0x50(%rbp)
  406a33:	0f 29 65 c0          	movaps %xmm4,-0x40(%rbp)
  406a37:	0f 29 6d d0          	movaps %xmm5,-0x30(%rbp)
  406a3b:	0f 29 75 e0          	movaps %xmm6,-0x20(%rbp)
  406a3f:	0f 29 7d f0          	movaps %xmm7,-0x10(%rbp)
  406a43:	90                   	nop
  406a44:	c9                   	leaveq 
  406a45:	c3                   	retq   

0000000000406a46 <clean>:
  406a46:	55                   	push   %rbp
  406a47:	48 89 e5             	mov    %rsp,%rbp
  406a4a:	90                   	nop
  406a4b:	5d                   	pop    %rbp
  406a4c:	c3                   	retq   

0000000000406a4d <complete>:
  406a4d:	55                   	push   %rbp
  406a4e:	48 89 e5             	mov    %rsp,%rbp
  406a51:	bf a0 45 41 00       	mov    $0x4145a0,%edi
  406a56:	e8 4b 2b 00 00       	callq  4095a6 <_ZN11SymbolTable4showEv>
  406a5b:	90                   	nop
  406a5c:	5d                   	pop    %rbp
  406a5d:	c3                   	retq   

0000000000406a5e <_Z41__static_initialization_and_destruction_0ii>:
  406a5e:	55                   	push   %rbp
  406a5f:	48 89 e5             	mov    %rsp,%rbp
  406a62:	48 83 ec 10          	sub    $0x10,%rsp
  406a66:	89 7d fc             	mov    %edi,-0x4(%rbp)
  406a69:	89 75 f8             	mov    %esi,-0x8(%rbp)
  406a6c:	83 7d fc 01          	cmpl   $0x1,-0x4(%rbp)
  406a70:	0f 85 81 00 00 00    	jne    406af7 <_Z41__static_initialization_and_destruction_0ii+0x99>
  406a76:	81 7d f8 ff ff 00 00 	cmpl   $0xffff,-0x8(%rbp)
  406a7d:	75 78                	jne    406af7 <_Z41__static_initialization_and_destruction_0ii+0x99>
  406a7f:	bf 28 49 41 00       	mov    $0x414928,%edi
  406a84:	e8 47 c9 ff ff       	callq  4033d0 <_ZNSt8ios_base4InitC1Ev@plt>
  406a89:	ba 90 42 41 00       	mov    $0x414290,%edx
  406a8e:	be 28 49 41 00       	mov    $0x414928,%esi
  406a93:	bf 00 35 40 00       	mov    $0x403500,%edi
  406a98:	e8 a3 c7 ff ff       	callq  403240 <__cxa_atexit@plt>
  406a9d:	bf a0 45 41 00       	mov    $0x4145a0,%edi
  406aa2:	e8 6f 23 00 00       	callq  408e16 <_ZN11SymbolTableC1Ev>
  406aa7:	ba 90 42 41 00       	mov    $0x414290,%edx
  406aac:	be a0 45 41 00       	mov    $0x4145a0,%esi
  406ab1:	bf 20 8a 40 00       	mov    $0x408a20,%edi
  406ab6:	e8 85 c7 ff ff       	callq  403240 <__cxa_atexit@plt>
  406abb:	bf 50 46 41 00       	mov    $0x414650,%edi
  406ac0:	e8 1b 03 00 00       	callq  406de0 <_ZNSt6vectorINSt7__cxx1112basic_stringIcSt11char_traitsIcESaIcEEESaIS5_EEC1Ev>
  406ac5:	ba 90 42 41 00       	mov    $0x414290,%edx
  406aca:	be 50 46 41 00       	mov    $0x414650,%esi
  406acf:	bf b2 8a 40 00       	mov    $0x408ab2,%edi
  406ad4:	e8 67 c7 ff ff       	callq  403240 <__cxa_atexit@plt>
  406ad9:	bf 10 49 41 00       	mov    $0x414910,%edi
  406ade:	e8 53 05 00 00       	callq  407036 <_ZNSt6vectorIiSaIiEEC1Ev>
  406ae3:	ba 90 42 41 00       	mov    $0x414290,%edx
  406ae8:	be 10 49 41 00       	mov    $0x414910,%esi
  406aed:	bf f6 8a 40 00       	mov    $0x408af6,%edi
  406af2:	e8 49 c7 ff ff       	callq  403240 <__cxa_atexit@plt>
  406af7:	90                   	nop
  406af8:	c9                   	leaveq 
  406af9:	c3                   	retq   

0000000000406afa <_GLOBAL__sub_I_symbolTable>:
  406afa:	55                   	push   %rbp
  406afb:	48 89 e5             	mov    %rsp,%rbp
  406afe:	be ff ff 00 00       	mov    $0xffff,%esi
  406b03:	bf 01 00 00 00       	mov    $0x1,%edi
  406b08:	e8 51 ff ff ff       	callq  406a5e <_Z41__static_initialization_and_destruction_0ii>
  406b0d:	5d                   	pop    %rbp
  406b0e:	c3                   	retq   

0000000000406b0f <_ZnwmPv>:
  406b0f:	55                   	push   %rbp
  406b10:	48 89 e5             	mov    %rsp,%rbp
  406b13:	48 89 7d f8          	mov    %rdi,-0x8(%rbp)
  406b17:	48 89 75 f0          	mov    %rsi,-0x10(%rbp)
  406b1b:	48 8b 45 f0          	mov    -0x10(%rbp),%rax
  406b1f:	5d                   	pop    %rbp
  406b20:	c3                   	retq   

0000000000406b21 <_ZL20__gthread_mutex_lockP15pthread_mutex_t>:
  406b21:	55                   	push   %rbp
  406b22:	48 89 e5             	mov    %rsp,%rbp
  406b25:	48 83 ec 10          	sub    $0x10,%rsp
  406b29:	48 89 7d f8          	mov    %rdi,-0x8(%rbp)
  406b2d:	e8 19 f6 ff ff       	callq  40614b <_ZL18__gthread_active_pv>
  406b32:	85 c0                	test   %eax,%eax
  406b34:	0f 95 c0             	setne  %al
  406b37:	84 c0                	test   %al,%al
  406b39:	74 0e                	je     406b49 <_ZL20__gthread_mutex_lockP15pthread_mutex_t+0x28>
  406b3b:	48 8b 45 f8          	mov    -0x8(%rbp),%rax
  406b3f:	48 89 c7             	mov    %rax,%rdi
  406b42:	e8 69 c8 ff ff       	callq  4033b0 <pthread_mutex_lock@plt>
  406b47:	eb 05                	jmp    406b4e <_ZL20__gthread_mutex_lockP15pthread_mutex_t+0x2d>
  406b49:	b8 00 00 00 00       	mov    $0x0,%eax
  406b4e:	c9                   	leaveq 
  406b4f:	c3                   	retq   

0000000000406b50 <_ZL22__gthread_mutex_unlockP15pthread_mutex_t>:
  406b50:	55                   	push   %rbp
  406b51:	48 89 e5             	mov    %rsp,%rbp
  406b54:	48 83 ec 10          	sub    $0x10,%rsp
  406b58:	48 89 7d f8          	mov    %rdi,-0x8(%rbp)
  406b5c:	e8 ea f5 ff ff       	callq  40614b <_ZL18__gthread_active_pv>
  406b61:	85 c0                	test   %eax,%eax
  406b63:	0f 95 c0             	setne  %al
  406b66:	84 c0                	test   %al,%al
  406b68:	74 0e                	je     406b78 <_ZL22__gthread_mutex_unlockP15pthread_mutex_t+0x28>
  406b6a:	48 8b 45 f8          	mov    -0x8(%rbp),%rax
  406b6e:	48 89 c7             	mov    %rax,%rdi
  406b71:	e8 8a c6 ff ff       	callq  403200 <pthread_mutex_unlock@plt>
  406b76:	eb 05                	jmp    406b7d <_ZL22__gthread_mutex_unlockP15pthread_mutex_t+0x2d>
  406b78:	b8 00 00 00 00       	mov    $0x0,%eax
  406b7d:	c9                   	leaveq 
  406b7e:	c3                   	retq   

0000000000406b7f <_ZNSt7__cxx119to_stringEl>:
  406b7f:	55                   	push   %rbp
  406b80:	48 89 e5             	mov    %rsp,%rbp
  406b83:	48 83 ec 10          	sub    $0x10,%rsp
  406b87:	48 89 7d f8          	mov    %rdi,-0x8(%rbp)
  406b8b:	48 89 75 f0          	mov    %rsi,-0x10(%rbp)
  406b8f:	48 8b 45 f8          	mov    -0x8(%rbp),%rax
  406b93:	48 8b 55 f0          	mov    -0x10(%rbp),%rdx
  406b97:	49 89 d0             	mov    %rdx,%r8
  406b9a:	b9 a9 e3 40 00       	mov    $0x40e3a9,%ecx
  406b9f:	ba 20 00 00 00       	mov    $0x20,%edx
  406ba4:	be a0 31 40 00       	mov    $0x4031a0,%esi
  406ba9:	48 89 c7             	mov    %rax,%rdi
  406bac:	b8 00 00 00 00       	mov    $0x0,%eax
  406bb1:	e8 4f 00 00 00       	callq  406c05 <_ZN9__gnu_cxx12__to_xstringINSt7__cxx1112basic_stringIcSt11char_traitsIcESaIcEEEcEET_PFiPT0_mPKS8_P13__va_list_tagEmSB_z>
  406bb6:	48 8b 45 f8          	mov    -0x8(%rbp),%rax
  406bba:	c9                   	leaveq 
  406bbb:	c3                   	retq   

0000000000406bbc <_ZNSt5mutex4lockEv>:
  406bbc:	55                   	push   %rbp
  406bbd:	48 89 e5             	mov    %rsp,%rbp
  406bc0:	48 83 ec 20          	sub    $0x20,%rsp
  406bc4:	48 89 7d e8          	mov    %rdi,-0x18(%rbp)
  406bc8:	48 8b 45 e8          	mov    -0x18(%rbp),%rax
  406bcc:	48 89 c7             	mov    %rax,%rdi
  406bcf:	e8 4d ff ff ff       	callq  406b21 <_ZL20__gthread_mutex_lockP15pthread_mutex_t>
  406bd4:	89 45 fc             	mov    %eax,-0x4(%rbp)
  406bd7:	83 7d fc 00          	cmpl   $0x0,-0x4(%rbp)
  406bdb:	74 0a                	je     406be7 <_ZNSt5mutex4lockEv+0x2b>
  406bdd:	8b 45 fc             	mov    -0x4(%rbp),%eax
  406be0:	89 c7                	mov    %eax,%edi
  406be2:	e8 c9 c5 ff ff       	callq  4031b0 <_ZSt20__throw_system_errori@plt>
  406be7:	90                   	nop
  406be8:	c9                   	leaveq 
  406be9:	c3                   	retq   

0000000000406bea <_ZNSt5mutex6unlockEv>:
  406bea:	55                   	push   %rbp
  406beb:	48 89 e5             	mov    %rsp,%rbp
  406bee:	48 83 ec 10          	sub    $0x10,%rsp
  406bf2:	48 89 7d f8          	mov    %rdi,-0x8(%rbp)
  406bf6:	48 8b 45 f8          	mov    -0x8(%rbp),%rax
  406bfa:	48 89 c7             	mov    %rax,%rdi
  406bfd:	e8 4e ff ff ff       	callq  406b50 <_ZL22__gthread_mutex_unlockP15pthread_mutex_t>
  406c02:	90                   	nop
  406c03:	c9                   	leaveq 
  406c04:	c3                   	retq   

0000000000406c05 <_ZN9__gnu_cxx12__to_xstringINSt7__cxx1112basic_stringIcSt11char_traitsIcESaIcEEEcEET_PFiPT0_mPKS8_P13__va_list_tagEmSB_z>:
  406c05:	55                   	push   %rbp
  406c06:	48 89 e5             	mov    %rsp,%rbp
  406c09:	53                   	push   %rbx
  406c0a:	48 81 ec 08 01 00 00 	sub    $0x108,%rsp
  406c11:	48 89 bd 08 ff ff ff 	mov    %rdi,-0xf8(%rbp)
  406c18:	48 89 b5 00 ff ff ff 	mov    %rsi,-0x100(%rbp)
  406c1f:	48 89 95 f8 fe ff ff 	mov    %rdx,-0x108(%rbp)
  406c26:	48 89 8d f0 fe ff ff 	mov    %rcx,-0x110(%rbp)
  406c2d:	4c 89 85 60 ff ff ff 	mov    %r8,-0xa0(%rbp)
  406c34:	4c 89 8d 68 ff ff ff 	mov    %r9,-0x98(%rbp)
  406c3b:	84 c0                	test   %al,%al
  406c3d:	74 23                	je     406c62 <_ZN9__gnu_cxx12__to_xstringINSt7__cxx1112basic_stringIcSt11char_traitsIcESaIcEEEcEET_PFiPT0_mPKS8_P13__va_list_tagEmSB_z+0x5d>
  406c3f:	0f 29 85 70 ff ff ff 	movaps %xmm0,-0x90(%rbp)
  406c46:	0f 29 4d 80          	movaps %xmm1,-0x80(%rbp)
  406c4a:	0f 29 55 90          	movaps %xmm2,-0x70(%rbp)
  406c4e:	0f 29 5d a0          	movaps %xmm3,-0x60(%rbp)
  406c52:	0f 29 65 b0          	movaps %xmm4,-0x50(%rbp)
  406c56:	0f 29 6d c0          	movaps %xmm5,-0x40(%rbp)
  406c5a:	0f 29 75 d0          	movaps %xmm6,-0x30(%rbp)
  406c5e:	0f 29 7d e0          	movaps %xmm7,-0x20(%rbp)
  406c62:	48 8b 85 f8 fe ff ff 	mov    -0x108(%rbp),%rax
  406c69:	48 8d 50 08          	lea    0x8(%rax),%rdx
  406c6d:	b8 10 00 00 00       	mov    $0x10,%eax
  406c72:	48 83 e8 01          	sub    $0x1,%rax
  406c76:	48 01 d0             	add    %rdx,%rax
  406c79:	bb 10 00 00 00       	mov    $0x10,%ebx
  406c7e:	ba 00 00 00 00       	mov    $0x0,%edx
  406c83:	48 f7 f3             	div    %rbx
  406c86:	48 6b c0 10          	imul   $0x10,%rax,%rax
  406c8a:	48 29 c4             	sub    %rax,%rsp
  406c8d:	48 89 e0             	mov    %rsp,%rax
  406c90:	48 83 c0 0f          	add    $0xf,%rax
  406c94:	48 c1 e8 04          	shr    $0x4,%rax
  406c98:	48 c1 e0 04          	shl    $0x4,%rax
  406c9c:	48 89 85 38 ff ff ff 	mov    %rax,-0xc8(%rbp)
  406ca3:	c7 85 18 ff ff ff 20 	movl   $0x20,-0xe8(%rbp)
  406caa:	00 00 00 
  406cad:	c7 85 1c ff ff ff 30 	movl   $0x30,-0xe4(%rbp)
  406cb4:	00 00 00 
  406cb7:	48 8d 45 10          	lea    0x10(%rbp),%rax
  406cbb:	48 89 85 20 ff ff ff 	mov    %rax,-0xe0(%rbp)
  406cc2:	48 8d 85 40 ff ff ff 	lea    -0xc0(%rbp),%rax
  406cc9:	48 89 85 28 ff ff ff 	mov    %rax,-0xd8(%rbp)
  406cd0:	48 8d 8d 18 ff ff ff 	lea    -0xe8(%rbp),%rcx
  406cd7:	48 8b 95 f0 fe ff ff 	mov    -0x110(%rbp),%rdx
  406cde:	48 8b b5 f8 fe ff ff 	mov    -0x108(%rbp),%rsi
  406ce5:	48 8b bd 38 ff ff ff 	mov    -0xc8(%rbp),%rdi
  406cec:	48 8b 85 00 ff ff ff 	mov    -0x100(%rbp),%rax
  406cf3:	ff d0                	callq  *%rax
  406cf5:	89 85 34 ff ff ff    	mov    %eax,-0xcc(%rbp)
  406cfb:	48 8d 85 33 ff ff ff 	lea    -0xcd(%rbp),%rax
  406d02:	48 89 c7             	mov    %rax,%rdi
  406d05:	e8 76 c7 ff ff       	callq  403480 <_ZNSaIcEC1Ev@plt>
  406d0a:	8b 85 34 ff ff ff    	mov    -0xcc(%rbp),%eax
  406d10:	48 63 d0             	movslq %eax,%rdx
  406d13:	48 8b 85 38 ff ff ff 	mov    -0xc8(%rbp),%rax
  406d1a:	48 8d 3c 02          	lea    (%rdx,%rax,1),%rdi
  406d1e:	48 8d 95 33 ff ff ff 	lea    -0xcd(%rbp),%rdx
  406d25:	48 8b b5 38 ff ff ff 	mov    -0xc8(%rbp),%rsi
  406d2c:	48 8b 85 08 ff ff ff 	mov    -0xf8(%rbp),%rax
  406d33:	48 89 d1             	mov    %rdx,%rcx
  406d36:	48 89 fa             	mov    %rdi,%rdx
  406d39:	48 89 c7             	mov    %rax,%rdi
  406d3c:	e8 f5 03 00 00       	callq  407136 <_ZNSt7__cxx1112basic_stringIcSt11char_traitsIcESaIcEEC1IPcvEET_S7_RKS3_>
  406d41:	48 8d 85 33 ff ff ff 	lea    -0xcd(%rbp),%rax
  406d48:	48 89 c7             	mov    %rax,%rdi
  406d4b:	e8 80 c5 ff ff       	callq  4032d0 <_ZNSaIcED1Ev@plt>
  406d50:	eb 1d                	jmp    406d6f <_ZN9__gnu_cxx12__to_xstringINSt7__cxx1112basic_stringIcSt11char_traitsIcESaIcEEEcEET_PFiPT0_mPKS8_P13__va_list_tagEmSB_z+0x16a>
  406d52:	48 89 c3             	mov    %rax,%rbx
  406d55:	48 8d 85 33 ff ff ff 	lea    -0xcd(%rbp),%rax
  406d5c:	48 89 c7             	mov    %rax,%rdi
  406d5f:	e8 6c c5 ff ff       	callq  4032d0 <_ZNSaIcED1Ev@plt>
  406d64:	48 89 d8             	mov    %rbx,%rax
  406d67:	48 89 c7             	mov    %rax,%rdi
  406d6a:	e8 01 c7 ff ff       	callq  403470 <_Unwind_Resume@plt>
  406d6f:	48 8b 85 08 ff ff ff 	mov    -0xf8(%rbp),%rax
  406d76:	48 8b 5d f8          	mov    -0x8(%rbp),%rbx
  406d7a:	c9                   	leaveq 
  406d7b:	c3                   	retq   

0000000000406d7c <_ZNSt7__cxx1112basic_stringIcSt11char_traitsIcESaIcEE12_Alloc_hiderD1Ev>:
  406d7c:	55                   	push   %rbp
  406d7d:	48 89 e5             	mov    %rsp,%rbp
  406d80:	48 83 ec 10          	sub    $0x10,%rsp
  406d84:	48 89 7d f8          	mov    %rdi,-0x8(%rbp)
  406d88:	48 8b 45 f8          	mov    -0x8(%rbp),%rax
  406d8c:	48 89 c7             	mov    %rax,%rdi
  406d8f:	e8 fc c2 ff ff       	callq  403090 <_ZNSaIcED2Ev@plt>
  406d94:	90                   	nop
  406d95:	c9                   	leaveq 
  406d96:	c3                   	retq   

0000000000406d97 <_ZStplIcSt11char_traitsIcESaIcEENSt7__cxx1112basic_stringIT_T0_T1_EEPKS5_OS8_>:
  406d97:	55                   	push   %rbp
  406d98:	48 89 e5             	mov    %rsp,%rbp
  406d9b:	48 83 ec 20          	sub    $0x20,%rsp
  406d9f:	48 89 7d f8          	mov    %rdi,-0x8(%rbp)
  406da3:	48 89 75 f0          	mov    %rsi,-0x10(%rbp)
  406da7:	48 89 55 e8          	mov    %rdx,-0x18(%rbp)
  406dab:	48 8b 55 f0          	mov    -0x10(%rbp),%rdx
  406daf:	48 8b 45 e8          	mov    -0x18(%rbp),%rax
  406db3:	be 00 00 00 00       	mov    $0x0,%esi
  406db8:	48 89 c7             	mov    %rax,%rdi
  406dbb:	e8 00 c3 ff ff       	callq  4030c0 <_ZNSt7__cxx1112basic_stringIcSt11char_traitsIcESaIcEE6insertEmPKc@plt>
  406dc0:	48 89 c7             	mov    %rax,%rdi
  406dc3:	e8 e6 03 00 00       	callq  4071ae <_ZSt4moveIRNSt7__cxx1112basic_stringIcSt11char_traitsIcESaIcEEEEONSt16remove_referenceIT_E4typeEOS8_>
  406dc8:	48 89 c2             	mov    %rax,%rdx
  406dcb:	48 8b 45 f8          	mov    -0x8(%rbp),%rax
  406dcf:	48 89 d6             	mov    %rdx,%rsi
  406dd2:	48 89 c7             	mov    %rax,%rdi
  406dd5:	e8 a6 c3 ff ff       	callq  403180 <_ZNSt7__cxx1112basic_stringIcSt11char_traitsIcESaIcEEC1EOS4_@plt>
  406dda:	48 8b 45 f8          	mov    -0x8(%rbp),%rax
  406dde:	c9                   	leaveq 
  406ddf:	c3                   	retq   

0000000000406de0 <_ZNSt6vectorINSt7__cxx1112basic_stringIcSt11char_traitsIcESaIcEEESaIS5_EEC1Ev>:
  406de0:	55                   	push   %rbp
  406de1:	48 89 e5             	mov    %rsp,%rbp
  406de4:	48 83 ec 10          	sub    $0x10,%rsp
  406de8:	48 89 7d f8          	mov    %rdi,-0x8(%rbp)
  406dec:	48 8b 45 f8          	mov    -0x8(%rbp),%rax
  406df0:	48 89 c7             	mov    %rax,%rdi
  406df3:	e8 e0 03 00 00       	callq  4071d8 <_ZNSt12_Vector_baseINSt7__cxx1112basic_stringIcSt11char_traitsIcESaIcEEESaIS5_EEC1Ev>
  406df8:	90                   	nop
  406df9:	c9                   	leaveq 
  406dfa:	c3                   	retq   
  406dfb:	90                   	nop

0000000000406dfc <_ZNKSt6vectorINSt7__cxx1112basic_stringIcSt11char_traitsIcESaIcEEESaIS5_EE5emptyEv>:
  406dfc:	55                   	push   %rbp
  406dfd:	48 89 e5             	mov    %rsp,%rbp
  406e00:	48 83 ec 20          	sub    $0x20,%rsp
  406e04:	48 89 7d e8          	mov    %rdi,-0x18(%rbp)
  406e08:	48 8b 45 e8          	mov    -0x18(%rbp),%rax
  406e0c:	48 89 c7             	mov    %rax,%rdi
  406e0f:	e8 5e 04 00 00       	callq  407272 <_ZNKSt6vectorINSt7__cxx1112basic_stringIcSt11char_traitsIcESaIcEEESaIS5_EE3endEv>
  406e14:	48 89 45 f0          	mov    %rax,-0x10(%rbp)
  406e18:	48 8b 45 e8          	mov    -0x18(%rbp),%rax
  406e1c:	48 89 c7             	mov    %rax,%rdi
  406e1f:	e8 1e 04 00 00       	callq  407242 <_ZNKSt6vectorINSt7__cxx1112basic_stringIcSt11char_traitsIcESaIcEEESaIS5_EE5beginEv>
  406e24:	48 89 45 f8          	mov    %rax,-0x8(%rbp)
  406e28:	48 8d 55 f0          	lea    -0x10(%rbp),%rdx
  406e2c:	48 8d 45 f8          	lea    -0x8(%rbp),%rax
  406e30:	48 89 d6             	mov    %rdx,%rsi
  406e33:	48 89 c7             	mov    %rax,%rdi
  406e36:	e8 68 04 00 00       	callq  4072a3 <_ZN9__gnu_cxxeqIPKNSt7__cxx1112basic_stringIcSt11char_traitsIcESaIcEEESt6vectorIS6_SaIS6_EEEEbRKNS_17__normal_iteratorIT_T0_EESH_>
  406e3b:	90                   	nop
  406e3c:	c9                   	leaveq 
  406e3d:	c3                   	retq   

0000000000406e3e <_ZNSt6vectorINSt7__cxx1112basic_stringIcSt11char_traitsIcESaIcEEESaIS5_EE4backEv>:
  406e3e:	55                   	push   %rbp
  406e3f:	48 89 e5             	mov    %rsp,%rbp
  406e42:	48 83 ec 20          	sub    $0x20,%rsp
  406e46:	48 89 7d e8          	mov    %rdi,-0x18(%rbp)
  406e4a:	48 8b 45 e8          	mov    -0x18(%rbp),%rax
  406e4e:	48 89 c7             	mov    %rax,%rdi
  406e51:	e8 0e 01 00 00       	callq  406f64 <_ZNSt6vectorINSt7__cxx1112basic_stringIcSt11char_traitsIcESaIcEEESaIS5_EE3endEv>
  406e56:	48 89 45 f8          	mov    %rax,-0x8(%rbp)
  406e5a:	48 8d 45 f8          	lea    -0x8(%rbp),%rax
  406e5e:	be 01 00 00 00       	mov    $0x1,%esi
  406e63:	48 89 c7             	mov    %rax,%rdi
  406e66:	e8 75 04 00 00       	callq  4072e0 <_ZNK9__gnu_cxx17__normal_iteratorIPNSt7__cxx1112basic_stringIcSt11char_traitsIcESaIcEEESt6vectorIS6_SaIS6_EEEmiEl>
  406e6b:	48 89 45 f0          	mov    %rax,-0x10(%rbp)
  406e6f:	48 8d 45 f0          	lea    -0x10(%rbp),%rax
  406e73:	48 89 c7             	mov    %rax,%rdi
  406e76:	e8 6f 01 00 00       	callq  406fea <_ZNK9__gnu_cxx17__normal_iteratorIPNSt7__cxx1112basic_stringIcSt11char_traitsIcESaIcEEESt6vectorIS6_SaIS6_EEEdeEv>
  406e7b:	90                   	nop
  406e7c:	c9                   	leaveq 
  406e7d:	c3                   	retq   

0000000000406e7e <_ZNSt6vectorINSt7__cxx1112basic_stringIcSt11char_traitsIcESaIcEEESaIS5_EE5clearEv>:
  406e7e:	55                   	push   %rbp
  406e7f:	48 89 e5             	mov    %rsp,%rbp
  406e82:	48 83 ec 10          	sub    $0x10,%rsp
  406e86:	48 89 7d f8          	mov    %rdi,-0x8(%rbp)
  406e8a:	48 8b 45 f8          	mov    -0x8(%rbp),%rax
  406e8e:	48 8b 10             	mov    (%rax),%rdx
  406e91:	48 8b 45 f8          	mov    -0x8(%rbp),%rax
  406e95:	48 89 d6             	mov    %rdx,%rsi
  406e98:	48 89 c7             	mov    %rax,%rdi
  406e9b:	e8 b0 04 00 00       	callq  407350 <_ZNSt6vectorINSt7__cxx1112basic_stringIcSt11char_traitsIcESaIcEEESaIS5_EE15_M_erase_at_endEPS5_>
  406ea0:	90                   	nop
  406ea1:	c9                   	leaveq 
  406ea2:	c3                   	retq   
  406ea3:	90                   	nop

0000000000406ea4 <_ZNSt6vectorINSt7__cxx1112basic_stringIcSt11char_traitsIcESaIcEEESaIS5_EE12emplace_backIJS5_EEEvDpOT_>:
  406ea4:	55                   	push   %rbp
  406ea5:	48 89 e5             	mov    %rsp,%rbp
  406ea8:	53                   	push   %rbx
  406ea9:	48 83 ec 18          	sub    $0x18,%rsp
  406ead:	48 89 7d e8          	mov    %rdi,-0x18(%rbp)
  406eb1:	48 89 75 e0          	mov    %rsi,-0x20(%rbp)
  406eb5:	48 8b 45 e8          	mov    -0x18(%rbp),%rax
  406eb9:	48 8b 50 08          	mov    0x8(%rax),%rdx
  406ebd:	48 8b 45 e8          	mov    -0x18(%rbp),%rax
  406ec1:	48 8b 40 10          	mov    0x10(%rax),%rax
  406ec5:	48 39 c2             	cmp    %rax,%rdx
  406ec8:	74 3c                	je     406f06 <_ZNSt6vectorINSt7__cxx1112basic_stringIcSt11char_traitsIcESaIcEEESaIS5_EE12emplace_backIJS5_EEEvDpOT_+0x62>
  406eca:	48 8b 45 e0          	mov    -0x20(%rbp),%rax
  406ece:	48 89 c7             	mov    %rax,%rdi
  406ed1:	e8 da 04 00 00       	callq  4073b0 <_ZSt7forwardINSt7__cxx1112basic_stringIcSt11char_traitsIcESaIcEEEEOT_RNSt16remove_referenceIS6_E4typeE>
  406ed6:	48 89 c2             	mov    %rax,%rdx
  406ed9:	48 8b 45 e8          	mov    -0x18(%rbp),%rax
  406edd:	48 8b 48 08          	mov    0x8(%rax),%rcx
  406ee1:	48 8b 45 e8          	mov    -0x18(%rbp),%rax
  406ee5:	48 89 ce             	mov    %rcx,%rsi
  406ee8:	48 89 c7             	mov    %rax,%rdi
  406eeb:	e8 ce 04 00 00       	callq  4073be <_ZNSt16allocator_traitsISaINSt7__cxx1112basic_stringIcSt11char_traitsIcESaIcEEEEE9constructIS5_JS5_EEEvRS6_PT_DpOT0_>
  406ef0:	48 8b 45 e8          	mov    -0x18(%rbp),%rax
  406ef4:	48 8b 40 08          	mov    0x8(%rax),%rax
  406ef8:	48 8d 50 20          	lea    0x20(%rax),%rdx
  406efc:	48 8b 45 e8          	mov    -0x18(%rbp),%rax
  406f00:	48 89 50 08          	mov    %rdx,0x8(%rax)
  406f04:	eb 30                	jmp    406f36 <_ZNSt6vectorINSt7__cxx1112basic_stringIcSt11char_traitsIcESaIcEEESaIS5_EE12emplace_backIJS5_EEEvDpOT_+0x92>
  406f06:	48 8b 45 e0          	mov    -0x20(%rbp),%rax
  406f0a:	48 89 c7             	mov    %rax,%rdi
  406f0d:	e8 9e 04 00 00       	callq  4073b0 <_ZSt7forwardINSt7__cxx1112basic_stringIcSt11char_traitsIcESaIcEEEEOT_RNSt16remove_referenceIS6_E4typeE>
  406f12:	48 89 c3             	mov    %rax,%rbx
  406f15:	48 8b 45 e8          	mov    -0x18(%rbp),%rax
  406f19:	48 89 c7             	mov    %rax,%rdi
  406f1c:	e8 43 00 00 00       	callq  406f64 <_ZNSt6vectorINSt7__cxx1112basic_stringIcSt11char_traitsIcESaIcEEESaIS5_EE3endEv>
  406f21:	48 89 c1             	mov    %rax,%rcx
  406f24:	48 8b 45 e8          	mov    -0x18(%rbp),%rax
  406f28:	48 89 da             	mov    %rbx,%rdx
  406f2b:	48 89 ce             	mov    %rcx,%rsi
  406f2e:	48 89 c7             	mov    %rax,%rdi
  406f31:	e8 c2 04 00 00       	callq  4073f8 <_ZNSt6vectorINSt7__cxx1112basic_stringIcSt11char_traitsIcESaIcEEESaIS5_EE17_M_realloc_insertIJS5_EEEvN9__gnu_cxx17__normal_iteratorIPS5_S7_EEDpOT_>
  406f36:	90                   	nop
  406f37:	48 83 c4 18          	add    $0x18,%rsp
  406f3b:	5b                   	pop    %rbx
  406f3c:	5d                   	pop    %rbp
  406f3d:	c3                   	retq   

0000000000406f3e <_ZNSt6vectorINSt7__cxx1112basic_stringIcSt11char_traitsIcESaIcEEESaIS5_EE5beginEv>:
  406f3e:	55                   	push   %rbp
  406f3f:	48 89 e5             	mov    %rsp,%rbp
  406f42:	48 83 ec 20          	sub    $0x20,%rsp
  406f46:	48 89 7d e8          	mov    %rdi,-0x18(%rbp)
  406f4a:	48 8b 55 e8          	mov    -0x18(%rbp),%rdx
  406f4e:	48 8d 45 f8          	lea    -0x8(%rbp),%rax
  406f52:	48 89 d6             	mov    %rdx,%rsi
  406f55:	48 89 c7             	mov    %rax,%rdi
  406f58:	e8 d7 06 00 00       	callq  407634 <_ZN9__gnu_cxx17__normal_iteratorIPNSt7__cxx1112basic_stringIcSt11char_traitsIcESaIcEEESt6vectorIS6_SaIS6_EEEC1ERKS7_>
  406f5d:	48 8b 45 f8          	mov    -0x8(%rbp),%rax
  406f61:	c9                   	leaveq 
  406f62:	c3                   	retq   
  406f63:	90                   	nop

0000000000406f64 <_ZNSt6vectorINSt7__cxx1112basic_stringIcSt11char_traitsIcESaIcEEESaIS5_EE3endEv>:
  406f64:	55                   	push   %rbp
  406f65:	48 89 e5             	mov    %rsp,%rbp
  406f68:	48 83 ec 20          	sub    $0x20,%rsp
  406f6c:	48 89 7d e8          	mov    %rdi,-0x18(%rbp)
  406f70:	48 8b 45 e8          	mov    -0x18(%rbp),%rax
  406f74:	48 8d 50 08          	lea    0x8(%rax),%rdx
  406f78:	48 8d 45 f8          	lea    -0x8(%rbp),%rax
  406f7c:	48 89 d6             	mov    %rdx,%rsi
  406f7f:	48 89 c7             	mov    %rax,%rdi
  406f82:	e8 ad 06 00 00       	callq  407634 <_ZN9__gnu_cxx17__normal_iteratorIPNSt7__cxx1112basic_stringIcSt11char_traitsIcESaIcEEESt6vectorIS6_SaIS6_EEEC1ERKS7_>
  406f87:	48 8b 45 f8          	mov    -0x8(%rbp),%rax
  406f8b:	c9                   	leaveq 
  406f8c:	c3                   	retq   

0000000000406f8d <_ZN9__gnu_cxxneIPNSt7__cxx1112basic_stringIcSt11char_traitsIcESaIcEEESt6vectorIS6_SaIS6_EEEEbRKNS_17__normal_iteratorIT_T0_EESG_>:
  406f8d:	55                   	push   %rbp
  406f8e:	48 89 e5             	mov    %rsp,%rbp
  406f91:	53                   	push   %rbx
  406f92:	48 83 ec 18          	sub    $0x18,%rsp
  406f96:	48 89 7d e8          	mov    %rdi,-0x18(%rbp)
  406f9a:	48 89 75 e0          	mov    %rsi,-0x20(%rbp)
  406f9e:	48 8b 45 e8          	mov    -0x18(%rbp),%rax
  406fa2:	48 89 c7             	mov    %rax,%rdi
  406fa5:	e8 a8 06 00 00       	callq  407652 <_ZNK9__gnu_cxx17__normal_iteratorIPNSt7__cxx1112basic_stringIcSt11char_traitsIcESaIcEEESt6vectorIS6_SaIS6_EEE4baseEv>
  406faa:	48 8b 18             	mov    (%rax),%rbx
  406fad:	48 8b 45 e0          	mov    -0x20(%rbp),%rax
  406fb1:	48 89 c7             	mov    %rax,%rdi
  406fb4:	e8 99 06 00 00       	callq  407652 <_ZNK9__gnu_cxx17__normal_iteratorIPNSt7__cxx1112basic_stringIcSt11char_traitsIcESaIcEEESt6vectorIS6_SaIS6_EEE4baseEv>
  406fb9:	48 8b 00             	mov    (%rax),%rax
  406fbc:	48 39 c3             	cmp    %rax,%rbx
  406fbf:	0f 95 c0             	setne  %al
  406fc2:	48 83 c4 18          	add    $0x18,%rsp
  406fc6:	5b                   	pop    %rbx
  406fc7:	5d                   	pop    %rbp
  406fc8:	c3                   	retq   
  406fc9:	90                   	nop

0000000000406fca <_ZN9__gnu_cxx17__normal_iteratorIPNSt7__cxx1112basic_stringIcSt11char_traitsIcESaIcEEESt6vectorIS6_SaIS6_EEEppEv>:
  406fca:	55                   	push   %rbp
  406fcb:	48 89 e5             	mov    %rsp,%rbp
  406fce:	48 89 7d f8          	mov    %rdi,-0x8(%rbp)
  406fd2:	48 8b 45 f8          	mov    -0x8(%rbp),%rax
  406fd6:	48 8b 00             	mov    (%rax),%rax
  406fd9:	48 8d 50 20          	lea    0x20(%rax),%rdx
  406fdd:	48 8b 45 f8          	mov    -0x8(%rbp),%rax
  406fe1:	48 89 10             	mov    %rdx,(%rax)
  406fe4:	48 8b 45 f8          	mov    -0x8(%rbp),%rax
  406fe8:	5d                   	pop    %rbp
  406fe9:	c3                   	retq   

0000000000406fea <_ZNK9__gnu_cxx17__normal_iteratorIPNSt7__cxx1112basic_stringIcSt11char_traitsIcESaIcEEESt6vectorIS6_SaIS6_EEEdeEv>:
  406fea:	55                   	push   %rbp
  406feb:	48 89 e5             	mov    %rsp,%rbp
  406fee:	48 89 7d f8          	mov    %rdi,-0x8(%rbp)
  406ff2:	48 8b 45 f8          	mov    -0x8(%rbp),%rax
  406ff6:	48 8b 00             	mov    (%rax),%rax
  406ff9:	5d                   	pop    %rbp
  406ffa:	c3                   	retq   
  406ffb:	90                   	nop

0000000000406ffc <_ZNSt6vectorINSt7__cxx1112basic_stringIcSt11char_traitsIcESaIcEEESaIS5_EE8pop_backEv>:
  406ffc:	55                   	push   %rbp
  406ffd:	48 89 e5             	mov    %rsp,%rbp
  407000:	48 83 ec 10          	sub    $0x10,%rsp
  407004:	48 89 7d f8          	mov    %rdi,-0x8(%rbp)
  407008:	48 8b 45 f8          	mov    -0x8(%rbp),%rax
  40700c:	48 8b 40 08          	mov    0x8(%rax),%rax
  407010:	48 8d 50 e0          	lea    -0x20(%rax),%rdx
  407014:	48 8b 45 f8          	mov    -0x8(%rbp),%rax
  407018:	48 89 50 08          	mov    %rdx,0x8(%rax)
  40701c:	48 8b 45 f8          	mov    -0x8(%rbp),%rax
  407020:	48 8b 50 08          	mov    0x8(%rax),%rdx
  407024:	48 8b 45 f8          	mov    -0x8(%rbp),%rax
  407028:	48 89 d6             	mov    %rdx,%rsi
  40702b:	48 89 c7             	mov    %rax,%rdi
  40702e:	e8 2d 06 00 00       	callq  407660 <_ZNSt16allocator_traitsISaINSt7__cxx1112basic_stringIcSt11char_traitsIcESaIcEEEEE7destroyIS5_EEvRS6_PT_>
  407033:	90                   	nop
  407034:	c9                   	leaveq 
  407035:	c3                   	retq   

0000000000407036 <_ZNSt6vectorIiSaIiEEC1Ev>:
  407036:	55                   	push   %rbp
  407037:	48 89 e5             	mov    %rsp,%rbp
  40703a:	48 83 ec 10          	sub    $0x10,%rsp
  40703e:	48 89 7d f8          	mov    %rdi,-0x8(%rbp)
  407042:	48 8b 45 f8          	mov    -0x8(%rbp),%rax
  407046:	48 89 c7             	mov    %rax,%rdi
  407049:	e8 54 06 00 00       	callq  4076a2 <_ZNSt12_Vector_baseIiSaIiEEC1Ev>
  40704e:	90                   	nop
  40704f:	c9                   	leaveq 
  407050:	c3                   	retq   
  407051:	90                   	nop

0000000000407052 <_ZNSt6vectorIiSaIiEE12emplace_backIJiEEEvDpOT_>:
  407052:	55                   	push   %rbp
  407053:	48 89 e5             	mov    %rsp,%rbp
  407056:	53                   	push   %rbx
  407057:	48 83 ec 18          	sub    $0x18,%rsp
  40705b:	48 89 7d e8          	mov    %rdi,-0x18(%rbp)
  40705f:	48 89 75 e0          	mov    %rsi,-0x20(%rbp)
  407063:	48 8b 45 e8          	mov    -0x18(%rbp),%rax
  407067:	48 8b 50 08          	mov    0x8(%rax),%rdx
  40706b:	48 8b 45 e8          	mov    -0x18(%rbp),%rax
  40706f:	48 8b 40 10          	mov    0x10(%rax),%rax
  407073:	48 39 c2             	cmp    %rax,%rdx
  407076:	74 3c                	je     4070b4 <_ZNSt6vectorIiSaIiEE12emplace_backIJiEEEvDpOT_+0x62>
  407078:	48 8b 45 e0          	mov    -0x20(%rbp),%rax
  40707c:	48 89 c7             	mov    %rax,%rdi
  40707f:	e8 87 06 00 00       	callq  40770b <_ZSt7forwardIiEOT_RNSt16remove_referenceIS0_E4typeE>
  407084:	48 89 c2             	mov    %rax,%rdx
  407087:	48 8b 45 e8          	mov    -0x18(%rbp),%rax
  40708b:	48 8b 48 08          	mov    0x8(%rax),%rcx
  40708f:	48 8b 45 e8          	mov    -0x18(%rbp),%rax
  407093:	48 89 ce             	mov    %rcx,%rsi
  407096:	48 89 c7             	mov    %rax,%rdi
  407099:	e8 7b 06 00 00       	callq  407719 <_ZNSt16allocator_traitsISaIiEE9constructIiJiEEEvRS0_PT_DpOT0_>
  40709e:	48 8b 45 e8          	mov    -0x18(%rbp),%rax
  4070a2:	48 8b 40 08          	mov    0x8(%rax),%rax
  4070a6:	48 8d 50 04          	lea    0x4(%rax),%rdx
  4070aa:	48 8b 45 e8          	mov    -0x18(%rbp),%rax
  4070ae:	48 89 50 08          	mov    %rdx,0x8(%rax)
  4070b2:	eb 30                	jmp    4070e4 <_ZNSt6vectorIiSaIiEE12emplace_backIJiEEEvDpOT_+0x92>
  4070b4:	48 8b 45 e0          	mov    -0x20(%rbp),%rax
  4070b8:	48 89 c7             	mov    %rax,%rdi
  4070bb:	e8 4b 06 00 00       	callq  40770b <_ZSt7forwardIiEOT_RNSt16remove_referenceIS0_E4typeE>
  4070c0:	48 89 c3             	mov    %rax,%rbx
  4070c3:	48 8b 45 e8          	mov    -0x18(%rbp),%rax
  4070c7:	48 89 c7             	mov    %rax,%rdi
  4070ca:	e8 83 06 00 00       	callq  407752 <_ZNSt6vectorIiSaIiEE3endEv>
  4070cf:	48 89 c1             	mov    %rax,%rcx
  4070d2:	48 8b 45 e8          	mov    -0x18(%rbp),%rax
  4070d6:	48 89 da             	mov    %rbx,%rdx
  4070d9:	48 89 ce             	mov    %rcx,%rsi
  4070dc:	48 89 c7             	mov    %rax,%rdi
  4070df:	e8 98 06 00 00       	callq  40777c <_ZNSt6vectorIiSaIiEE17_M_realloc_insertIJiEEEvN9__gnu_cxx17__normal_iteratorIPiS1_EEDpOT_>
  4070e4:	90                   	nop
  4070e5:	48 83 c4 18          	add    $0x18,%rsp
  4070e9:	5b                   	pop    %rbx
  4070ea:	5d                   	pop    %rbp
  4070eb:	c3                   	retq   

00000000004070ec <_ZNKSt6vectorIiSaIiEE4sizeEv>:
  4070ec:	55                   	push   %rbp
  4070ed:	48 89 e5             	mov    %rsp,%rbp
  4070f0:	48 89 7d f8          	mov    %rdi,-0x8(%rbp)
  4070f4:	48 8b 45 f8          	mov    -0x8(%rbp),%rax
  4070f8:	48 8b 50 08          	mov    0x8(%rax),%rdx
  4070fc:	48 8b 45 f8          	mov    -0x8(%rbp),%rax
  407100:	48 8b 00             	mov    (%rax),%rax
  407103:	48 29 c2             	sub    %rax,%rdx
  407106:	48 89 d0             	mov    %rdx,%rax
  407109:	48 c1 f8 02          	sar    $0x2,%rax
  40710d:	5d                   	pop    %rbp
  40710e:	c3                   	retq   
  40710f:	90                   	nop

0000000000407110 <_ZNSt6vectorIiSaIiEE5clearEv>:
  407110:	55                   	push   %rbp
  407111:	48 89 e5             	mov    %rsp,%rbp
  407114:	48 83 ec 10          	sub    $0x10,%rsp
  407118:	48 89 7d f8          	mov    %rdi,-0x8(%rbp)
  40711c:	48 8b 45 f8          	mov    -0x8(%rbp),%rax
  407120:	48 8b 10             	mov    (%rax),%rdx
  407123:	48 8b 45 f8          	mov    -0x8(%rbp),%rax
  407127:	48 89 d6             	mov    %rdx,%rsi
  40712a:	48 89 c7             	mov    %rax,%rdi
  40712d:	e8 8a 08 00 00       	callq  4079bc <_ZNSt6vectorIiSaIiEE15_M_erase_at_endEPi>
  407132:	90                   	nop
  407133:	c9                   	leaveq 
  407134:	c3                   	retq   
  407135:	90                   	nop

0000000000407136 <_ZNSt7__cxx1112basic_stringIcSt11char_traitsIcESaIcEEC1IPcvEET_S7_RKS3_>:
  407136:	55                   	push   %rbp
  407137:	48 89 e5             	mov    %rsp,%rbp
  40713a:	53                   	push   %rbx
  40713b:	48 83 ec 28          	sub    $0x28,%rsp
  40713f:	48 89 7d e8          	mov    %rdi,-0x18(%rbp)
  407143:	48 89 75 e0          	mov    %rsi,-0x20(%rbp)
  407147:	48 89 55 d8          	mov    %rdx,-0x28(%rbp)
  40714b:	48 89 4d d0          	mov    %rcx,-0x30(%rbp)
  40714f:	48 8b 5d e8          	mov    -0x18(%rbp),%rbx
  407153:	48 8b 45 e8          	mov    -0x18(%rbp),%rax
  407157:	48 89 c7             	mov    %rax,%rdi
  40715a:	e8 b1 c0 ff ff       	callq  403210 <_ZNSt7__cxx1112basic_stringIcSt11char_traitsIcESaIcEE13_M_local_dataEv@plt>
  40715f:	48 89 c1             	mov    %rax,%rcx
  407162:	48 8b 45 d0          	mov    -0x30(%rbp),%rax
  407166:	48 89 c2             	mov    %rax,%rdx
  407169:	48 89 ce             	mov    %rcx,%rsi
  40716c:	48 89 df             	mov    %rbx,%rdi
  40716f:	e8 3c c1 ff ff       	callq  4032b0 <_ZNSt7__cxx1112basic_stringIcSt11char_traitsIcESaIcEE12_Alloc_hiderC1EPcRKS3_@plt>
  407174:	48 8b 55 d8          	mov    -0x28(%rbp),%rdx
  407178:	48 8b 4d e0          	mov    -0x20(%rbp),%rcx
  40717c:	48 8b 45 e8          	mov    -0x18(%rbp),%rax
  407180:	48 89 ce             	mov    %rcx,%rsi
  407183:	48 89 c7             	mov    %rax,%rdi
  407186:	e8 97 01 00 00       	callq  407322 <_ZNSt7__cxx1112basic_stringIcSt11char_traitsIcESaIcEE12_M_constructIPcEEvT_S7_>
  40718b:	eb 1a                	jmp    4071a7 <_ZNSt7__cxx1112basic_stringIcSt11char_traitsIcESaIcEEC1IPcvEET_S7_RKS3_+0x71>
  40718d:	48 89 c3             	mov    %rax,%rbx
  407190:	48 8b 45 e8          	mov    -0x18(%rbp),%rax
  407194:	48 89 c7             	mov    %rax,%rdi
  407197:	e8 e0 fb ff ff       	callq  406d7c <_ZNSt7__cxx1112basic_stringIcSt11char_traitsIcESaIcEE12_Alloc_hiderD1Ev>
  40719c:	48 89 d8             	mov    %rbx,%rax
  40719f:	48 89 c7             	mov    %rax,%rdi
  4071a2:	e8 c9 c2 ff ff       	callq  403470 <_Unwind_Resume@plt>
  4071a7:	48 83 c4 28          	add    $0x28,%rsp
  4071ab:	5b                   	pop    %rbx
  4071ac:	5d                   	pop    %rbp
  4071ad:	c3                   	retq   

00000000004071ae <_ZSt4moveIRNSt7__cxx1112basic_stringIcSt11char_traitsIcESaIcEEEEONSt16remove_referenceIT_E4typeEOS8_>:
  4071ae:	55                   	push   %rbp
  4071af:	48 89 e5             	mov    %rsp,%rbp
  4071b2:	48 89 7d f8          	mov    %rdi,-0x8(%rbp)
  4071b6:	48 8b 45 f8          	mov    -0x8(%rbp),%rax
  4071ba:	5d                   	pop    %rbp
  4071bb:	c3                   	retq   

00000000004071bc <_ZNSt12_Vector_baseINSt7__cxx1112basic_stringIcSt11char_traitsIcESaIcEEESaIS5_EE12_Vector_implD1Ev>:
  4071bc:	55                   	push   %rbp
  4071bd:	48 89 e5             	mov    %rsp,%rbp
  4071c0:	48 83 ec 10          	sub    $0x10,%rsp
  4071c4:	48 89 7d f8          	mov    %rdi,-0x8(%rbp)
  4071c8:	48 8b 45 f8          	mov    -0x8(%rbp),%rax
  4071cc:	48 89 c7             	mov    %rax,%rdi
  4071cf:	e8 86 08 00 00       	callq  407a5a <_ZNSaINSt7__cxx1112basic_stringIcSt11char_traitsIcESaIcEEEED1Ev>
  4071d4:	90                   	nop
  4071d5:	c9                   	leaveq 
  4071d6:	c3                   	retq   
  4071d7:	90                   	nop

00000000004071d8 <_ZNSt12_Vector_baseINSt7__cxx1112basic_stringIcSt11char_traitsIcESaIcEEESaIS5_EEC1Ev>:
  4071d8:	55                   	push   %rbp
  4071d9:	48 89 e5             	mov    %rsp,%rbp
  4071dc:	48 83 ec 10          	sub    $0x10,%rsp
  4071e0:	48 89 7d f8          	mov    %rdi,-0x8(%rbp)
  4071e4:	48 8b 45 f8          	mov    -0x8(%rbp),%rax
  4071e8:	48 89 c7             	mov    %rax,%rdi
  4071eb:	e8 2c 08 00 00       	callq  407a1c <_ZNSt12_Vector_baseINSt7__cxx1112basic_stringIcSt11char_traitsIcESaIcEEESaIS5_EE12_Vector_implC1Ev>
  4071f0:	90                   	nop
  4071f1:	c9                   	leaveq 
  4071f2:	c3                   	retq   
  4071f3:	90                   	nop

00000000004071f4 <_ZNSt12_Vector_baseINSt7__cxx1112basic_stringIcSt11char_traitsIcESaIcEEESaIS5_EED1Ev>:
  4071f4:	55                   	push   %rbp
  4071f5:	48 89 e5             	mov    %rsp,%rbp
  4071f8:	48 83 ec 10          	sub    $0x10,%rsp
  4071fc:	48 89 7d f8          	mov    %rdi,-0x8(%rbp)
  407200:	48 8b 45 f8          	mov    -0x8(%rbp),%rax
  407204:	48 8b 50 10          	mov    0x10(%rax),%rdx
  407208:	48 8b 45 f8          	mov    -0x8(%rbp),%rax
  40720c:	48 8b 00             	mov    (%rax),%rax
  40720f:	48 29 c2             	sub    %rax,%rdx
  407212:	48 89 d0             	mov    %rdx,%rax
  407215:	48 c1 f8 05          	sar    $0x5,%rax
  407219:	48 89 c2             	mov    %rax,%rdx
  40721c:	48 8b 45 f8          	mov    -0x8(%rbp),%rax
  407220:	48 8b 08             	mov    (%rax),%rcx
  407223:	48 8b 45 f8          	mov    -0x8(%rbp),%rax
  407227:	48 89 ce             	mov    %rcx,%rsi
  40722a:	48 89 c7             	mov    %rax,%rdi
  40722d:	e8 44 08 00 00       	callq  407a76 <_ZNSt12_Vector_baseINSt7__cxx1112basic_stringIcSt11char_traitsIcESaIcEEESaIS5_EE13_M_deallocateEPS5_m>
  407232:	48 8b 45 f8          	mov    -0x8(%rbp),%rax
  407236:	48 89 c7             	mov    %rax,%rdi
  407239:	e8 7e ff ff ff       	callq  4071bc <_ZNSt12_Vector_baseINSt7__cxx1112basic_stringIcSt11char_traitsIcESaIcEEESaIS5_EE12_Vector_implD1Ev>
  40723e:	90                   	nop
  40723f:	c9                   	leaveq 
  407240:	c3                   	retq   
  407241:	90                   	nop

0000000000407242 <_ZNKSt6vectorINSt7__cxx1112basic_stringIcSt11char_traitsIcESaIcEEESaIS5_EE5beginEv>:
  407242:	55                   	push   %rbp
  407243:	48 89 e5             	mov    %rsp,%rbp
  407246:	48 83 ec 20          	sub    $0x20,%rsp
  40724a:	48 89 7d e8          	mov    %rdi,-0x18(%rbp)
  40724e:	48 8b 45 e8          	mov    -0x18(%rbp),%rax
  407252:	48 8b 00             	mov    (%rax),%rax
  407255:	48 89 45 f8          	mov    %rax,-0x8(%rbp)
  407259:	48 8d 55 f8          	lea    -0x8(%rbp),%rdx
  40725d:	48 8d 45 f0          	lea    -0x10(%rbp),%rax
  407261:	48 89 d6             	mov    %rdx,%rsi
  407264:	48 89 c7             	mov    %rax,%rdi
  407267:	e8 40 08 00 00       	callq  407aac <_ZN9__gnu_cxx17__normal_iteratorIPKNSt7__cxx1112basic_stringIcSt11char_traitsIcESaIcEEESt6vectorIS6_SaIS6_EEEC1ERKS8_>
  40726c:	48 8b 45 f0          	mov    -0x10(%rbp),%rax
  407270:	c9                   	leaveq 
  407271:	c3                   	retq   

0000000000407272 <_ZNKSt6vectorINSt7__cxx1112basic_stringIcSt11char_traitsIcESaIcEEESaIS5_EE3endEv>:
  407272:	55                   	push   %rbp
  407273:	48 89 e5             	mov    %rsp,%rbp
  407276:	48 83 ec 20          	sub    $0x20,%rsp
  40727a:	48 89 7d e8          	mov    %rdi,-0x18(%rbp)
  40727e:	48 8b 45 e8          	mov    -0x18(%rbp),%rax
  407282:	48 8b 40 08          	mov    0x8(%rax),%rax
  407286:	48 89 45 f8          	mov    %rax,-0x8(%rbp)
  40728a:	48 8d 55 f8          	lea    -0x8(%rbp),%rdx
  40728e:	48 8d 45 f0          	lea    -0x10(%rbp),%rax
  407292:	48 89 d6             	mov    %rdx,%rsi
  407295:	48 89 c7             	mov    %rax,%rdi
  407298:	e8 0f 08 00 00       	callq  407aac <_ZN9__gnu_cxx17__normal_iteratorIPKNSt7__cxx1112basic_stringIcSt11char_traitsIcESaIcEEESt6vectorIS6_SaIS6_EEEC1ERKS8_>
  40729d:	48 8b 45 f0          	mov    -0x10(%rbp),%rax
  4072a1:	c9                   	leaveq 
  4072a2:	c3                   	retq   

00000000004072a3 <_ZN9__gnu_cxxeqIPKNSt7__cxx1112basic_stringIcSt11char_traitsIcESaIcEEESt6vectorIS6_SaIS6_EEEEbRKNS_17__normal_iteratorIT_T0_EESH_>:
  4072a3:	55                   	push   %rbp
  4072a4:	48 89 e5             	mov    %rsp,%rbp
  4072a7:	53                   	push   %rbx
  4072a8:	48 83 ec 18          	sub    $0x18,%rsp
  4072ac:	48 89 7d e8          	mov    %rdi,-0x18(%rbp)
  4072b0:	48 89 75 e0          	mov    %rsi,-0x20(%rbp)
  4072b4:	48 8b 45 e8          	mov    -0x18(%rbp),%rax
  4072b8:	48 89 c7             	mov    %rax,%rdi
  4072bb:	e8 0a 08 00 00       	callq  407aca <_ZNK9__gnu_cxx17__normal_iteratorIPKNSt7__cxx1112basic_stringIcSt11char_traitsIcESaIcEEESt6vectorIS6_SaIS6_EEE4baseEv>
  4072c0:	48 8b 18             	mov    (%rax),%rbx
  4072c3:	48 8b 45 e0          	mov    -0x20(%rbp),%rax
  4072c7:	48 89 c7             	mov    %rax,%rdi
  4072ca:	e8 fb 07 00 00       	callq  407aca <_ZNK9__gnu_cxx17__normal_iteratorIPKNSt7__cxx1112basic_stringIcSt11char_traitsIcESaIcEEESt6vectorIS6_SaIS6_EEE4baseEv>
  4072cf:	48 8b 00             	mov    (%rax),%rax
  4072d2:	48 39 c3             	cmp    %rax,%rbx
  4072d5:	0f 94 c0             	sete   %al
  4072d8:	48 83 c4 18          	add    $0x18,%rsp
  4072dc:	5b                   	pop    %rbx
  4072dd:	5d                   	pop    %rbp
  4072de:	c3                   	retq   
  4072df:	90                   	nop

00000000004072e0 <_ZNK9__gnu_cxx17__normal_iteratorIPNSt7__cxx1112basic_stringIcSt11char_traitsIcESaIcEEESt6vectorIS6_SaIS6_EEEmiEl>:
  4072e0:	55                   	push   %rbp
  4072e1:	48 89 e5             	mov    %rsp,%rbp
  4072e4:	48 83 ec 20          	sub    $0x20,%rsp
  4072e8:	48 89 7d e8          	mov    %rdi,-0x18(%rbp)
  4072ec:	48 89 75 e0          	mov    %rsi,-0x20(%rbp)
  4072f0:	48 8b 45 e8          	mov    -0x18(%rbp),%rax
  4072f4:	48 8b 00             	mov    (%rax),%rax
  4072f7:	48 8b 55 e0          	mov    -0x20(%rbp),%rdx
  4072fb:	48 c1 e2 05          	shl    $0x5,%rdx
  4072ff:	48 f7 da             	neg    %rdx
  407302:	48 01 d0             	add    %rdx,%rax
  407305:	48 89 45 f8          	mov    %rax,-0x8(%rbp)
  407309:	48 8d 55 f8          	lea    -0x8(%rbp),%rdx
  40730d:	48 8d 45 f0          	lea    -0x10(%rbp),%rax
  407311:	48 89 d6             	mov    %rdx,%rsi
  407314:	48 89 c7             	mov    %rax,%rdi
  407317:	e8 18 03 00 00       	callq  407634 <_ZN9__gnu_cxx17__normal_iteratorIPNSt7__cxx1112basic_stringIcSt11char_traitsIcESaIcEEESt6vectorIS6_SaIS6_EEEC1ERKS7_>
  40731c:	48 8b 45 f0          	mov    -0x10(%rbp),%rax
  407320:	c9                   	leaveq 
  407321:	c3                   	retq   

0000000000407322 <_ZNSt7__cxx1112basic_stringIcSt11char_traitsIcESaIcEE12_M_constructIPcEEvT_S7_>:
  407322:	55                   	push   %rbp
  407323:	48 89 e5             	mov    %rsp,%rbp
  407326:	48 83 ec 30          	sub    $0x30,%rsp
  40732a:	48 89 7d e8          	mov    %rdi,-0x18(%rbp)
  40732e:	48 89 75 e0          	mov    %rsi,-0x20(%rbp)
  407332:	48 89 55 d8          	mov    %rdx,-0x28(%rbp)
  407336:	48 8b 55 d8          	mov    -0x28(%rbp),%rdx
  40733a:	48 8b 4d e0          	mov    -0x20(%rbp),%rcx
  40733e:	48 8b 45 e8          	mov    -0x18(%rbp),%rax
  407342:	48 89 ce             	mov    %rcx,%rsi
  407345:	48 89 c7             	mov    %rax,%rdi
  407348:	e8 8b 07 00 00       	callq  407ad8 <_ZNSt7__cxx1112basic_stringIcSt11char_traitsIcESaIcEE16_M_construct_auxIPcEEvT_S7_St12__false_type>
  40734d:	90                   	nop
  40734e:	c9                   	leaveq 
  40734f:	c3                   	retq   

0000000000407350 <_ZNSt6vectorINSt7__cxx1112basic_stringIcSt11char_traitsIcESaIcEEESaIS5_EE15_M_erase_at_endEPS5_>:
  407350:	55                   	push   %rbp
  407351:	48 89 e5             	mov    %rsp,%rbp
  407354:	48 83 ec 20          	sub    $0x20,%rsp
  407358:	48 89 7d e8          	mov    %rdi,-0x18(%rbp)
  40735c:	48 89 75 e0          	mov    %rsi,-0x20(%rbp)
  407360:	48 8b 45 e8          	mov    -0x18(%rbp),%rax
  407364:	48 8b 40 08          	mov    0x8(%rax),%rax
  407368:	48 2b 45 e0          	sub    -0x20(%rbp),%rax
  40736c:	48 c1 f8 05          	sar    $0x5,%rax
  407370:	48 89 45 f8          	mov    %rax,-0x8(%rbp)
  407374:	48 83 7d f8 00       	cmpq   $0x0,-0x8(%rbp)
  407379:	74 32                	je     4073ad <_ZNSt6vectorINSt7__cxx1112basic_stringIcSt11char_traitsIcESaIcEEESaIS5_EE15_M_erase_at_endEPS5_+0x5d>
  40737b:	48 8b 45 e8          	mov    -0x18(%rbp),%rax
  40737f:	48 89 c7             	mov    %rax,%rdi
  407382:	e8 7f 07 00 00       	callq  407b06 <_ZNSt12_Vector_baseINSt7__cxx1112basic_stringIcSt11char_traitsIcESaIcEEESaIS5_EE19_M_get_Tp_allocatorEv>
  407387:	48 89 c2             	mov    %rax,%rdx
  40738a:	48 8b 45 e8          	mov    -0x18(%rbp),%rax
  40738e:	48 8b 48 08          	mov    0x8(%rax),%rcx
  407392:	48 8b 45 e0          	mov    -0x20(%rbp),%rax
  407396:	48 89 ce             	mov    %rcx,%rsi
  407399:	48 89 c7             	mov    %rax,%rdi
  40739c:	e8 73 07 00 00       	callq  407b14 <_ZSt8_DestroyIPNSt7__cxx1112basic_stringIcSt11char_traitsIcESaIcEEES5_EvT_S7_RSaIT0_E>
  4073a1:	48 8b 45 e8          	mov    -0x18(%rbp),%rax
  4073a5:	48 8b 55 e0          	mov    -0x20(%rbp),%rdx
  4073a9:	48 89 50 08          	mov    %rdx,0x8(%rax)
  4073ad:	90                   	nop
  4073ae:	c9                   	leaveq 
  4073af:	c3                   	retq   

00000000004073b0 <_ZSt7forwardINSt7__cxx1112basic_stringIcSt11char_traitsIcESaIcEEEEOT_RNSt16remove_referenceIS6_E4typeE>:
  4073b0:	55                   	push   %rbp
  4073b1:	48 89 e5             	mov    %rsp,%rbp
  4073b4:	48 89 7d f8          	mov    %rdi,-0x8(%rbp)
  4073b8:	48 8b 45 f8          	mov    -0x8(%rbp),%rax
  4073bc:	5d                   	pop    %rbp
  4073bd:	c3                   	retq   

00000000004073be <_ZNSt16allocator_traitsISaINSt7__cxx1112basic_stringIcSt11char_traitsIcESaIcEEEEE9constructIS5_JS5_EEEvRS6_PT_DpOT0_>:
  4073be:	55                   	push   %rbp
  4073bf:	48 89 e5             	mov    %rsp,%rbp
  4073c2:	48 83 ec 20          	sub    $0x20,%rsp
  4073c6:	48 89 7d f8          	mov    %rdi,-0x8(%rbp)
  4073ca:	48 89 75 f0          	mov    %rsi,-0x10(%rbp)
  4073ce:	48 89 55 e8          	mov    %rdx,-0x18(%rbp)
  4073d2:	48 8b 45 e8          	mov    -0x18(%rbp),%rax
  4073d6:	48 89 c7             	mov    %rax,%rdi
  4073d9:	e8 d2 ff ff ff       	callq  4073b0 <_ZSt7forwardINSt7__cxx1112basic_stringIcSt11char_traitsIcESaIcEEEEOT_RNSt16remove_referenceIS6_E4typeE>
  4073de:	48 89 c2             	mov    %rax,%rdx
  4073e1:	48 8b 4d f0          	mov    -0x10(%rbp),%rcx
  4073e5:	48 8b 45 f8          	mov    -0x8(%rbp),%rax
  4073e9:	48 89 ce             	mov    %rcx,%rsi
  4073ec:	48 89 c7             	mov    %rax,%rdi
  4073ef:	e8 4a 07 00 00       	callq  407b3e <_ZN9__gnu_cxx13new_allocatorINSt7__cxx1112basic_stringIcSt11char_traitsIcESaIcEEEE9constructIS6_JS6_EEEvPT_DpOT0_>
  4073f4:	90                   	nop
  4073f5:	c9                   	leaveq 
  4073f6:	c3                   	retq   
  4073f7:	90                   	nop

00000000004073f8 <_ZNSt6vectorINSt7__cxx1112basic_stringIcSt11char_traitsIcESaIcEEESaIS5_EE17_M_realloc_insertIJS5_EEEvN9__gnu_cxx17__normal_iteratorIPS5_S7_EEDpOT_>:
  4073f8:	55                   	push   %rbp
  4073f9:	48 89 e5             	mov    %rsp,%rbp
  4073fc:	53                   	push   %rbx
  4073fd:	48 83 ec 68          	sub    $0x68,%rsp
  407401:	48 89 7d a8          	mov    %rdi,-0x58(%rbp)
  407405:	48 89 75 a0          	mov    %rsi,-0x60(%rbp)
  407409:	48 89 55 98          	mov    %rdx,-0x68(%rbp)
  40740d:	48 8b 45 a8          	mov    -0x58(%rbp),%rax
  407411:	ba 55 e4 40 00       	mov    $0x40e455,%edx
  407416:	be 01 00 00 00       	mov    $0x1,%esi
  40741b:	48 89 c7             	mov    %rax,%rdi
  40741e:	e8 63 07 00 00       	callq  407b86 <_ZNKSt6vectorINSt7__cxx1112basic_stringIcSt11char_traitsIcESaIcEEESaIS5_EE12_M_check_lenEmPKc>
  407423:	48 89 45 e0          	mov    %rax,-0x20(%rbp)
  407427:	48 8b 45 a8          	mov    -0x58(%rbp),%rax
  40742b:	48 8b 00             	mov    (%rax),%rax
  40742e:	48 89 45 d8          	mov    %rax,-0x28(%rbp)
  407432:	48 8b 45 a8          	mov    -0x58(%rbp),%rax
  407436:	48 8b 40 08          	mov    0x8(%rax),%rax
  40743a:	48 89 45 d0          	mov    %rax,-0x30(%rbp)
  40743e:	48 8b 45 a8          	mov    -0x58(%rbp),%rax
  407442:	48 89 c7             	mov    %rax,%rdi
  407445:	e8 f4 fa ff ff       	callq  406f3e <_ZNSt6vectorINSt7__cxx1112basic_stringIcSt11char_traitsIcESaIcEEESaIS5_EE5beginEv>
  40744a:	48 89 45 b8          	mov    %rax,-0x48(%rbp)
  40744e:	48 8d 55 b8          	lea    -0x48(%rbp),%rdx
  407452:	48 8d 45 a0          	lea    -0x60(%rbp),%rax
  407456:	48 89 d6             	mov    %rdx,%rsi
  407459:	48 89 c7             	mov    %rax,%rdi
  40745c:	e8 ee 07 00 00       	callq  407c4f <_ZN9__gnu_cxxmiIPNSt7__cxx1112basic_stringIcSt11char_traitsIcESaIcEEESt6vectorIS6_SaIS6_EEEENS_17__normal_iteratorIT_T0_E15difference_typeERKSE_SH_>
  407461:	48 89 45 c8          	mov    %rax,-0x38(%rbp)
  407465:	48 8b 45 a8          	mov    -0x58(%rbp),%rax
  407469:	48 8b 55 e0          	mov    -0x20(%rbp),%rdx
  40746d:	48 89 d6             	mov    %rdx,%rsi
  407470:	48 89 c7             	mov    %rax,%rdi
  407473:	e8 18 08 00 00       	callq  407c90 <_ZNSt12_Vector_baseINSt7__cxx1112basic_stringIcSt11char_traitsIcESaIcEEESaIS5_EE11_M_allocateEm>
  407478:	48 89 45 c0          	mov    %rax,-0x40(%rbp)
  40747c:	48 8b 45 c0          	mov    -0x40(%rbp),%rax
  407480:	48 89 45 e8          	mov    %rax,-0x18(%rbp)
  407484:	48 8b 45 98          	mov    -0x68(%rbp),%rax
  407488:	48 89 c7             	mov    %rax,%rdi
  40748b:	e8 20 ff ff ff       	callq  4073b0 <_ZSt7forwardINSt7__cxx1112basic_stringIcSt11char_traitsIcESaIcEEEEOT_RNSt16remove_referenceIS6_E4typeE>
  407490:	48 89 c6             	mov    %rax,%rsi
  407493:	48 8b 45 c8          	mov    -0x38(%rbp),%rax
  407497:	48 c1 e0 05          	shl    $0x5,%rax
  40749b:	48 89 c2             	mov    %rax,%rdx
  40749e:	48 8b 45 c0          	mov    -0x40(%rbp),%rax
  4074a2:	48 8d 0c 02          	lea    (%rdx,%rax,1),%rcx
  4074a6:	48 8b 45 a8          	mov    -0x58(%rbp),%rax
  4074aa:	48 89 f2             	mov    %rsi,%rdx
  4074ad:	48 89 ce             	mov    %rcx,%rsi
  4074b0:	48 89 c7             	mov    %rax,%rdi
  4074b3:	e8 06 ff ff ff       	callq  4073be <_ZNSt16allocator_traitsISaINSt7__cxx1112basic_stringIcSt11char_traitsIcESaIcEEEEE9constructIS5_JS5_EEEvRS6_PT_DpOT0_>
  4074b8:	48 c7 45 e8 00 00 00 	movq   $0x0,-0x18(%rbp)
  4074bf:	00 
  4074c0:	48 8b 45 a8          	mov    -0x58(%rbp),%rax
  4074c4:	48 89 c7             	mov    %rax,%rdi
  4074c7:	e8 3a 06 00 00       	callq  407b06 <_ZNSt12_Vector_baseINSt7__cxx1112basic_stringIcSt11char_traitsIcESaIcEEESaIS5_EE19_M_get_Tp_allocatorEv>
  4074cc:	48 89 c3             	mov    %rax,%rbx
  4074cf:	48 8d 45 a0          	lea    -0x60(%rbp),%rax
  4074d3:	48 89 c7             	mov    %rax,%rdi
  4074d6:	e8 77 01 00 00       	callq  407652 <_ZNK9__gnu_cxx17__normal_iteratorIPNSt7__cxx1112basic_stringIcSt11char_traitsIcESaIcEEESt6vectorIS6_SaIS6_EEE4baseEv>
  4074db:	48 8b 30             	mov    (%rax),%rsi
  4074de:	48 8b 55 c0          	mov    -0x40(%rbp),%rdx
  4074e2:	48 8b 45 d8          	mov    -0x28(%rbp),%rax
  4074e6:	48 89 d9             	mov    %rbx,%rcx
  4074e9:	48 89 c7             	mov    %rax,%rdi
  4074ec:	e8 d2 07 00 00       	callq  407cc3 <_ZSt34__uninitialized_move_if_noexcept_aIPNSt7__cxx1112basic_stringIcSt11char_traitsIcESaIcEEES6_SaIS5_EET0_T_S9_S8_RT1_>
  4074f1:	48 89 45 e8          	mov    %rax,-0x18(%rbp)
  4074f5:	48 83 45 e8 20       	addq   $0x20,-0x18(%rbp)
  4074fa:	48 8b 45 a8          	mov    -0x58(%rbp),%rax
  4074fe:	48 89 c7             	mov    %rax,%rdi
  407501:	e8 00 06 00 00       	callq  407b06 <_ZNSt12_Vector_baseINSt7__cxx1112basic_stringIcSt11char_traitsIcESaIcEEESaIS5_EE19_M_get_Tp_allocatorEv>
  407506:	48 89 c3             	mov    %rax,%rbx
  407509:	48 8d 45 a0          	lea    -0x60(%rbp),%rax
  40750d:	48 89 c7             	mov    %rax,%rdi
  407510:	e8 3d 01 00 00       	callq  407652 <_ZNK9__gnu_cxx17__normal_iteratorIPNSt7__cxx1112basic_stringIcSt11char_traitsIcESaIcEEESt6vectorIS6_SaIS6_EEE4baseEv>
  407515:	48 8b 00             	mov    (%rax),%rax
  407518:	48 8b 55 e8          	mov    -0x18(%rbp),%rdx
  40751c:	48 8b 75 d0          	mov    -0x30(%rbp),%rsi
  407520:	48 89 d9             	mov    %rbx,%rcx
  407523:	48 89 c7             	mov    %rax,%rdi
  407526:	e8 98 07 00 00       	callq  407cc3 <_ZSt34__uninitialized_move_if_noexcept_aIPNSt7__cxx1112basic_stringIcSt11char_traitsIcESaIcEEES6_SaIS5_EET0_T_S9_S8_RT1_>
  40752b:	48 89 45 e8          	mov    %rax,-0x18(%rbp)
  40752f:	48 8b 45 a8          	mov    -0x58(%rbp),%rax
  407533:	48 89 c7             	mov    %rax,%rdi
  407536:	e8 cb 05 00 00       	callq  407b06 <_ZNSt12_Vector_baseINSt7__cxx1112basic_stringIcSt11char_traitsIcESaIcEEESaIS5_EE19_M_get_Tp_allocatorEv>
  40753b:	48 89 c2             	mov    %rax,%rdx
  40753e:	48 8b 4d d0          	mov    -0x30(%rbp),%rcx
  407542:	48 8b 45 d8          	mov    -0x28(%rbp),%rax
  407546:	48 89 ce             	mov    %rcx,%rsi
  407549:	48 89 c7             	mov    %rax,%rdi
  40754c:	e8 c3 05 00 00       	callq  407b14 <_ZSt8_DestroyIPNSt7__cxx1112basic_stringIcSt11char_traitsIcESaIcEEES5_EvT_S7_RSaIT0_E>
  407551:	48 8b 45 a8          	mov    -0x58(%rbp),%rax
  407555:	48 8b 55 a8          	mov    -0x58(%rbp),%rdx
  407559:	48 8b 52 10          	mov    0x10(%rdx),%rdx
  40755d:	48 2b 55 d8          	sub    -0x28(%rbp),%rdx
  407561:	48 c1 fa 05          	sar    $0x5,%rdx
  407565:	48 8b 4d d8          	mov    -0x28(%rbp),%rcx
  407569:	48 89 ce             	mov    %rcx,%rsi
  40756c:	48 89 c7             	mov    %rax,%rdi
  40756f:	e8 02 05 00 00       	callq  407a76 <_ZNSt12_Vector_baseINSt7__cxx1112basic_stringIcSt11char_traitsIcESaIcEEESaIS5_EE13_M_deallocateEPS5_m>
  407574:	48 8b 45 a8          	mov    -0x58(%rbp),%rax
  407578:	48 8b 55 c0          	mov    -0x40(%rbp),%rdx
  40757c:	48 89 10             	mov    %rdx,(%rax)
  40757f:	48 8b 45 a8          	mov    -0x58(%rbp),%rax
  407583:	48 8b 55 e8          	mov    -0x18(%rbp),%rdx
  407587:	48 89 50 08          	mov    %rdx,0x8(%rax)
  40758b:	48 8b 45 e0          	mov    -0x20(%rbp),%rax
  40758f:	48 c1 e0 05          	shl    $0x5,%rax
  407593:	48 89 c2             	mov    %rax,%rdx
  407596:	48 8b 45 c0          	mov    -0x40(%rbp),%rax
  40759a:	48 01 c2             	add    %rax,%rdx
  40759d:	48 8b 45 a8          	mov    -0x58(%rbp),%rax
  4075a1:	48 89 50 10          	mov    %rdx,0x10(%rax)
  4075a5:	e9 83 00 00 00       	jmpq   40762d <_ZNSt6vectorINSt7__cxx1112basic_stringIcSt11char_traitsIcESaIcEEESaIS5_EE17_M_realloc_insertIJS5_EEEvN9__gnu_cxx17__normal_iteratorIPS5_S7_EEDpOT_+0x235>
  4075aa:	48 89 c7             	mov    %rax,%rdi
  4075ad:	e8 5e bb ff ff       	callq  403110 <__cxa_begin_catch@plt>
  4075b2:	48 83 7d e8 00       	cmpq   $0x0,-0x18(%rbp)
  4075b7:	75 23                	jne    4075dc <_ZNSt6vectorINSt7__cxx1112basic_stringIcSt11char_traitsIcESaIcEEESaIS5_EE17_M_realloc_insertIJS5_EEEvN9__gnu_cxx17__normal_iteratorIPS5_S7_EEDpOT_+0x1e4>
  4075b9:	48 8b 45 c8          	mov    -0x38(%rbp),%rax
  4075bd:	48 c1 e0 05          	shl    $0x5,%rax
  4075c1:	48 89 c2             	mov    %rax,%rdx
  4075c4:	48 8b 45 c0          	mov    -0x40(%rbp),%rax
  4075c8:	48 01 c2             	add    %rax,%rdx
  4075cb:	48 8b 45 a8          	mov    -0x58(%rbp),%rax
  4075cf:	48 89 d6             	mov    %rdx,%rsi
  4075d2:	48 89 c7             	mov    %rax,%rdi
  4075d5:	e8 86 00 00 00       	callq  407660 <_ZNSt16allocator_traitsISaINSt7__cxx1112basic_stringIcSt11char_traitsIcESaIcEEEEE7destroyIS5_EEvRS6_PT_>
  4075da:	eb 22                	jmp    4075fe <_ZNSt6vectorINSt7__cxx1112basic_stringIcSt11char_traitsIcESaIcEEESaIS5_EE17_M_realloc_insertIJS5_EEEvN9__gnu_cxx17__normal_iteratorIPS5_S7_EEDpOT_+0x206>
  4075dc:	48 8b 45 a8          	mov    -0x58(%rbp),%rax
  4075e0:	48 89 c7             	mov    %rax,%rdi
  4075e3:	e8 1e 05 00 00       	callq  407b06 <_ZNSt12_Vector_baseINSt7__cxx1112basic_stringIcSt11char_traitsIcESaIcEEESaIS5_EE19_M_get_Tp_allocatorEv>
  4075e8:	48 89 c2             	mov    %rax,%rdx
  4075eb:	48 8b 4d e8          	mov    -0x18(%rbp),%rcx
  4075ef:	48 8b 45 c0          	mov    -0x40(%rbp),%rax
  4075f3:	48 89 ce             	mov    %rcx,%rsi
  4075f6:	48 89 c7             	mov    %rax,%rdi
  4075f9:	e8 16 05 00 00       	callq  407b14 <_ZSt8_DestroyIPNSt7__cxx1112basic_stringIcSt11char_traitsIcESaIcEEES5_EvT_S7_RSaIT0_E>
  4075fe:	48 8b 45 a8          	mov    -0x58(%rbp),%rax
  407602:	48 8b 55 e0          	mov    -0x20(%rbp),%rdx
  407606:	48 8b 4d c0          	mov    -0x40(%rbp),%rcx
  40760a:	48 89 ce             	mov    %rcx,%rsi
  40760d:	48 89 c7             	mov    %rax,%rdi
  407610:	e8 61 04 00 00       	callq  407a76 <_ZNSt12_Vector_baseINSt7__cxx1112basic_stringIcSt11char_traitsIcESaIcEEESaIS5_EE13_M_deallocateEPS5_m>
  407615:	e8 86 bd ff ff       	callq  4033a0 <__cxa_rethrow@plt>
  40761a:	48 89 c3             	mov    %rax,%rbx
  40761d:	e8 fe bd ff ff       	callq  403420 <__cxa_end_catch@plt>
  407622:	48 89 d8             	mov    %rbx,%rax
  407625:	48 89 c7             	mov    %rax,%rdi
  407628:	e8 43 be ff ff       	callq  403470 <_Unwind_Resume@plt>
  40762d:	48 83 c4 68          	add    $0x68,%rsp
  407631:	5b                   	pop    %rbx
  407632:	5d                   	pop    %rbp
  407633:	c3                   	retq   

0000000000407634 <_ZN9__gnu_cxx17__normal_iteratorIPNSt7__cxx1112basic_stringIcSt11char_traitsIcESaIcEEESt6vectorIS6_SaIS6_EEEC1ERKS7_>:
  407634:	55                   	push   %rbp
  407635:	48 89 e5             	mov    %rsp,%rbp
  407638:	48 89 7d f8          	mov    %rdi,-0x8(%rbp)
  40763c:	48 89 75 f0          	mov    %rsi,-0x10(%rbp)
  407640:	48 8b 45 f0          	mov    -0x10(%rbp),%rax
  407644:	48 8b 10             	mov    (%rax),%rdx
  407647:	48 8b 45 f8          	mov    -0x8(%rbp),%rax
  40764b:	48 89 10             	mov    %rdx,(%rax)
  40764e:	90                   	nop
  40764f:	5d                   	pop    %rbp
  407650:	c3                   	retq   
  407651:	90                   	nop

0000000000407652 <_ZNK9__gnu_cxx17__normal_iteratorIPNSt7__cxx1112basic_stringIcSt11char_traitsIcESaIcEEESt6vectorIS6_SaIS6_EEE4baseEv>:
  407652:	55                   	push   %rbp
  407653:	48 89 e5             	mov    %rsp,%rbp
  407656:	48 89 7d f8          	mov    %rdi,-0x8(%rbp)
  40765a:	48 8b 45 f8          	mov    -0x8(%rbp),%rax
  40765e:	5d                   	pop    %rbp
  40765f:	c3                   	retq   

0000000000407660 <_ZNSt16allocator_traitsISaINSt7__cxx1112basic_stringIcSt11char_traitsIcESaIcEEEEE7destroyIS5_EEvRS6_PT_>:
  407660:	55                   	push   %rbp
  407661:	48 89 e5             	mov    %rsp,%rbp
  407664:	48 83 ec 10          	sub    $0x10,%rsp
  407668:	48 89 7d f8          	mov    %rdi,-0x8(%rbp)
  40766c:	48 89 75 f0          	mov    %rsi,-0x10(%rbp)
  407670:	48 8b 55 f0          	mov    -0x10(%rbp),%rdx
  407674:	48 8b 45 f8          	mov    -0x8(%rbp),%rax
  407678:	48 89 d6             	mov    %rdx,%rsi
  40767b:	48 89 c7             	mov    %rax,%rdi
  40767e:	e8 95 06 00 00       	callq  407d18 <_ZN9__gnu_cxx13new_allocatorINSt7__cxx1112basic_stringIcSt11char_traitsIcESaIcEEEE7destroyIS6_EEvPT_>
  407683:	90                   	nop
  407684:	c9                   	leaveq 
  407685:	c3                   	retq   

0000000000407686 <_ZNSt12_Vector_baseIiSaIiEE12_Vector_implD1Ev>:
  407686:	55                   	push   %rbp
  407687:	48 89 e5             	mov    %rsp,%rbp
  40768a:	48 83 ec 10          	sub    $0x10,%rsp
  40768e:	48 89 7d f8          	mov    %rdi,-0x8(%rbp)
  407692:	48 8b 45 f8          	mov    -0x8(%rbp),%rax
  407696:	48 89 c7             	mov    %rax,%rdi
  407699:	e8 d8 06 00 00       	callq  407d76 <_ZNSaIiED1Ev>
  40769e:	90                   	nop
  40769f:	c9                   	leaveq 
  4076a0:	c3                   	retq   
  4076a1:	90                   	nop

00000000004076a2 <_ZNSt12_Vector_baseIiSaIiEEC1Ev>:
  4076a2:	55                   	push   %rbp
  4076a3:	48 89 e5             	mov    %rsp,%rbp
  4076a6:	48 83 ec 10          	sub    $0x10,%rsp
  4076aa:	48 89 7d f8          	mov    %rdi,-0x8(%rbp)
  4076ae:	48 8b 45 f8          	mov    -0x8(%rbp),%rax
  4076b2:	48 89 c7             	mov    %rax,%rdi
  4076b5:	e8 7e 06 00 00       	callq  407d38 <_ZNSt12_Vector_baseIiSaIiEE12_Vector_implC1Ev>
  4076ba:	90                   	nop
  4076bb:	c9                   	leaveq 
  4076bc:	c3                   	retq   
  4076bd:	90                   	nop

00000000004076be <_ZNSt12_Vector_baseIiSaIiEED1Ev>:
  4076be:	55                   	push   %rbp
  4076bf:	48 89 e5             	mov    %rsp,%rbp
  4076c2:	48 83 ec 10          	sub    $0x10,%rsp
  4076c6:	48 89 7d f8          	mov    %rdi,-0x8(%rbp)
  4076ca:	48 8b 45 f8          	mov    -0x8(%rbp),%rax
  4076ce:	48 8b 50 10          	mov    0x10(%rax),%rdx
  4076d2:	48 8b 45 f8          	mov    -0x8(%rbp),%rax
  4076d6:	48 8b 00             	mov    (%rax),%rax
  4076d9:	48 29 c2             	sub    %rax,%rdx
  4076dc:	48 89 d0             	mov    %rdx,%rax
  4076df:	48 c1 f8 02          	sar    $0x2,%rax
  4076e3:	48 89 c2             	mov    %rax,%rdx
  4076e6:	48 8b 45 f8          	mov    -0x8(%rbp),%rax
  4076ea:	48 8b 08             	mov    (%rax),%rcx
  4076ed:	48 8b 45 f8          	mov    -0x8(%rbp),%rax
  4076f1:	48 89 ce             	mov    %rcx,%rsi
  4076f4:	48 89 c7             	mov    %rax,%rdi
  4076f7:	e8 96 06 00 00       	callq  407d92 <_ZNSt12_Vector_baseIiSaIiEE13_M_deallocateEPim>
  4076fc:	48 8b 45 f8          	mov    -0x8(%rbp),%rax
  407700:	48 89 c7             	mov    %rax,%rdi
  407703:	e8 7e ff ff ff       	callq  407686 <_ZNSt12_Vector_baseIiSaIiEE12_Vector_implD1Ev>
  407708:	90                   	nop
  407709:	c9                   	leaveq 
  40770a:	c3                   	retq   

000000000040770b <_ZSt7forwardIiEOT_RNSt16remove_referenceIS0_E4typeE>:
  40770b:	55                   	push   %rbp
  40770c:	48 89 e5             	mov    %rsp,%rbp
  40770f:	48 89 7d f8          	mov    %rdi,-0x8(%rbp)
  407713:	48 8b 45 f8          	mov    -0x8(%rbp),%rax
  407717:	5d                   	pop    %rbp
  407718:	c3                   	retq   

0000000000407719 <_ZNSt16allocator_traitsISaIiEE9constructIiJiEEEvRS0_PT_DpOT0_>:
  407719:	55                   	push   %rbp
  40771a:	48 89 e5             	mov    %rsp,%rbp
  40771d:	48 83 ec 20          	sub    $0x20,%rsp
  407721:	48 89 7d f8          	mov    %rdi,-0x8(%rbp)
  407725:	48 89 75 f0          	mov    %rsi,-0x10(%rbp)
  407729:	48 89 55 e8          	mov    %rdx,-0x18(%rbp)
  40772d:	48 8b 45 e8          	mov    -0x18(%rbp),%rax
  407731:	48 89 c7             	mov    %rax,%rdi
  407734:	e8 d2 ff ff ff       	callq  40770b <_ZSt7forwardIiEOT_RNSt16remove_referenceIS0_E4typeE>
  407739:	48 89 c2             	mov    %rax,%rdx
  40773c:	48 8b 4d f0          	mov    -0x10(%rbp),%rcx
  407740:	48 8b 45 f8          	mov    -0x8(%rbp),%rax
  407744:	48 89 ce             	mov    %rcx,%rsi
  407747:	48 89 c7             	mov    %rax,%rdi
  40774a:	e8 79 06 00 00       	callq  407dc8 <_ZN9__gnu_cxx13new_allocatorIiE9constructIiJiEEEvPT_DpOT0_>
  40774f:	90                   	nop
  407750:	c9                   	leaveq 
  407751:	c3                   	retq   

0000000000407752 <_ZNSt6vectorIiSaIiEE3endEv>:
  407752:	55                   	push   %rbp
  407753:	48 89 e5             	mov    %rsp,%rbp
  407756:	48 83 ec 20          	sub    $0x20,%rsp
  40775a:	48 89 7d e8          	mov    %rdi,-0x18(%rbp)
  40775e:	48 8b 45 e8          	mov    -0x18(%rbp),%rax
  407762:	48 8d 50 08          	lea    0x8(%rax),%rdx
  407766:	48 8d 45 f8          	lea    -0x8(%rbp),%rax
  40776a:	48 89 d6             	mov    %rdx,%rsi
  40776d:	48 89 c7             	mov    %rax,%rdi
  407770:	e8 91 06 00 00       	callq  407e06 <_ZN9__gnu_cxx17__normal_iteratorIPiSt6vectorIiSaIiEEEC1ERKS1_>
  407775:	48 8b 45 f8          	mov    -0x8(%rbp),%rax
  407779:	c9                   	leaveq 
  40777a:	c3                   	retq   
  40777b:	90                   	nop

000000000040777c <_ZNSt6vectorIiSaIiEE17_M_realloc_insertIJiEEEvN9__gnu_cxx17__normal_iteratorIPiS1_EEDpOT_>:
  40777c:	55                   	push   %rbp
  40777d:	48 89 e5             	mov    %rsp,%rbp
  407780:	53                   	push   %rbx
  407781:	48 83 ec 68          	sub    $0x68,%rsp
  407785:	48 89 7d a8          	mov    %rdi,-0x58(%rbp)
  407789:	48 89 75 a0          	mov    %rsi,-0x60(%rbp)
  40778d:	48 89 55 98          	mov    %rdx,-0x68(%rbp)
  407791:	48 8b 45 a8          	mov    -0x58(%rbp),%rax
  407795:	ba 55 e4 40 00       	mov    $0x40e455,%edx
  40779a:	be 01 00 00 00       	mov    $0x1,%esi
  40779f:	48 89 c7             	mov    %rax,%rdi
  4077a2:	e8 7d 06 00 00       	callq  407e24 <_ZNKSt6vectorIiSaIiEE12_M_check_lenEmPKc>
  4077a7:	48 89 45 e0          	mov    %rax,-0x20(%rbp)
  4077ab:	48 8b 45 a8          	mov    -0x58(%rbp),%rax
  4077af:	48 8b 00             	mov    (%rax),%rax
  4077b2:	48 89 45 d8          	mov    %rax,-0x28(%rbp)
  4077b6:	48 8b 45 a8          	mov    -0x58(%rbp),%rax
  4077ba:	48 8b 40 08          	mov    0x8(%rax),%rax
  4077be:	48 89 45 d0          	mov    %rax,-0x30(%rbp)
  4077c2:	48 8b 45 a8          	mov    -0x58(%rbp),%rax
  4077c6:	48 89 c7             	mov    %rax,%rdi
  4077c9:	e8 20 07 00 00       	callq  407eee <_ZNSt6vectorIiSaIiEE5beginEv>
  4077ce:	48 89 45 b8          	mov    %rax,-0x48(%rbp)
  4077d2:	48 8d 55 b8          	lea    -0x48(%rbp),%rdx
  4077d6:	48 8d 45 a0          	lea    -0x60(%rbp),%rax
  4077da:	48 89 d6             	mov    %rdx,%rsi
  4077dd:	48 89 c7             	mov    %rax,%rdi
  4077e0:	e8 2e 07 00 00       	callq  407f13 <_ZN9__gnu_cxxmiIPiSt6vectorIiSaIiEEEENS_17__normal_iteratorIT_T0_E15difference_typeERKS8_SB_>
  4077e5:	48 89 45 c8          	mov    %rax,-0x38(%rbp)
  4077e9:	48 8b 45 a8          	mov    -0x58(%rbp),%rax
  4077ed:	48 8b 55 e0          	mov    -0x20(%rbp),%rdx
  4077f1:	48 89 d6             	mov    %rdx,%rsi
  4077f4:	48 89 c7             	mov    %rax,%rdi
  4077f7:	e8 58 07 00 00       	callq  407f54 <_ZNSt12_Vector_baseIiSaIiEE11_M_allocateEm>
  4077fc:	48 89 45 c0          	mov    %rax,-0x40(%rbp)
  407800:	48 8b 45 c0          	mov    -0x40(%rbp),%rax
  407804:	48 89 45 e8          	mov    %rax,-0x18(%rbp)
  407808:	48 8b 45 98          	mov    -0x68(%rbp),%rax
  40780c:	48 89 c7             	mov    %rax,%rdi
  40780f:	e8 f7 fe ff ff       	callq  40770b <_ZSt7forwardIiEOT_RNSt16remove_referenceIS0_E4typeE>
  407814:	48 89 c6             	mov    %rax,%rsi
  407817:	48 8b 45 c8          	mov    -0x38(%rbp),%rax
  40781b:	48 8d 14 85 00 00 00 	lea    0x0(,%rax,4),%rdx
  407822:	00 
  407823:	48 8b 45 c0          	mov    -0x40(%rbp),%rax
  407827:	48 8d 0c 02          	lea    (%rdx,%rax,1),%rcx
  40782b:	48 8b 45 a8          	mov    -0x58(%rbp),%rax
  40782f:	48 89 f2             	mov    %rsi,%rdx
  407832:	48 89 ce             	mov    %rcx,%rsi
  407835:	48 89 c7             	mov    %rax,%rdi
  407838:	e8 dc fe ff ff       	callq  407719 <_ZNSt16allocator_traitsISaIiEE9constructIiJiEEEvRS0_PT_DpOT0_>
  40783d:	48 c7 45 e8 00 00 00 	movq   $0x0,-0x18(%rbp)
  407844:	00 
  407845:	48 8b 45 a8          	mov    -0x58(%rbp),%rax
  407849:	48 89 c7             	mov    %rax,%rdi
  40784c:	e8 45 07 00 00       	callq  407f96 <_ZNSt12_Vector_baseIiSaIiEE19_M_get_Tp_allocatorEv>
  407851:	48 89 c3             	mov    %rax,%rbx
  407854:	48 8d 45 a0          	lea    -0x60(%rbp),%rax
  407858:	48 89 c7             	mov    %rax,%rdi
  40785b:	e8 28 07 00 00       	callq  407f88 <_ZNK9__gnu_cxx17__normal_iteratorIPiSt6vectorIiSaIiEEE4baseEv>
  407860:	48 8b 30             	mov    (%rax),%rsi
  407863:	48 8b 55 c0          	mov    -0x40(%rbp),%rdx
  407867:	48 8b 45 d8          	mov    -0x28(%rbp),%rax
  40786b:	48 89 d9             	mov    %rbx,%rcx
  40786e:	48 89 c7             	mov    %rax,%rdi
  407871:	e8 2e 07 00 00       	callq  407fa4 <_ZSt34__uninitialized_move_if_noexcept_aIPiS0_SaIiEET0_T_S3_S2_RT1_>
  407876:	48 89 45 e8          	mov    %rax,-0x18(%rbp)
  40787a:	48 83 45 e8 04       	addq   $0x4,-0x18(%rbp)
  40787f:	48 8b 45 a8          	mov    -0x58(%rbp),%rax
  407883:	48 89 c7             	mov    %rax,%rdi
  407886:	e8 0b 07 00 00       	callq  407f96 <_ZNSt12_Vector_baseIiSaIiEE19_M_get_Tp_allocatorEv>
  40788b:	48 89 c3             	mov    %rax,%rbx
  40788e:	48 8d 45 a0          	lea    -0x60(%rbp),%rax
  407892:	48 89 c7             	mov    %rax,%rdi
  407895:	e8 ee 06 00 00       	callq  407f88 <_ZNK9__gnu_cxx17__normal_iteratorIPiSt6vectorIiSaIiEEE4baseEv>
  40789a:	48 8b 00             	mov    (%rax),%rax
  40789d:	48 8b 55 e8          	mov    -0x18(%rbp),%rdx
  4078a1:	48 8b 75 d0          	mov    -0x30(%rbp),%rsi
  4078a5:	48 89 d9             	mov    %rbx,%rcx
  4078a8:	48 89 c7             	mov    %rax,%rdi
  4078ab:	e8 f4 06 00 00       	callq  407fa4 <_ZSt34__uninitialized_move_if_noexcept_aIPiS0_SaIiEET0_T_S3_S2_RT1_>
  4078b0:	48 89 45 e8          	mov    %rax,-0x18(%rbp)
  4078b4:	48 8b 45 a8          	mov    -0x58(%rbp),%rax
  4078b8:	48 89 c7             	mov    %rax,%rdi
  4078bb:	e8 d6 06 00 00       	callq  407f96 <_ZNSt12_Vector_baseIiSaIiEE19_M_get_Tp_allocatorEv>
  4078c0:	48 89 c2             	mov    %rax,%rdx
  4078c3:	48 8b 4d d0          	mov    -0x30(%rbp),%rcx
  4078c7:	48 8b 45 d8          	mov    -0x28(%rbp),%rax
  4078cb:	48 89 ce             	mov    %rcx,%rsi
  4078ce:	48 89 c7             	mov    %rax,%rdi
  4078d1:	e8 48 07 00 00       	callq  40801e <_ZSt8_DestroyIPiiEvT_S1_RSaIT0_E>
  4078d6:	48 8b 45 a8          	mov    -0x58(%rbp),%rax
  4078da:	48 8b 55 a8          	mov    -0x58(%rbp),%rdx
  4078de:	48 8b 52 10          	mov    0x10(%rdx),%rdx
  4078e2:	48 2b 55 d8          	sub    -0x28(%rbp),%rdx
  4078e6:	48 c1 fa 02          	sar    $0x2,%rdx
  4078ea:	48 8b 4d d8          	mov    -0x28(%rbp),%rcx
  4078ee:	48 89 ce             	mov    %rcx,%rsi
  4078f1:	48 89 c7             	mov    %rax,%rdi
  4078f4:	e8 99 04 00 00       	callq  407d92 <_ZNSt12_Vector_baseIiSaIiEE13_M_deallocateEPim>
  4078f9:	48 8b 45 a8          	mov    -0x58(%rbp),%rax
  4078fd:	48 8b 55 c0          	mov    -0x40(%rbp),%rdx
  407901:	48 89 10             	mov    %rdx,(%rax)
  407904:	48 8b 45 a8          	mov    -0x58(%rbp),%rax
  407908:	48 8b 55 e8          	mov    -0x18(%rbp),%rdx
  40790c:	48 89 50 08          	mov    %rdx,0x8(%rax)
  407910:	48 8b 45 e0          	mov    -0x20(%rbp),%rax
  407914:	48 8d 14 85 00 00 00 	lea    0x0(,%rax,4),%rdx
  40791b:	00 
  40791c:	48 8b 45 c0          	mov    -0x40(%rbp),%rax
  407920:	48 01 c2             	add    %rax,%rdx
  407923:	48 8b 45 a8          	mov    -0x58(%rbp),%rax
  407927:	48 89 50 10          	mov    %rdx,0x10(%rax)
  40792b:	e9 84 00 00 00       	jmpq   4079b4 <_ZNSt6vectorIiSaIiEE17_M_realloc_insertIJiEEEvN9__gnu_cxx17__normal_iteratorIPiS1_EEDpOT_+0x238>
  407930:	48 89 c7             	mov    %rax,%rdi
  407933:	e8 d8 b7 ff ff       	callq  403110 <__cxa_begin_catch@plt>
  407938:	48 83 7d e8 00       	cmpq   $0x0,-0x18(%rbp)
  40793d:	75 24                	jne    407963 <_ZNSt6vectorIiSaIiEE17_M_realloc_insertIJiEEEvN9__gnu_cxx17__normal_iteratorIPiS1_EEDpOT_+0x1e7>
  40793f:	48 8b 45 c8          	mov    -0x38(%rbp),%rax
  407943:	48 8d 14 85 00 00 00 	lea    0x0(,%rax,4),%rdx
  40794a:	00 
  40794b:	48 8b 45 c0          	mov    -0x40(%rbp),%rax
  40794f:	48 01 c2             	add    %rax,%rdx
  407952:	48 8b 45 a8          	mov    -0x58(%rbp),%rax
  407956:	48 89 d6             	mov    %rdx,%rsi
  407959:	48 89 c7             	mov    %rax,%rdi
  40795c:	e8 97 06 00 00       	callq  407ff8 <_ZNSt16allocator_traitsISaIiEE7destroyIiEEvRS0_PT_>
  407961:	eb 22                	jmp    407985 <_ZNSt6vectorIiSaIiEE17_M_realloc_insertIJiEEEvN9__gnu_cxx17__normal_iteratorIPiS1_EEDpOT_+0x209>
  407963:	48 8b 45 a8          	mov    -0x58(%rbp),%rax
  407967:	48 89 c7             	mov    %rax,%rdi
  40796a:	e8 27 06 00 00       	callq  407f96 <_ZNSt12_Vector_baseIiSaIiEE19_M_get_Tp_allocatorEv>
  40796f:	48 89 c2             	mov    %rax,%rdx
  407972:	48 8b 4d e8          	mov    -0x18(%rbp),%rcx
  407976:	48 8b 45 c0          	mov    -0x40(%rbp),%rax
  40797a:	48 89 ce             	mov    %rcx,%rsi
  40797d:	48 89 c7             	mov    %rax,%rdi
  407980:	e8 99 06 00 00       	callq  40801e <_ZSt8_DestroyIPiiEvT_S1_RSaIT0_E>
  407985:	48 8b 45 a8          	mov    -0x58(%rbp),%rax
  407989:	48 8b 55 e0          	mov    -0x20(%rbp),%rdx
  40798d:	48 8b 4d c0          	mov    -0x40(%rbp),%rcx
  407991:	48 89 ce             	mov    %rcx,%rsi
  407994:	48 89 c7             	mov    %rax,%rdi
  407997:	e8 f6 03 00 00       	callq  407d92 <_ZNSt12_Vector_baseIiSaIiEE13_M_deallocateEPim>
  40799c:	e8 ff b9 ff ff       	callq  4033a0 <__cxa_rethrow@plt>
  4079a1:	48 89 c3             	mov    %rax,%rbx
  4079a4:	e8 77 ba ff ff       	callq  403420 <__cxa_end_catch@plt>
  4079a9:	48 89 d8             	mov    %rbx,%rax
  4079ac:	48 89 c7             	mov    %rax,%rdi
  4079af:	e8 bc ba ff ff       	callq  403470 <_Unwind_Resume@plt>
  4079b4:	48 83 c4 68          	add    $0x68,%rsp
  4079b8:	5b                   	pop    %rbx
  4079b9:	5d                   	pop    %rbp
  4079ba:	c3                   	retq   
  4079bb:	90                   	nop

00000000004079bc <_ZNSt6vectorIiSaIiEE15_M_erase_at_endEPi>:
  4079bc:	55                   	push   %rbp
  4079bd:	48 89 e5             	mov    %rsp,%rbp
  4079c0:	48 83 ec 20          	sub    $0x20,%rsp
  4079c4:	48 89 7d e8          	mov    %rdi,-0x18(%rbp)
  4079c8:	48 89 75 e0          	mov    %rsi,-0x20(%rbp)
  4079cc:	48 8b 45 e8          	mov    -0x18(%rbp),%rax
  4079d0:	48 8b 40 08          	mov    0x8(%rax),%rax
  4079d4:	48 2b 45 e0          	sub    -0x20(%rbp),%rax
  4079d8:	48 c1 f8 02          	sar    $0x2,%rax
  4079dc:	48 89 45 f8          	mov    %rax,-0x8(%rbp)
  4079e0:	48 83 7d f8 00       	cmpq   $0x0,-0x8(%rbp)
  4079e5:	74 32                	je     407a19 <_ZNSt6vectorIiSaIiEE15_M_erase_at_endEPi+0x5d>
  4079e7:	48 8b 45 e8          	mov    -0x18(%rbp),%rax
  4079eb:	48 89 c7             	mov    %rax,%rdi
  4079ee:	e8 a3 05 00 00       	callq  407f96 <_ZNSt12_Vector_baseIiSaIiEE19_M_get_Tp_allocatorEv>
  4079f3:	48 89 c2             	mov    %rax,%rdx
  4079f6:	48 8b 45 e8          	mov    -0x18(%rbp),%rax
  4079fa:	48 8b 48 08          	mov    0x8(%rax),%rcx
  4079fe:	48 8b 45 e0          	mov    -0x20(%rbp),%rax
  407a02:	48 89 ce             	mov    %rcx,%rsi
  407a05:	48 89 c7             	mov    %rax,%rdi
  407a08:	e8 11 06 00 00       	callq  40801e <_ZSt8_DestroyIPiiEvT_S1_RSaIT0_E>
  407a0d:	48 8b 45 e8          	mov    -0x18(%rbp),%rax
  407a11:	48 8b 55 e0          	mov    -0x20(%rbp),%rdx
  407a15:	48 89 50 08          	mov    %rdx,0x8(%rax)
  407a19:	90                   	nop
  407a1a:	c9                   	leaveq 
  407a1b:	c3                   	retq   

0000000000407a1c <_ZNSt12_Vector_baseINSt7__cxx1112basic_stringIcSt11char_traitsIcESaIcEEESaIS5_EE12_Vector_implC1Ev>:
  407a1c:	55                   	push   %rbp
  407a1d:	48 89 e5             	mov    %rsp,%rbp
  407a20:	48 83 ec 10          	sub    $0x10,%rsp
  407a24:	48 89 7d f8          	mov    %rdi,-0x8(%rbp)
  407a28:	48 8b 45 f8          	mov    -0x8(%rbp),%rax
  407a2c:	48 89 c7             	mov    %rax,%rdi
  407a2f:	e8 14 06 00 00       	callq  408048 <_ZNSaINSt7__cxx1112basic_stringIcSt11char_traitsIcESaIcEEEEC1Ev>
  407a34:	48 8b 45 f8          	mov    -0x8(%rbp),%rax
  407a38:	48 c7 00 00 00 00 00 	movq   $0x0,(%rax)
  407a3f:	48 8b 45 f8          	mov    -0x8(%rbp),%rax
  407a43:	48 c7 40 08 00 00 00 	movq   $0x0,0x8(%rax)
  407a4a:	00 
  407a4b:	48 8b 45 f8          	mov    -0x8(%rbp),%rax
  407a4f:	48 c7 40 10 00 00 00 	movq   $0x0,0x10(%rax)
  407a56:	00 
  407a57:	90                   	nop
  407a58:	c9                   	leaveq 
  407a59:	c3                   	retq   

0000000000407a5a <_ZNSaINSt7__cxx1112basic_stringIcSt11char_traitsIcESaIcEEEED1Ev>:
  407a5a:	55                   	push   %rbp
  407a5b:	48 89 e5             	mov    %rsp,%rbp
  407a5e:	48 83 ec 10          	sub    $0x10,%rsp
  407a62:	48 89 7d f8          	mov    %rdi,-0x8(%rbp)
  407a66:	48 8b 45 f8          	mov    -0x8(%rbp),%rax
  407a6a:	48 89 c7             	mov    %rax,%rdi
  407a6d:	e8 f2 05 00 00       	callq  408064 <_ZN9__gnu_cxx13new_allocatorINSt7__cxx1112basic_stringIcSt11char_traitsIcESaIcEEEED1Ev>
  407a72:	90                   	nop
  407a73:	c9                   	leaveq 
  407a74:	c3                   	retq   
  407a75:	90                   	nop

0000000000407a76 <_ZNSt12_Vector_baseINSt7__cxx1112basic_stringIcSt11char_traitsIcESaIcEEESaIS5_EE13_M_deallocateEPS5_m>:
  407a76:	55                   	push   %rbp
  407a77:	48 89 e5             	mov    %rsp,%rbp
  407a7a:	48 83 ec 20          	sub    $0x20,%rsp
  407a7e:	48 89 7d f8          	mov    %rdi,-0x8(%rbp)
  407a82:	48 89 75 f0          	mov    %rsi,-0x10(%rbp)
  407a86:	48 89 55 e8          	mov    %rdx,-0x18(%rbp)
  407a8a:	48 83 7d f0 00       	cmpq   $0x0,-0x10(%rbp)
  407a8f:	74 17                	je     407aa8 <_ZNSt12_Vector_baseINSt7__cxx1112basic_stringIcSt11char_traitsIcESaIcEEESaIS5_EE13_M_deallocateEPS5_m+0x32>
  407a91:	48 8b 45 f8          	mov    -0x8(%rbp),%rax
  407a95:	48 8b 55 e8          	mov    -0x18(%rbp),%rdx
  407a99:	48 8b 4d f0          	mov    -0x10(%rbp),%rcx
  407a9d:	48 89 ce             	mov    %rcx,%rsi
  407aa0:	48 89 c7             	mov    %rax,%rdi
  407aa3:	e8 c7 05 00 00       	callq  40806f <_ZNSt16allocator_traitsISaINSt7__cxx1112basic_stringIcSt11char_traitsIcESaIcEEEEE10deallocateERS6_PS5_m>
  407aa8:	90                   	nop
  407aa9:	c9                   	leaveq 
  407aaa:	c3                   	retq   
  407aab:	90                   	nop

0000000000407aac <_ZN9__gnu_cxx17__normal_iteratorIPKNSt7__cxx1112basic_stringIcSt11char_traitsIcESaIcEEESt6vectorIS6_SaIS6_EEEC1ERKS8_>:
  407aac:	55                   	push   %rbp
  407aad:	48 89 e5             	mov    %rsp,%rbp
  407ab0:	48 89 7d f8          	mov    %rdi,-0x8(%rbp)
  407ab4:	48 89 75 f0          	mov    %rsi,-0x10(%rbp)
  407ab8:	48 8b 45 f0          	mov    -0x10(%rbp),%rax
  407abc:	48 8b 10             	mov    (%rax),%rdx
  407abf:	48 8b 45 f8          	mov    -0x8(%rbp),%rax
  407ac3:	48 89 10             	mov    %rdx,(%rax)
  407ac6:	90                   	nop
  407ac7:	5d                   	pop    %rbp
  407ac8:	c3                   	retq   
  407ac9:	90                   	nop

0000000000407aca <_ZNK9__gnu_cxx17__normal_iteratorIPKNSt7__cxx1112basic_stringIcSt11char_traitsIcESaIcEEESt6vectorIS6_SaIS6_EEE4baseEv>:
  407aca:	55                   	push   %rbp
  407acb:	48 89 e5             	mov    %rsp,%rbp
  407ace:	48 89 7d f8          	mov    %rdi,-0x8(%rbp)
  407ad2:	48 8b 45 f8          	mov    -0x8(%rbp),%rax
  407ad6:	5d                   	pop    %rbp
  407ad7:	c3                   	retq   

0000000000407ad8 <_ZNSt7__cxx1112basic_stringIcSt11char_traitsIcESaIcEE16_M_construct_auxIPcEEvT_S7_St12__false_type>:
  407ad8:	55                   	push   %rbp
  407ad9:	48 89 e5             	mov    %rsp,%rbp
  407adc:	48 83 ec 30          	sub    $0x30,%rsp
  407ae0:	48 89 7d e8          	mov    %rdi,-0x18(%rbp)
  407ae4:	48 89 75 e0          	mov    %rsi,-0x20(%rbp)
  407ae8:	48 89 55 d8          	mov    %rdx,-0x28(%rbp)
  407aec:	48 8b 55 d8          	mov    -0x28(%rbp),%rdx
  407af0:	48 8b 4d e0          	mov    -0x20(%rbp),%rcx
  407af4:	48 8b 45 e8          	mov    -0x18(%rbp),%rax
  407af8:	48 89 ce             	mov    %rcx,%rsi
  407afb:	48 89 c7             	mov    %rax,%rdi
  407afe:	e8 9b 05 00 00       	callq  40809e <_ZNSt7__cxx1112basic_stringIcSt11char_traitsIcESaIcEE12_M_constructIPcEEvT_S7_St20forward_iterator_tag>
  407b03:	90                   	nop
  407b04:	c9                   	leaveq 
  407b05:	c3                   	retq   

0000000000407b06 <_ZNSt12_Vector_baseINSt7__cxx1112basic_stringIcSt11char_traitsIcESaIcEEESaIS5_EE19_M_get_Tp_allocatorEv>:
  407b06:	55                   	push   %rbp
  407b07:	48 89 e5             	mov    %rsp,%rbp
  407b0a:	48 89 7d f8          	mov    %rdi,-0x8(%rbp)
  407b0e:	48 8b 45 f8          	mov    -0x8(%rbp),%rax
  407b12:	5d                   	pop    %rbp
  407b13:	c3                   	retq   

0000000000407b14 <_ZSt8_DestroyIPNSt7__cxx1112basic_stringIcSt11char_traitsIcESaIcEEES5_EvT_S7_RSaIT0_E>:
  407b14:	55                   	push   %rbp
  407b15:	48 89 e5             	mov    %rsp,%rbp
  407b18:	48 83 ec 20          	sub    $0x20,%rsp
  407b1c:	48 89 7d f8          	mov    %rdi,-0x8(%rbp)
  407b20:	48 89 75 f0          	mov    %rsi,-0x10(%rbp)
  407b24:	48 89 55 e8          	mov    %rdx,-0x18(%rbp)
  407b28:	48 8b 55 f0          	mov    -0x10(%rbp),%rdx
  407b2c:	48 8b 45 f8          	mov    -0x8(%rbp),%rax
  407b30:	48 89 d6             	mov    %rdx,%rsi
  407b33:	48 89 c7             	mov    %rax,%rdi
  407b36:	e8 74 06 00 00       	callq  4081af <_ZSt8_DestroyIPNSt7__cxx1112basic_stringIcSt11char_traitsIcESaIcEEEEvT_S7_>
  407b3b:	90                   	nop
  407b3c:	c9                   	leaveq 
  407b3d:	c3                   	retq   

0000000000407b3e <_ZN9__gnu_cxx13new_allocatorINSt7__cxx1112basic_stringIcSt11char_traitsIcESaIcEEEE9constructIS6_JS6_EEEvPT_DpOT0_>:
  407b3e:	55                   	push   %rbp
  407b3f:	48 89 e5             	mov    %rsp,%rbp
  407b42:	53                   	push   %rbx
  407b43:	48 83 ec 28          	sub    $0x28,%rsp
  407b47:	48 89 7d e8          	mov    %rdi,-0x18(%rbp)
  407b4b:	48 89 75 e0          	mov    %rsi,-0x20(%rbp)
  407b4f:	48 89 55 d8          	mov    %rdx,-0x28(%rbp)
  407b53:	48 8b 45 d8          	mov    -0x28(%rbp),%rax
  407b57:	48 89 c7             	mov    %rax,%rdi
  407b5a:	e8 51 f8 ff ff       	callq  4073b0 <_ZSt7forwardINSt7__cxx1112basic_stringIcSt11char_traitsIcESaIcEEEEOT_RNSt16remove_referenceIS6_E4typeE>
  407b5f:	48 89 c3             	mov    %rax,%rbx
  407b62:	48 8b 45 e0          	mov    -0x20(%rbp),%rax
  407b66:	48 89 c6             	mov    %rax,%rsi
  407b69:	bf 20 00 00 00       	mov    $0x20,%edi
  407b6e:	e8 9c ef ff ff       	callq  406b0f <_ZnwmPv>
  407b73:	48 89 de             	mov    %rbx,%rsi
  407b76:	48 89 c7             	mov    %rax,%rdi
  407b79:	e8 02 b6 ff ff       	callq  403180 <_ZNSt7__cxx1112basic_stringIcSt11char_traitsIcESaIcEEC1EOS4_@plt>
  407b7e:	90                   	nop
  407b7f:	48 83 c4 28          	add    $0x28,%rsp
  407b83:	5b                   	pop    %rbx
  407b84:	5d                   	pop    %rbp
  407b85:	c3                   	retq   

0000000000407b86 <_ZNKSt6vectorINSt7__cxx1112basic_stringIcSt11char_traitsIcESaIcEEESaIS5_EE12_M_check_lenEmPKc>:
  407b86:	55                   	push   %rbp
  407b87:	48 89 e5             	mov    %rsp,%rbp
  407b8a:	53                   	push   %rbx
  407b8b:	48 83 ec 38          	sub    $0x38,%rsp
  407b8f:	48 89 7d d8          	mov    %rdi,-0x28(%rbp)
  407b93:	48 89 75 d0          	mov    %rsi,-0x30(%rbp)
  407b97:	48 89 55 c8          	mov    %rdx,-0x38(%rbp)
  407b9b:	48 8b 45 d8          	mov    -0x28(%rbp),%rax
  407b9f:	48 89 c7             	mov    %rax,%rdi
  407ba2:	e8 2f 06 00 00       	callq  4081d6 <_ZNKSt6vectorINSt7__cxx1112basic_stringIcSt11char_traitsIcESaIcEEESaIS5_EE8max_sizeEv>
  407ba7:	48 89 c3             	mov    %rax,%rbx
  407baa:	48 8b 45 d8          	mov    -0x28(%rbp),%rax
  407bae:	48 89 c7             	mov    %rax,%rdi
  407bb1:	e8 42 06 00 00       	callq  4081f8 <_ZNKSt6vectorINSt7__cxx1112basic_stringIcSt11char_traitsIcESaIcEEESaIS5_EE4sizeEv>
  407bb6:	48 29 c3             	sub    %rax,%rbx
  407bb9:	48 89 da             	mov    %rbx,%rdx
  407bbc:	48 8b 45 d0          	mov    -0x30(%rbp),%rax
  407bc0:	48 39 c2             	cmp    %rax,%rdx
  407bc3:	0f 92 c0             	setb   %al
  407bc6:	84 c0                	test   %al,%al
  407bc8:	74 0c                	je     407bd6 <_ZNKSt6vectorINSt7__cxx1112basic_stringIcSt11char_traitsIcESaIcEEESaIS5_EE12_M_check_lenEmPKc+0x50>
  407bca:	48 8b 45 c8          	mov    -0x38(%rbp),%rax
  407bce:	48 89 c7             	mov    %rax,%rdi
  407bd1:	e8 8a b5 ff ff       	callq  403160 <_ZSt20__throw_length_errorPKc@plt>
  407bd6:	48 8b 45 d8          	mov    -0x28(%rbp),%rax
  407bda:	48 89 c7             	mov    %rax,%rdi
  407bdd:	e8 16 06 00 00       	callq  4081f8 <_ZNKSt6vectorINSt7__cxx1112basic_stringIcSt11char_traitsIcESaIcEEESaIS5_EE4sizeEv>
  407be2:	48 89 c3             	mov    %rax,%rbx
  407be5:	48 8b 45 d8          	mov    -0x28(%rbp),%rax
  407be9:	48 89 c7             	mov    %rax,%rdi
  407bec:	e8 07 06 00 00       	callq  4081f8 <_ZNKSt6vectorINSt7__cxx1112basic_stringIcSt11char_traitsIcESaIcEEESaIS5_EE4sizeEv>
  407bf1:	48 89 45 e0          	mov    %rax,-0x20(%rbp)
  407bf5:	48 8d 55 d0          	lea    -0x30(%rbp),%rdx
  407bf9:	48 8d 45 e0          	lea    -0x20(%rbp),%rax
  407bfd:	48 89 d6             	mov    %rdx,%rsi
  407c00:	48 89 c7             	mov    %rax,%rdi
  407c03:	e8 13 06 00 00       	callq  40821b <_ZSt3maxImERKT_S2_S2_>
  407c08:	48 8b 00             	mov    (%rax),%rax
  407c0b:	48 01 d8             	add    %rbx,%rax
  407c0e:	48 89 45 e8          	mov    %rax,-0x18(%rbp)
  407c12:	48 8b 45 d8          	mov    -0x28(%rbp),%rax
  407c16:	48 89 c7             	mov    %rax,%rdi
  407c19:	e8 da 05 00 00       	callq  4081f8 <_ZNKSt6vectorINSt7__cxx1112basic_stringIcSt11char_traitsIcESaIcEEESaIS5_EE4sizeEv>
  407c1e:	48 39 45 e8          	cmp    %rax,-0x18(%rbp)
  407c22:	72 12                	jb     407c36 <_ZNKSt6vectorINSt7__cxx1112basic_stringIcSt11char_traitsIcESaIcEEESaIS5_EE12_M_check_lenEmPKc+0xb0>
  407c24:	48 8b 45 d8          	mov    -0x28(%rbp),%rax
  407c28:	48 89 c7             	mov    %rax,%rdi
  407c2b:	e8 a6 05 00 00       	callq  4081d6 <_ZNKSt6vectorINSt7__cxx1112basic_stringIcSt11char_traitsIcESaIcEEESaIS5_EE8max_sizeEv>
  407c30:	48 39 45 e8          	cmp    %rax,-0x18(%rbp)
  407c34:	76 0e                	jbe    407c44 <_ZNKSt6vectorINSt7__cxx1112basic_stringIcSt11char_traitsIcESaIcEEESaIS5_EE12_M_check_lenEmPKc+0xbe>
  407c36:	48 8b 45 d8          	mov    -0x28(%rbp),%rax
  407c3a:	48 89 c7             	mov    %rax,%rdi
  407c3d:	e8 94 05 00 00       	callq  4081d6 <_ZNKSt6vectorINSt7__cxx1112basic_stringIcSt11char_traitsIcESaIcEEESaIS5_EE8max_sizeEv>
  407c42:	eb 04                	jmp    407c48 <_ZNKSt6vectorINSt7__cxx1112basic_stringIcSt11char_traitsIcESaIcEEESaIS5_EE12_M_check_lenEmPKc+0xc2>
  407c44:	48 8b 45 e8          	mov    -0x18(%rbp),%rax
  407c48:	48 83 c4 38          	add    $0x38,%rsp
  407c4c:	5b                   	pop    %rbx
  407c4d:	5d                   	pop    %rbp
  407c4e:	c3                   	retq   

0000000000407c4f <_ZN9__gnu_cxxmiIPNSt7__cxx1112basic_stringIcSt11char_traitsIcESaIcEEESt6vectorIS6_SaIS6_EEEENS_17__normal_iteratorIT_T0_E15difference_typeERKSE_SH_>:
  407c4f:	55                   	push   %rbp
  407c50:	48 89 e5             	mov    %rsp,%rbp
  407c53:	53                   	push   %rbx
  407c54:	48 83 ec 18          	sub    $0x18,%rsp
  407c58:	48 89 7d e8          	mov    %rdi,-0x18(%rbp)
  407c5c:	48 89 75 e0          	mov    %rsi,-0x20(%rbp)
  407c60:	48 8b 45 e8          	mov    -0x18(%rbp),%rax
  407c64:	48 89 c7             	mov    %rax,%rdi
  407c67:	e8 e6 f9 ff ff       	callq  407652 <_ZNK9__gnu_cxx17__normal_iteratorIPNSt7__cxx1112basic_stringIcSt11char_traitsIcESaIcEEESt6vectorIS6_SaIS6_EEE4baseEv>
  407c6c:	48 8b 18             	mov    (%rax),%rbx
  407c6f:	48 8b 45 e0          	mov    -0x20(%rbp),%rax
  407c73:	48 89 c7             	mov    %rax,%rdi
  407c76:	e8 d7 f9 ff ff       	callq  407652 <_ZNK9__gnu_cxx17__normal_iteratorIPNSt7__cxx1112basic_stringIcSt11char_traitsIcESaIcEEESt6vectorIS6_SaIS6_EEE4baseEv>
  407c7b:	48 8b 00             	mov    (%rax),%rax
  407c7e:	48 29 c3             	sub    %rax,%rbx
  407c81:	48 89 d8             	mov    %rbx,%rax
  407c84:	48 c1 f8 05          	sar    $0x5,%rax
  407c88:	48 83 c4 18          	add    $0x18,%rsp
  407c8c:	5b                   	pop    %rbx
  407c8d:	5d                   	pop    %rbp
  407c8e:	c3                   	retq   
  407c8f:	90                   	nop

0000000000407c90 <_ZNSt12_Vector_baseINSt7__cxx1112basic_stringIcSt11char_traitsIcESaIcEEESaIS5_EE11_M_allocateEm>:
  407c90:	55                   	push   %rbp
  407c91:	48 89 e5             	mov    %rsp,%rbp
  407c94:	48 83 ec 10          	sub    $0x10,%rsp
  407c98:	48 89 7d f8          	mov    %rdi,-0x8(%rbp)
  407c9c:	48 89 75 f0          	mov    %rsi,-0x10(%rbp)
  407ca0:	48 83 7d f0 00       	cmpq   $0x0,-0x10(%rbp)
  407ca5:	74 15                	je     407cbc <_ZNSt12_Vector_baseINSt7__cxx1112basic_stringIcSt11char_traitsIcESaIcEEESaIS5_EE11_M_allocateEm+0x2c>
  407ca7:	48 8b 45 f8          	mov    -0x8(%rbp),%rax
  407cab:	48 8b 55 f0          	mov    -0x10(%rbp),%rdx
  407caf:	48 89 d6             	mov    %rdx,%rsi
  407cb2:	48 89 c7             	mov    %rax,%rdi
  407cb5:	e8 8c 05 00 00       	callq  408246 <_ZNSt16allocator_traitsISaINSt7__cxx1112basic_stringIcSt11char_traitsIcESaIcEEEEE8allocateERS6_m>
  407cba:	eb 05                	jmp    407cc1 <_ZNSt12_Vector_baseINSt7__cxx1112basic_stringIcSt11char_traitsIcESaIcEEESaIS5_EE11_M_allocateEm+0x31>
  407cbc:	b8 00 00 00 00       	mov    $0x0,%eax
  407cc1:	c9                   	leaveq 
  407cc2:	c3                   	retq   

0000000000407cc3 <_ZSt34__uninitialized_move_if_noexcept_aIPNSt7__cxx1112basic_stringIcSt11char_traitsIcESaIcEEES6_SaIS5_EET0_T_S9_S8_RT1_>:
  407cc3:	55                   	push   %rbp
  407cc4:	48 89 e5             	mov    %rsp,%rbp
  407cc7:	53                   	push   %rbx
  407cc8:	48 83 ec 28          	sub    $0x28,%rsp
  407ccc:	48 89 7d e8          	mov    %rdi,-0x18(%rbp)
  407cd0:	48 89 75 e0          	mov    %rsi,-0x20(%rbp)
  407cd4:	48 89 55 d8          	mov    %rdx,-0x28(%rbp)
  407cd8:	48 89 4d d0          	mov    %rcx,-0x30(%rbp)
  407cdc:	48 8b 45 e0          	mov    -0x20(%rbp),%rax
  407ce0:	48 89 c7             	mov    %rax,%rdi
  407ce3:	e8 88 05 00 00       	callq  408270 <_ZSt32__make_move_if_noexcept_iteratorINSt7__cxx1112basic_stringIcSt11char_traitsIcESaIcEEESt13move_iteratorIPS5_EET0_PT_>
  407ce8:	48 89 c3             	mov    %rax,%rbx
  407ceb:	48 8b 45 e8          	mov    -0x18(%rbp),%rax
  407cef:	48 89 c7             	mov    %rax,%rdi
  407cf2:	e8 79 05 00 00       	callq  408270 <_ZSt32__make_move_if_noexcept_iteratorINSt7__cxx1112basic_stringIcSt11char_traitsIcESaIcEEESt13move_iteratorIPS5_EET0_PT_>
  407cf7:	48 89 c7             	mov    %rax,%rdi
  407cfa:	48 8b 55 d0          	mov    -0x30(%rbp),%rdx
  407cfe:	48 8b 45 d8          	mov    -0x28(%rbp),%rax
  407d02:	48 89 d1             	mov    %rdx,%rcx
  407d05:	48 89 c2             	mov    %rax,%rdx
  407d08:	48 89 de             	mov    %rbx,%rsi
  407d0b:	e8 85 05 00 00       	callq  408295 <_ZSt22__uninitialized_copy_aISt13move_iteratorIPNSt7__cxx1112basic_stringIcSt11char_traitsIcESaIcEEEES7_S6_ET0_T_SA_S9_RSaIT1_E>
  407d10:	48 83 c4 28          	add    $0x28,%rsp
  407d14:	5b                   	pop    %rbx
  407d15:	5d                   	pop    %rbp
  407d16:	c3                   	retq   
  407d17:	90                   	nop

0000000000407d18 <_ZN9__gnu_cxx13new_allocatorINSt7__cxx1112basic_stringIcSt11char_traitsIcESaIcEEEE7destroyIS6_EEvPT_>:
  407d18:	55                   	push   %rbp
  407d19:	48 89 e5             	mov    %rsp,%rbp
  407d1c:	48 83 ec 10          	sub    $0x10,%rsp
  407d20:	48 89 7d f8          	mov    %rdi,-0x8(%rbp)
  407d24:	48 89 75 f0          	mov    %rsi,-0x10(%rbp)
  407d28:	48 8b 45 f0          	mov    -0x10(%rbp),%rax
  407d2c:	48 89 c7             	mov    %rax,%rdi
  407d2f:	e8 5c b4 ff ff       	callq  403190 <_ZNSt7__cxx1112basic_stringIcSt11char_traitsIcESaIcEED1Ev@plt>
  407d34:	90                   	nop
  407d35:	c9                   	leaveq 
  407d36:	c3                   	retq   
  407d37:	90                   	nop

0000000000407d38 <_ZNSt12_Vector_baseIiSaIiEE12_Vector_implC1Ev>:
  407d38:	55                   	push   %rbp
  407d39:	48 89 e5             	mov    %rsp,%rbp
  407d3c:	48 83 ec 10          	sub    $0x10,%rsp
  407d40:	48 89 7d f8          	mov    %rdi,-0x8(%rbp)
  407d44:	48 8b 45 f8          	mov    -0x8(%rbp),%rax
  407d48:	48 89 c7             	mov    %rax,%rdi
  407d4b:	e8 76 05 00 00       	callq  4082c6 <_ZNSaIiEC1Ev>
  407d50:	48 8b 45 f8          	mov    -0x8(%rbp),%rax
  407d54:	48 c7 00 00 00 00 00 	movq   $0x0,(%rax)
  407d5b:	48 8b 45 f8          	mov    -0x8(%rbp),%rax
  407d5f:	48 c7 40 08 00 00 00 	movq   $0x0,0x8(%rax)
  407d66:	00 
  407d67:	48 8b 45 f8          	mov    -0x8(%rbp),%rax
  407d6b:	48 c7 40 10 00 00 00 	movq   $0x0,0x10(%rax)
  407d72:	00 
  407d73:	90                   	nop
  407d74:	c9                   	leaveq 
  407d75:	c3                   	retq   

0000000000407d76 <_ZNSaIiED1Ev>:
  407d76:	55                   	push   %rbp
  407d77:	48 89 e5             	mov    %rsp,%rbp
  407d7a:	48 83 ec 10          	sub    $0x10,%rsp
  407d7e:	48 89 7d f8          	mov    %rdi,-0x8(%rbp)
  407d82:	48 8b 45 f8          	mov    -0x8(%rbp),%rax
  407d86:	48 89 c7             	mov    %rax,%rdi
  407d89:	e8 54 05 00 00       	callq  4082e2 <_ZN9__gnu_cxx13new_allocatorIiED1Ev>
  407d8e:	90                   	nop
  407d8f:	c9                   	leaveq 
  407d90:	c3                   	retq   
  407d91:	90                   	nop

0000000000407d92 <_ZNSt12_Vector_baseIiSaIiEE13_M_deallocateEPim>:
  407d92:	55                   	push   %rbp
  407d93:	48 89 e5             	mov    %rsp,%rbp
  407d96:	48 83 ec 20          	sub    $0x20,%rsp
  407d9a:	48 89 7d f8          	mov    %rdi,-0x8(%rbp)
  407d9e:	48 89 75 f0          	mov    %rsi,-0x10(%rbp)
  407da2:	48 89 55 e8          	mov    %rdx,-0x18(%rbp)
  407da6:	48 83 7d f0 00       	cmpq   $0x0,-0x10(%rbp)
  407dab:	74 17                	je     407dc4 <_ZNSt12_Vector_baseIiSaIiEE13_M_deallocateEPim+0x32>
  407dad:	48 8b 45 f8          	mov    -0x8(%rbp),%rax
  407db1:	48 8b 55 e8          	mov    -0x18(%rbp),%rdx
  407db5:	48 8b 4d f0          	mov    -0x10(%rbp),%rcx
  407db9:	48 89 ce             	mov    %rcx,%rsi
  407dbc:	48 89 c7             	mov    %rax,%rdi
  407dbf:	e8 29 05 00 00       	callq  4082ed <_ZNSt16allocator_traitsISaIiEE10deallocateERS0_Pim>
  407dc4:	90                   	nop
  407dc5:	c9                   	leaveq 
  407dc6:	c3                   	retq   
  407dc7:	90                   	nop

0000000000407dc8 <_ZN9__gnu_cxx13new_allocatorIiE9constructIiJiEEEvPT_DpOT0_>:
  407dc8:	55                   	push   %rbp
  407dc9:	48 89 e5             	mov    %rsp,%rbp
  407dcc:	53                   	push   %rbx
  407dcd:	48 83 ec 28          	sub    $0x28,%rsp
  407dd1:	48 89 7d e8          	mov    %rdi,-0x18(%rbp)
  407dd5:	48 89 75 e0          	mov    %rsi,-0x20(%rbp)
  407dd9:	48 89 55 d8          	mov    %rdx,-0x28(%rbp)
  407ddd:	48 8b 45 d8          	mov    -0x28(%rbp),%rax
  407de1:	48 89 c7             	mov    %rax,%rdi
  407de4:	e8 22 f9 ff ff       	callq  40770b <_ZSt7forwardIiEOT_RNSt16remove_referenceIS0_E4typeE>
  407de9:	8b 18                	mov    (%rax),%ebx
  407deb:	48 8b 45 e0          	mov    -0x20(%rbp),%rax
  407def:	48 89 c6             	mov    %rax,%rsi
  407df2:	bf 04 00 00 00       	mov    $0x4,%edi
  407df7:	e8 13 ed ff ff       	callq  406b0f <_ZnwmPv>
  407dfc:	89 18                	mov    %ebx,(%rax)
  407dfe:	90                   	nop
  407dff:	48 83 c4 28          	add    $0x28,%rsp
  407e03:	5b                   	pop    %rbx
  407e04:	5d                   	pop    %rbp
  407e05:	c3                   	retq   

0000000000407e06 <_ZN9__gnu_cxx17__normal_iteratorIPiSt6vectorIiSaIiEEEC1ERKS1_>:
  407e06:	55                   	push   %rbp
  407e07:	48 89 e5             	mov    %rsp,%rbp
  407e0a:	48 89 7d f8          	mov    %rdi,-0x8(%rbp)
  407e0e:	48 89 75 f0          	mov    %rsi,-0x10(%rbp)
  407e12:	48 8b 45 f0          	mov    -0x10(%rbp),%rax
  407e16:	48 8b 10             	mov    (%rax),%rdx
  407e19:	48 8b 45 f8          	mov    -0x8(%rbp),%rax
  407e1d:	48 89 10             	mov    %rdx,(%rax)
  407e20:	90                   	nop
  407e21:	5d                   	pop    %rbp
  407e22:	c3                   	retq   
  407e23:	90                   	nop

0000000000407e24 <_ZNKSt6vectorIiSaIiEE12_M_check_lenEmPKc>:
  407e24:	55                   	push   %rbp
  407e25:	48 89 e5             	mov    %rsp,%rbp
  407e28:	53                   	push   %rbx
  407e29:	48 83 ec 38          	sub    $0x38,%rsp
  407e2d:	48 89 7d d8          	mov    %rdi,-0x28(%rbp)
  407e31:	48 89 75 d0          	mov    %rsi,-0x30(%rbp)
  407e35:	48 89 55 c8          	mov    %rdx,-0x38(%rbp)
  407e39:	48 8b 45 d8          	mov    -0x28(%rbp),%rax
  407e3d:	48 89 c7             	mov    %rax,%rdi
  407e40:	e8 d7 04 00 00       	callq  40831c <_ZNKSt6vectorIiSaIiEE8max_sizeEv>
  407e45:	48 89 c3             	mov    %rax,%rbx
  407e48:	48 8b 45 d8          	mov    -0x28(%rbp),%rax
  407e4c:	48 89 c7             	mov    %rax,%rdi
  407e4f:	e8 98 f2 ff ff       	callq  4070ec <_ZNKSt6vectorIiSaIiEE4sizeEv>
  407e54:	48 29 c3             	sub    %rax,%rbx
  407e57:	48 89 da             	mov    %rbx,%rdx
  407e5a:	48 8b 45 d0          	mov    -0x30(%rbp),%rax
  407e5e:	48 39 c2             	cmp    %rax,%rdx
  407e61:	0f 92 c0             	setb   %al
  407e64:	84 c0                	test   %al,%al
  407e66:	74 0c                	je     407e74 <_ZNKSt6vectorIiSaIiEE12_M_check_lenEmPKc+0x50>
  407e68:	48 8b 45 c8          	mov    -0x38(%rbp),%rax
  407e6c:	48 89 c7             	mov    %rax,%rdi
  407e6f:	e8 ec b2 ff ff       	callq  403160 <_ZSt20__throw_length_errorPKc@plt>
  407e74:	48 8b 45 d8          	mov    -0x28(%rbp),%rax
  407e78:	48 89 c7             	mov    %rax,%rdi
  407e7b:	e8 6c f2 ff ff       	callq  4070ec <_ZNKSt6vectorIiSaIiEE4sizeEv>
  407e80:	48 89 c3             	mov    %rax,%rbx
  407e83:	48 8b 45 d8          	mov    -0x28(%rbp),%rax
  407e87:	48 89 c7             	mov    %rax,%rdi
  407e8a:	e8 5d f2 ff ff       	callq  4070ec <_ZNKSt6vectorIiSaIiEE4sizeEv>
  407e8f:	48 89 45 e0          	mov    %rax,-0x20(%rbp)
  407e93:	48 8d 55 d0          	lea    -0x30(%rbp),%rdx
  407e97:	48 8d 45 e0          	lea    -0x20(%rbp),%rax
  407e9b:	48 89 d6             	mov    %rdx,%rsi
  407e9e:	48 89 c7             	mov    %rax,%rdi
  407ea1:	e8 75 03 00 00       	callq  40821b <_ZSt3maxImERKT_S2_S2_>
  407ea6:	48 8b 00             	mov    (%rax),%rax
  407ea9:	48 01 d8             	add    %rbx,%rax
  407eac:	48 89 45 e8          	mov    %rax,-0x18(%rbp)
  407eb0:	48 8b 45 d8          	mov    -0x28(%rbp),%rax
  407eb4:	48 89 c7             	mov    %rax,%rdi
  407eb7:	e8 30 f2 ff ff       	callq  4070ec <_ZNKSt6vectorIiSaIiEE4sizeEv>
  407ebc:	48 39 45 e8          	cmp    %rax,-0x18(%rbp)
  407ec0:	72 12                	jb     407ed4 <_ZNKSt6vectorIiSaIiEE12_M_check_lenEmPKc+0xb0>
  407ec2:	48 8b 45 d8          	mov    -0x28(%rbp),%rax
  407ec6:	48 89 c7             	mov    %rax,%rdi
  407ec9:	e8 4e 04 00 00       	callq  40831c <_ZNKSt6vectorIiSaIiEE8max_sizeEv>
  407ece:	48 39 45 e8          	cmp    %rax,-0x18(%rbp)
  407ed2:	76 0e                	jbe    407ee2 <_ZNKSt6vectorIiSaIiEE12_M_check_lenEmPKc+0xbe>
  407ed4:	48 8b 45 d8          	mov    -0x28(%rbp),%rax
  407ed8:	48 89 c7             	mov    %rax,%rdi
  407edb:	e8 3c 04 00 00       	callq  40831c <_ZNKSt6vectorIiSaIiEE8max_sizeEv>
  407ee0:	eb 04                	jmp    407ee6 <_ZNKSt6vectorIiSaIiEE12_M_check_lenEmPKc+0xc2>
  407ee2:	48 8b 45 e8          	mov    -0x18(%rbp),%rax
  407ee6:	48 83 c4 38          	add    $0x38,%rsp
  407eea:	5b                   	pop    %rbx
  407eeb:	5d                   	pop    %rbp
  407eec:	c3                   	retq   
  407eed:	90                   	nop

0000000000407eee <_ZNSt6vectorIiSaIiEE5beginEv>:
  407eee:	55                   	push   %rbp
  407eef:	48 89 e5             	mov    %rsp,%rbp
  407ef2:	48 83 ec 20          	sub    $0x20,%rsp
  407ef6:	48 89 7d e8          	mov    %rdi,-0x18(%rbp)
  407efa:	48 8b 55 e8          	mov    -0x18(%rbp),%rdx
  407efe:	48 8d 45 f8          	lea    -0x8(%rbp),%rax
  407f02:	48 89 d6             	mov    %rdx,%rsi
  407f05:	48 89 c7             	mov    %rax,%rdi
  407f08:	e8 f9 fe ff ff       	callq  407e06 <_ZN9__gnu_cxx17__normal_iteratorIPiSt6vectorIiSaIiEEEC1ERKS1_>
  407f0d:	48 8b 45 f8          	mov    -0x8(%rbp),%rax
  407f11:	c9                   	leaveq 
  407f12:	c3                   	retq   

0000000000407f13 <_ZN9__gnu_cxxmiIPiSt6vectorIiSaIiEEEENS_17__normal_iteratorIT_T0_E15difference_typeERKS8_SB_>:
  407f13:	55                   	push   %rbp
  407f14:	48 89 e5             	mov    %rsp,%rbp
  407f17:	53                   	push   %rbx
  407f18:	48 83 ec 18          	sub    $0x18,%rsp
  407f1c:	48 89 7d e8          	mov    %rdi,-0x18(%rbp)
  407f20:	48 89 75 e0          	mov    %rsi,-0x20(%rbp)
  407f24:	48 8b 45 e8          	mov    -0x18(%rbp),%rax
  407f28:	48 89 c7             	mov    %rax,%rdi
  407f2b:	e8 58 00 00 00       	callq  407f88 <_ZNK9__gnu_cxx17__normal_iteratorIPiSt6vectorIiSaIiEEE4baseEv>
  407f30:	48 8b 18             	mov    (%rax),%rbx
  407f33:	48 8b 45 e0          	mov    -0x20(%rbp),%rax
  407f37:	48 89 c7             	mov    %rax,%rdi
  407f3a:	e8 49 00 00 00       	callq  407f88 <_ZNK9__gnu_cxx17__normal_iteratorIPiSt6vectorIiSaIiEEE4baseEv>
  407f3f:	48 8b 00             	mov    (%rax),%rax
  407f42:	48 29 c3             	sub    %rax,%rbx
  407f45:	48 89 d8             	mov    %rbx,%rax
  407f48:	48 c1 f8 02          	sar    $0x2,%rax
  407f4c:	48 83 c4 18          	add    $0x18,%rsp
  407f50:	5b                   	pop    %rbx
  407f51:	5d                   	pop    %rbp
  407f52:	c3                   	retq   
  407f53:	90                   	nop

0000000000407f54 <_ZNSt12_Vector_baseIiSaIiEE11_M_allocateEm>:
  407f54:	55                   	push   %rbp
  407f55:	48 89 e5             	mov    %rsp,%rbp
  407f58:	48 83 ec 10          	sub    $0x10,%rsp
  407f5c:	48 89 7d f8          	mov    %rdi,-0x8(%rbp)
  407f60:	48 89 75 f0          	mov    %rsi,-0x10(%rbp)
  407f64:	48 83 7d f0 00       	cmpq   $0x0,-0x10(%rbp)
  407f69:	74 15                	je     407f80 <_ZNSt12_Vector_baseIiSaIiEE11_M_allocateEm+0x2c>
  407f6b:	48 8b 45 f8          	mov    -0x8(%rbp),%rax
  407f6f:	48 8b 55 f0          	mov    -0x10(%rbp),%rdx
  407f73:	48 89 d6             	mov    %rdx,%rsi
  407f76:	48 89 c7             	mov    %rax,%rdi
  407f79:	e8 c0 03 00 00       	callq  40833e <_ZNSt16allocator_traitsISaIiEE8allocateERS0_m>
  407f7e:	eb 05                	jmp    407f85 <_ZNSt12_Vector_baseIiSaIiEE11_M_allocateEm+0x31>
  407f80:	b8 00 00 00 00       	mov    $0x0,%eax
  407f85:	c9                   	leaveq 
  407f86:	c3                   	retq   
  407f87:	90                   	nop

0000000000407f88 <_ZNK9__gnu_cxx17__normal_iteratorIPiSt6vectorIiSaIiEEE4baseEv>:
  407f88:	55                   	push   %rbp
  407f89:	48 89 e5             	mov    %rsp,%rbp
  407f8c:	48 89 7d f8          	mov    %rdi,-0x8(%rbp)
  407f90:	48 8b 45 f8          	mov    -0x8(%rbp),%rax
  407f94:	5d                   	pop    %rbp
  407f95:	c3                   	retq   

0000000000407f96 <_ZNSt12_Vector_baseIiSaIiEE19_M_get_Tp_allocatorEv>:
  407f96:	55                   	push   %rbp
  407f97:	48 89 e5             	mov    %rsp,%rbp
  407f9a:	48 89 7d f8          	mov    %rdi,-0x8(%rbp)
  407f9e:	48 8b 45 f8          	mov    -0x8(%rbp),%rax
  407fa2:	5d                   	pop    %rbp
  407fa3:	c3                   	retq   

0000000000407fa4 <_ZSt34__uninitialized_move_if_noexcept_aIPiS0_SaIiEET0_T_S3_S2_RT1_>:
  407fa4:	55                   	push   %rbp
  407fa5:	48 89 e5             	mov    %rsp,%rbp
  407fa8:	53                   	push   %rbx
  407fa9:	48 83 ec 28          	sub    $0x28,%rsp
  407fad:	48 89 7d e8          	mov    %rdi,-0x18(%rbp)
  407fb1:	48 89 75 e0          	mov    %rsi,-0x20(%rbp)
  407fb5:	48 89 55 d8          	mov    %rdx,-0x28(%rbp)
  407fb9:	48 89 4d d0          	mov    %rcx,-0x30(%rbp)
  407fbd:	48 8b 45 e0          	mov    -0x20(%rbp),%rax
  407fc1:	48 89 c7             	mov    %rax,%rdi
  407fc4:	e8 9f 03 00 00       	callq  408368 <_ZSt32__make_move_if_noexcept_iteratorIiSt13move_iteratorIPiEET0_PT_>
  407fc9:	48 89 c3             	mov    %rax,%rbx
  407fcc:	48 8b 45 e8          	mov    -0x18(%rbp),%rax
  407fd0:	48 89 c7             	mov    %rax,%rdi
  407fd3:	e8 90 03 00 00       	callq  408368 <_ZSt32__make_move_if_noexcept_iteratorIiSt13move_iteratorIPiEET0_PT_>
  407fd8:	48 89 c7             	mov    %rax,%rdi
  407fdb:	48 8b 55 d0          	mov    -0x30(%rbp),%rdx
  407fdf:	48 8b 45 d8          	mov    -0x28(%rbp),%rax
  407fe3:	48 89 d1             	mov    %rdx,%rcx
  407fe6:	48 89 c2             	mov    %rax,%rdx
  407fe9:	48 89 de             	mov    %rbx,%rsi
  407fec:	e8 9c 03 00 00       	callq  40838d <_ZSt22__uninitialized_copy_aISt13move_iteratorIPiES1_iET0_T_S4_S3_RSaIT1_E>
  407ff1:	48 83 c4 28          	add    $0x28,%rsp
  407ff5:	5b                   	pop    %rbx
  407ff6:	5d                   	pop    %rbp
  407ff7:	c3                   	retq   

0000000000407ff8 <_ZNSt16allocator_traitsISaIiEE7destroyIiEEvRS0_PT_>:
  407ff8:	55                   	push   %rbp
  407ff9:	48 89 e5             	mov    %rsp,%rbp
  407ffc:	48 83 ec 10          	sub    $0x10,%rsp
  408000:	48 89 7d f8          	mov    %rdi,-0x8(%rbp)
  408004:	48 89 75 f0          	mov    %rsi,-0x10(%rbp)
  408008:	48 8b 55 f0          	mov    -0x10(%rbp),%rdx
  40800c:	48 8b 45 f8          	mov    -0x8(%rbp),%rax
  408010:	48 89 d6             	mov    %rdx,%rsi
  408013:	48 89 c7             	mov    %rax,%rdi
  408016:	e8 a3 03 00 00       	callq  4083be <_ZN9__gnu_cxx13new_allocatorIiE7destroyIiEEvPT_>
  40801b:	90                   	nop
  40801c:	c9                   	leaveq 
  40801d:	c3                   	retq   

000000000040801e <_ZSt8_DestroyIPiiEvT_S1_RSaIT0_E>:
  40801e:	55                   	push   %rbp
  40801f:	48 89 e5             	mov    %rsp,%rbp
  408022:	48 83 ec 20          	sub    $0x20,%rsp
  408026:	48 89 7d f8          	mov    %rdi,-0x8(%rbp)
  40802a:	48 89 75 f0          	mov    %rsi,-0x10(%rbp)
  40802e:	48 89 55 e8          	mov    %rdx,-0x18(%rbp)
  408032:	48 8b 55 f0          	mov    -0x10(%rbp),%rdx
  408036:	48 8b 45 f8          	mov    -0x8(%rbp),%rax
  40803a:	48 89 d6             	mov    %rdx,%rsi
  40803d:	48 89 c7             	mov    %rax,%rdi
  408040:	e8 88 03 00 00       	callq  4083cd <_ZSt8_DestroyIPiEvT_S1_>
  408045:	90                   	nop
  408046:	c9                   	leaveq 
  408047:	c3                   	retq   

0000000000408048 <_ZNSaINSt7__cxx1112basic_stringIcSt11char_traitsIcESaIcEEEEC1Ev>:
  408048:	55                   	push   %rbp
  408049:	48 89 e5             	mov    %rsp,%rbp
  40804c:	48 83 ec 10          	sub    $0x10,%rsp
  408050:	48 89 7d f8          	mov    %rdi,-0x8(%rbp)
  408054:	48 8b 45 f8          	mov    -0x8(%rbp),%rax
  408058:	48 89 c7             	mov    %rax,%rdi
  40805b:	e8 94 03 00 00       	callq  4083f4 <_ZN9__gnu_cxx13new_allocatorINSt7__cxx1112basic_stringIcSt11char_traitsIcESaIcEEEEC1Ev>
  408060:	90                   	nop
  408061:	c9                   	leaveq 
  408062:	c3                   	retq   
  408063:	90                   	nop

0000000000408064 <_ZN9__gnu_cxx13new_allocatorINSt7__cxx1112basic_stringIcSt11char_traitsIcESaIcEEEED1Ev>:
  408064:	55                   	push   %rbp
  408065:	48 89 e5             	mov    %rsp,%rbp
  408068:	48 89 7d f8          	mov    %rdi,-0x8(%rbp)
  40806c:	90                   	nop
  40806d:	5d                   	pop    %rbp
  40806e:	c3                   	retq   

000000000040806f <_ZNSt16allocator_traitsISaINSt7__cxx1112basic_stringIcSt11char_traitsIcESaIcEEEEE10deallocateERS6_PS5_m>:
  40806f:	55                   	push   %rbp
  408070:	48 89 e5             	mov    %rsp,%rbp
  408073:	48 83 ec 20          	sub    $0x20,%rsp
  408077:	48 89 7d f8          	mov    %rdi,-0x8(%rbp)
  40807b:	48 89 75 f0          	mov    %rsi,-0x10(%rbp)
  40807f:	48 89 55 e8          	mov    %rdx,-0x18(%rbp)
  408083:	48 8b 55 e8          	mov    -0x18(%rbp),%rdx
  408087:	48 8b 4d f0          	mov    -0x10(%rbp),%rcx
  40808b:	48 8b 45 f8          	mov    -0x8(%rbp),%rax
  40808f:	48 89 ce             	mov    %rcx,%rsi
  408092:	48 89 c7             	mov    %rax,%rdi
  408095:	e8 66 03 00 00       	callq  408400 <_ZN9__gnu_cxx13new_allocatorINSt7__cxx1112basic_stringIcSt11char_traitsIcESaIcEEEE10deallocateEPS6_m>
  40809a:	90                   	nop
  40809b:	c9                   	leaveq 
  40809c:	c3                   	retq   
  40809d:	90                   	nop

000000000040809e <_ZNSt7__cxx1112basic_stringIcSt11char_traitsIcESaIcEE12_M_constructIPcEEvT_S7_St20forward_iterator_tag>:
  40809e:	55                   	push   %rbp
  40809f:	48 89 e5             	mov    %rsp,%rbp
  4080a2:	53                   	push   %rbx
  4080a3:	48 83 ec 38          	sub    $0x38,%rsp
  4080a7:	48 89 7d d8          	mov    %rdi,-0x28(%rbp)
  4080ab:	48 89 75 d0          	mov    %rsi,-0x30(%rbp)
  4080af:	48 89 55 c8          	mov    %rdx,-0x38(%rbp)
  4080b3:	48 8b 45 d0          	mov    -0x30(%rbp),%rax
  4080b7:	48 89 c7             	mov    %rax,%rdi
  4080ba:	e8 64 03 00 00       	callq  408423 <_ZN9__gnu_cxx17__is_null_pointerIcEEbPT_>
  4080bf:	84 c0                	test   %al,%al
  4080c1:	74 11                	je     4080d4 <_ZNSt7__cxx1112basic_stringIcSt11char_traitsIcESaIcEE12_M_constructIPcEEvT_S7_St20forward_iterator_tag+0x36>
  4080c3:	48 8b 45 d0          	mov    -0x30(%rbp),%rax
  4080c7:	48 3b 45 c8          	cmp    -0x38(%rbp),%rax
  4080cb:	74 07                	je     4080d4 <_ZNSt7__cxx1112basic_stringIcSt11char_traitsIcESaIcEE12_M_constructIPcEEvT_S7_St20forward_iterator_tag+0x36>
  4080cd:	b8 01 00 00 00       	mov    $0x1,%eax
  4080d2:	eb 05                	jmp    4080d9 <_ZNSt7__cxx1112basic_stringIcSt11char_traitsIcESaIcEE12_M_constructIPcEEvT_S7_St20forward_iterator_tag+0x3b>
  4080d4:	b8 00 00 00 00       	mov    $0x0,%eax
  4080d9:	84 c0                	test   %al,%al
  4080db:	74 0a                	je     4080e7 <_ZNSt7__cxx1112basic_stringIcSt11char_traitsIcESaIcEE12_M_constructIPcEEvT_S7_St20forward_iterator_tag+0x49>
  4080dd:	bf 70 e4 40 00       	mov    $0x40e470,%edi
  4080e2:	e8 09 b1 ff ff       	callq  4031f0 <_ZSt19__throw_logic_errorPKc@plt>
  4080e7:	48 8b 55 c8          	mov    -0x38(%rbp),%rdx
  4080eb:	48 8b 45 d0          	mov    -0x30(%rbp),%rax
  4080ef:	48 89 d6             	mov    %rdx,%rsi
  4080f2:	48 89 c7             	mov    %rax,%rdi
  4080f5:	e8 3b 03 00 00       	callq  408435 <_ZSt8distanceIPcENSt15iterator_traitsIT_E15difference_typeES2_S2_>
  4080fa:	48 89 45 e8          	mov    %rax,-0x18(%rbp)
  4080fe:	48 8b 45 e8          	mov    -0x18(%rbp),%rax
  408102:	48 83 f8 0f          	cmp    $0xf,%rax
  408106:	76 3d                	jbe    408145 <_ZNSt7__cxx1112basic_stringIcSt11char_traitsIcESaIcEE12_M_constructIPcEEvT_S7_St20forward_iterator_tag+0xa7>
  408108:	48 8d 4d e8          	lea    -0x18(%rbp),%rcx
  40810c:	48 8b 45 d8          	mov    -0x28(%rbp),%rax
  408110:	ba 00 00 00 00       	mov    $0x0,%edx
  408115:	48 89 ce             	mov    %rcx,%rsi
  408118:	48 89 c7             	mov    %rax,%rdi
  40811b:	e8 70 b3 ff ff       	callq  403490 <_ZNSt7__cxx1112basic_stringIcSt11char_traitsIcESaIcEE9_M_createERmm@plt>
  408120:	48 89 c2             	mov    %rax,%rdx
  408123:	48 8b 45 d8          	mov    -0x28(%rbp),%rax
  408127:	48 89 d6             	mov    %rdx,%rsi
  40812a:	48 89 c7             	mov    %rax,%rdi
  40812d:	e8 fe b0 ff ff       	callq  403230 <_ZNSt7__cxx1112basic_stringIcSt11char_traitsIcESaIcEE7_M_dataEPc@plt>
  408132:	48 8b 55 e8          	mov    -0x18(%rbp),%rdx
  408136:	48 8b 45 d8          	mov    -0x28(%rbp),%rax
  40813a:	48 89 d6             	mov    %rdx,%rsi
  40813d:	48 89 c7             	mov    %rax,%rdi
  408140:	e8 ab b3 ff ff       	callq  4034f0 <_ZNSt7__cxx1112basic_stringIcSt11char_traitsIcESaIcEE11_M_capacityEm@plt>
  408145:	48 8b 45 d8          	mov    -0x28(%rbp),%rax
  408149:	48 89 c7             	mov    %rax,%rdi
  40814c:	e8 8f b1 ff ff       	callq  4032e0 <_ZNKSt7__cxx1112basic_stringIcSt11char_traitsIcESaIcEE7_M_dataEv@plt>
  408151:	48 89 c1             	mov    %rax,%rcx
  408154:	48 8b 55 c8          	mov    -0x38(%rbp),%rdx
  408158:	48 8b 45 d0          	mov    -0x30(%rbp),%rax
  40815c:	48 89 c6             	mov    %rax,%rsi
  40815f:	48 89 cf             	mov    %rcx,%rdi
  408162:	e8 79 af ff ff       	callq  4030e0 <_ZNSt7__cxx1112basic_stringIcSt11char_traitsIcESaIcEE13_S_copy_charsEPcS5_S5_@plt>
  408167:	48 8b 55 e8          	mov    -0x18(%rbp),%rdx
  40816b:	48 8b 45 d8          	mov    -0x28(%rbp),%rax
  40816f:	48 89 d6             	mov    %rdx,%rsi
  408172:	48 89 c7             	mov    %rax,%rdi
  408175:	e8 46 b0 ff ff       	callq  4031c0 <_ZNSt7__cxx1112basic_stringIcSt11char_traitsIcESaIcEE13_M_set_lengthEm@plt>
  40817a:	eb 2c                	jmp    4081a8 <_ZNSt7__cxx1112basic_stringIcSt11char_traitsIcESaIcEE12_M_constructIPcEEvT_S7_St20forward_iterator_tag+0x10a>
  40817c:	48 89 c7             	mov    %rax,%rdi
  40817f:	e8 8c af ff ff       	callq  403110 <__cxa_begin_catch@plt>
  408184:	48 8b 45 d8          	mov    -0x28(%rbp),%rax
  408188:	48 89 c7             	mov    %rax,%rdi
  40818b:	e8 90 b1 ff ff       	callq  403320 <_ZNSt7__cxx1112basic_stringIcSt11char_traitsIcESaIcEE10_M_disposeEv@plt>
  408190:	e8 0b b2 ff ff       	callq  4033a0 <__cxa_rethrow@plt>
  408195:	48 89 c3             	mov    %rax,%rbx
  408198:	e8 83 b2 ff ff       	callq  403420 <__cxa_end_catch@plt>
  40819d:	48 89 d8             	mov    %rbx,%rax
  4081a0:	48 89 c7             	mov    %rax,%rdi
  4081a3:	e8 c8 b2 ff ff       	callq  403470 <_Unwind_Resume@plt>
  4081a8:	48 83 c4 38          	add    $0x38,%rsp
  4081ac:	5b                   	pop    %rbx
  4081ad:	5d                   	pop    %rbp
  4081ae:	c3                   	retq   

00000000004081af <_ZSt8_DestroyIPNSt7__cxx1112basic_stringIcSt11char_traitsIcESaIcEEEEvT_S7_>:
  4081af:	55                   	push   %rbp
  4081b0:	48 89 e5             	mov    %rsp,%rbp
  4081b3:	48 83 ec 10          	sub    $0x10,%rsp
  4081b7:	48 89 7d f8          	mov    %rdi,-0x8(%rbp)
  4081bb:	48 89 75 f0          	mov    %rsi,-0x10(%rbp)
  4081bf:	48 8b 55 f0          	mov    -0x10(%rbp),%rdx
  4081c3:	48 8b 45 f8          	mov    -0x8(%rbp),%rax
  4081c7:	48 89 d6             	mov    %rdx,%rsi
  4081ca:	48 89 c7             	mov    %rax,%rdi
  4081cd:	e8 95 02 00 00       	callq  408467 <_ZNSt12_Destroy_auxILb0EE9__destroyIPNSt7__cxx1112basic_stringIcSt11char_traitsIcESaIcEEEEEvT_S9_>
  4081d2:	90                   	nop
  4081d3:	c9                   	leaveq 
  4081d4:	c3                   	retq   
  4081d5:	90                   	nop

00000000004081d6 <_ZNKSt6vectorINSt7__cxx1112basic_stringIcSt11char_traitsIcESaIcEEESaIS5_EE8max_sizeEv>:
  4081d6:	55                   	push   %rbp
  4081d7:	48 89 e5             	mov    %rsp,%rbp
  4081da:	48 83 ec 10          	sub    $0x10,%rsp
  4081de:	48 89 7d f8          	mov    %rdi,-0x8(%rbp)
  4081e2:	48 8b 45 f8          	mov    -0x8(%rbp),%rax
  4081e6:	48 89 c7             	mov    %rax,%rdi
  4081e9:	e8 cc 02 00 00       	callq  4084ba <_ZNKSt12_Vector_baseINSt7__cxx1112basic_stringIcSt11char_traitsIcESaIcEEESaIS5_EE19_M_get_Tp_allocatorEv>
  4081ee:	48 89 c7             	mov    %rax,%rdi
  4081f1:	e8 a9 02 00 00       	callq  40849f <_ZNSt16allocator_traitsISaINSt7__cxx1112basic_stringIcSt11char_traitsIcESaIcEEEEE8max_sizeERKS6_>
  4081f6:	c9                   	leaveq 
  4081f7:	c3                   	retq   

00000000004081f8 <_ZNKSt6vectorINSt7__cxx1112basic_stringIcSt11char_traitsIcESaIcEEESaIS5_EE4sizeEv>:
  4081f8:	55                   	push   %rbp
  4081f9:	48 89 e5             	mov    %rsp,%rbp
  4081fc:	48 89 7d f8          	mov    %rdi,-0x8(%rbp)
  408200:	48 8b 45 f8          	mov    -0x8(%rbp),%rax
  408204:	48 8b 50 08          	mov    0x8(%rax),%rdx
  408208:	48 8b 45 f8          	mov    -0x8(%rbp),%rax
  40820c:	48 8b 00             	mov    (%rax),%rax
  40820f:	48 29 c2             	sub    %rax,%rdx
  408212:	48 89 d0             	mov    %rdx,%rax
  408215:	48 c1 f8 05          	sar    $0x5,%rax
  408219:	5d                   	pop    %rbp
  40821a:	c3                   	retq   

000000000040821b <_ZSt3maxImERKT_S2_S2_>:
  40821b:	55                   	push   %rbp
  40821c:	48 89 e5             	mov    %rsp,%rbp
  40821f:	48 89 7d f8          	mov    %rdi,-0x8(%rbp)
  408223:	48 89 75 f0          	mov    %rsi,-0x10(%rbp)
  408227:	48 8b 45 f8          	mov    -0x8(%rbp),%rax
  40822b:	48 8b 10             	mov    (%rax),%rdx
  40822e:	48 8b 45 f0          	mov    -0x10(%rbp),%rax
  408232:	48 8b 00             	mov    (%rax),%rax
  408235:	48 39 c2             	cmp    %rax,%rdx
  408238:	73 06                	jae    408240 <_ZSt3maxImERKT_S2_S2_+0x25>
  40823a:	48 8b 45 f0          	mov    -0x10(%rbp),%rax
  40823e:	eb 04                	jmp    408244 <_ZSt3maxImERKT_S2_S2_+0x29>
  408240:	48 8b 45 f8          	mov    -0x8(%rbp),%rax
  408244:	5d                   	pop    %rbp
  408245:	c3                   	retq   

0000000000408246 <_ZNSt16allocator_traitsISaINSt7__cxx1112basic_stringIcSt11char_traitsIcESaIcEEEEE8allocateERS6_m>:
  408246:	55                   	push   %rbp
  408247:	48 89 e5             	mov    %rsp,%rbp
  40824a:	48 83 ec 10          	sub    $0x10,%rsp
  40824e:	48 89 7d f8          	mov    %rdi,-0x8(%rbp)
  408252:	48 89 75 f0          	mov    %rsi,-0x10(%rbp)
  408256:	48 8b 4d f0          	mov    -0x10(%rbp),%rcx
  40825a:	48 8b 45 f8          	mov    -0x8(%rbp),%rax
  40825e:	ba 00 00 00 00       	mov    $0x0,%edx
  408263:	48 89 ce             	mov    %rcx,%rsi
  408266:	48 89 c7             	mov    %rax,%rdi
  408269:	e8 5a 02 00 00       	callq  4084c8 <_ZN9__gnu_cxx13new_allocatorINSt7__cxx1112basic_stringIcSt11char_traitsIcESaIcEEEE8allocateEmPKv>
  40826e:	c9                   	leaveq 
  40826f:	c3                   	retq   

0000000000408270 <_ZSt32__make_move_if_noexcept_iteratorINSt7__cxx1112basic_stringIcSt11char_traitsIcESaIcEEESt13move_iteratorIPS5_EET0_PT_>:
  408270:	55                   	push   %rbp
  408271:	48 89 e5             	mov    %rsp,%rbp
  408274:	48 83 ec 20          	sub    $0x20,%rsp
  408278:	48 89 7d e8          	mov    %rdi,-0x18(%rbp)
  40827c:	48 8b 55 e8          	mov    -0x18(%rbp),%rdx
  408280:	48 8d 45 f8          	lea    -0x8(%rbp),%rax
  408284:	48 89 d6             	mov    %rdx,%rsi
  408287:	48 89 c7             	mov    %rax,%rdi
  40828a:	e8 7b 02 00 00       	callq  40850a <_ZNSt13move_iteratorIPNSt7__cxx1112basic_stringIcSt11char_traitsIcESaIcEEEEC1ES6_>
  40828f:	48 8b 45 f8          	mov    -0x8(%rbp),%rax
  408293:	c9                   	leaveq 
  408294:	c3                   	retq   

0000000000408295 <_ZSt22__uninitialized_copy_aISt13move_iteratorIPNSt7__cxx1112basic_stringIcSt11char_traitsIcESaIcEEEES7_S6_ET0_T_SA_S9_RSaIT1_E>:
  408295:	55                   	push   %rbp
  408296:	48 89 e5             	mov    %rsp,%rbp
  408299:	48 83 ec 20          	sub    $0x20,%rsp
  40829d:	48 89 7d f8          	mov    %rdi,-0x8(%rbp)
  4082a1:	48 89 75 f0          	mov    %rsi,-0x10(%rbp)
  4082a5:	48 89 55 e8          	mov    %rdx,-0x18(%rbp)
  4082a9:	48 89 4d e0          	mov    %rcx,-0x20(%rbp)
  4082ad:	48 8b 55 e8          	mov    -0x18(%rbp),%rdx
  4082b1:	48 8b 4d f0          	mov    -0x10(%rbp),%rcx
  4082b5:	48 8b 45 f8          	mov    -0x8(%rbp),%rax
  4082b9:	48 89 ce             	mov    %rcx,%rsi
  4082bc:	48 89 c7             	mov    %rax,%rdi
  4082bf:	e8 60 02 00 00       	callq  408524 <_ZSt18uninitialized_copyISt13move_iteratorIPNSt7__cxx1112basic_stringIcSt11char_traitsIcESaIcEEEES7_ET0_T_SA_S9_>
  4082c4:	c9                   	leaveq 
  4082c5:	c3                   	retq   

00000000004082c6 <_ZNSaIiEC1Ev>:
  4082c6:	55                   	push   %rbp
  4082c7:	48 89 e5             	mov    %rsp,%rbp
  4082ca:	48 83 ec 10          	sub    $0x10,%rsp
  4082ce:	48 89 7d f8          	mov    %rdi,-0x8(%rbp)
  4082d2:	48 8b 45 f8          	mov    -0x8(%rbp),%rax
  4082d6:	48 89 c7             	mov    %rax,%rdi
  4082d9:	e8 78 02 00 00       	callq  408556 <_ZN9__gnu_cxx13new_allocatorIiEC1Ev>
  4082de:	90                   	nop
  4082df:	c9                   	leaveq 
  4082e0:	c3                   	retq   
  4082e1:	90                   	nop

00000000004082e2 <_ZN9__gnu_cxx13new_allocatorIiED1Ev>:
  4082e2:	55                   	push   %rbp
  4082e3:	48 89 e5             	mov    %rsp,%rbp
  4082e6:	48 89 7d f8          	mov    %rdi,-0x8(%rbp)
  4082ea:	90                   	nop
  4082eb:	5d                   	pop    %rbp
  4082ec:	c3                   	retq   

00000000004082ed <_ZNSt16allocator_traitsISaIiEE10deallocateERS0_Pim>:
  4082ed:	55                   	push   %rbp
  4082ee:	48 89 e5             	mov    %rsp,%rbp
  4082f1:	48 83 ec 20          	sub    $0x20,%rsp
  4082f5:	48 89 7d f8          	mov    %rdi,-0x8(%rbp)
  4082f9:	48 89 75 f0          	mov    %rsi,-0x10(%rbp)
  4082fd:	48 89 55 e8          	mov    %rdx,-0x18(%rbp)
  408301:	48 8b 55 e8          	mov    -0x18(%rbp),%rdx
  408305:	48 8b 4d f0          	mov    -0x10(%rbp),%rcx
  408309:	48 8b 45 f8          	mov    -0x8(%rbp),%rax
  40830d:	48 89 ce             	mov    %rcx,%rsi
  408310:	48 89 c7             	mov    %rax,%rdi
  408313:	e8 4a 02 00 00       	callq  408562 <_ZN9__gnu_cxx13new_allocatorIiE10deallocateEPim>
  408318:	90                   	nop
  408319:	c9                   	leaveq 
  40831a:	c3                   	retq   
  40831b:	90                   	nop

000000000040831c <_ZNKSt6vectorIiSaIiEE8max_sizeEv>:
  40831c:	55                   	push   %rbp
  40831d:	48 89 e5             	mov    %rsp,%rbp
  408320:	48 83 ec 10          	sub    $0x10,%rsp
  408324:	48 89 7d f8          	mov    %rdi,-0x8(%rbp)
  408328:	48 8b 45 f8          	mov    -0x8(%rbp),%rax
  40832c:	48 89 c7             	mov    %rax,%rdi
  40832f:	e8 6c 02 00 00       	callq  4085a0 <_ZNKSt12_Vector_baseIiSaIiEE19_M_get_Tp_allocatorEv>
  408334:	48 89 c7             	mov    %rax,%rdi
  408337:	e8 49 02 00 00       	callq  408585 <_ZNSt16allocator_traitsISaIiEE8max_sizeERKS0_>
  40833c:	c9                   	leaveq 
  40833d:	c3                   	retq   

000000000040833e <_ZNSt16allocator_traitsISaIiEE8allocateERS0_m>:
  40833e:	55                   	push   %rbp
  40833f:	48 89 e5             	mov    %rsp,%rbp
  408342:	48 83 ec 10          	sub    $0x10,%rsp
  408346:	48 89 7d f8          	mov    %rdi,-0x8(%rbp)
  40834a:	48 89 75 f0          	mov    %rsi,-0x10(%rbp)
  40834e:	48 8b 4d f0          	mov    -0x10(%rbp),%rcx
  408352:	48 8b 45 f8          	mov    -0x8(%rbp),%rax
  408356:	ba 00 00 00 00       	mov    $0x0,%edx
  40835b:	48 89 ce             	mov    %rcx,%rsi
  40835e:	48 89 c7             	mov    %rax,%rdi
  408361:	e8 48 02 00 00       	callq  4085ae <_ZN9__gnu_cxx13new_allocatorIiE8allocateEmPKv>
  408366:	c9                   	leaveq 
  408367:	c3                   	retq   

0000000000408368 <_ZSt32__make_move_if_noexcept_iteratorIiSt13move_iteratorIPiEET0_PT_>:
  408368:	55                   	push   %rbp
  408369:	48 89 e5             	mov    %rsp,%rbp
  40836c:	48 83 ec 20          	sub    $0x20,%rsp
  408370:	48 89 7d e8          	mov    %rdi,-0x18(%rbp)
  408374:	48 8b 55 e8          	mov    -0x18(%rbp),%rdx
  408378:	48 8d 45 f8          	lea    -0x8(%rbp),%rax
  40837c:	48 89 d6             	mov    %rdx,%rsi
  40837f:	48 89 c7             	mov    %rax,%rdi
  408382:	e8 69 02 00 00       	callq  4085f0 <_ZNSt13move_iteratorIPiEC1ES0_>
  408387:	48 8b 45 f8          	mov    -0x8(%rbp),%rax
  40838b:	c9                   	leaveq 
  40838c:	c3                   	retq   

000000000040838d <_ZSt22__uninitialized_copy_aISt13move_iteratorIPiES1_iET0_T_S4_S3_RSaIT1_E>:
  40838d:	55                   	push   %rbp
  40838e:	48 89 e5             	mov    %rsp,%rbp
  408391:	48 83 ec 20          	sub    $0x20,%rsp
  408395:	48 89 7d f8          	mov    %rdi,-0x8(%rbp)
  408399:	48 89 75 f0          	mov    %rsi,-0x10(%rbp)
  40839d:	48 89 55 e8          	mov    %rdx,-0x18(%rbp)
  4083a1:	48 89 4d e0          	mov    %rcx,-0x20(%rbp)
  4083a5:	48 8b 55 e8          	mov    -0x18(%rbp),%rdx
  4083a9:	48 8b 4d f0          	mov    -0x10(%rbp),%rcx
  4083ad:	48 8b 45 f8          	mov    -0x8(%rbp),%rax
  4083b1:	48 89 ce             	mov    %rcx,%rsi
  4083b4:	48 89 c7             	mov    %rax,%rdi
  4083b7:	e8 4e 02 00 00       	callq  40860a <_ZSt18uninitialized_copyISt13move_iteratorIPiES1_ET0_T_S4_S3_>
  4083bc:	c9                   	leaveq 
  4083bd:	c3                   	retq   

00000000004083be <_ZN9__gnu_cxx13new_allocatorIiE7destroyIiEEvPT_>:
  4083be:	55                   	push   %rbp
  4083bf:	48 89 e5             	mov    %rsp,%rbp
  4083c2:	48 89 7d f8          	mov    %rdi,-0x8(%rbp)
  4083c6:	48 89 75 f0          	mov    %rsi,-0x10(%rbp)
  4083ca:	90                   	nop
  4083cb:	5d                   	pop    %rbp
  4083cc:	c3                   	retq   

00000000004083cd <_ZSt8_DestroyIPiEvT_S1_>:
  4083cd:	55                   	push   %rbp
  4083ce:	48 89 e5             	mov    %rsp,%rbp
  4083d1:	48 83 ec 10          	sub    $0x10,%rsp
  4083d5:	48 89 7d f8          	mov    %rdi,-0x8(%rbp)
  4083d9:	48 89 75 f0          	mov    %rsi,-0x10(%rbp)
  4083dd:	48 8b 55 f0          	mov    -0x10(%rbp),%rdx
  4083e1:	48 8b 45 f8          	mov    -0x8(%rbp),%rax
  4083e5:	48 89 d6             	mov    %rdx,%rsi
  4083e8:	48 89 c7             	mov    %rax,%rdi
  4083eb:	e8 4b 02 00 00       	callq  40863b <_ZNSt12_Destroy_auxILb1EE9__destroyIPiEEvT_S3_>
  4083f0:	90                   	nop
  4083f1:	c9                   	leaveq 
  4083f2:	c3                   	retq   
  4083f3:	90                   	nop

00000000004083f4 <_ZN9__gnu_cxx13new_allocatorINSt7__cxx1112basic_stringIcSt11char_traitsIcESaIcEEEEC1Ev>:
  4083f4:	55                   	push   %rbp
  4083f5:	48 89 e5             	mov    %rsp,%rbp
  4083f8:	48 89 7d f8          	mov    %rdi,-0x8(%rbp)
  4083fc:	90                   	nop
  4083fd:	5d                   	pop    %rbp
  4083fe:	c3                   	retq   
  4083ff:	90                   	nop

0000000000408400 <_ZN9__gnu_cxx13new_allocatorINSt7__cxx1112basic_stringIcSt11char_traitsIcESaIcEEEE10deallocateEPS6_m>:
  408400:	55                   	push   %rbp
  408401:	48 89 e5             	mov    %rsp,%rbp
  408404:	48 83 ec 20          	sub    $0x20,%rsp
  408408:	48 89 7d f8          	mov    %rdi,-0x8(%rbp)
  40840c:	48 89 75 f0          	mov    %rsi,-0x10(%rbp)
  408410:	48 89 55 e8          	mov    %rdx,-0x18(%rbp)
  408414:	48 8b 45 f0          	mov    -0x10(%rbp),%rax
  408418:	48 89 c7             	mov    %rax,%rdi
  40841b:	e8 40 ae ff ff       	callq  403260 <_ZdlPv@plt>
  408420:	90                   	nop
  408421:	c9                   	leaveq 
  408422:	c3                   	retq   

0000000000408423 <_ZN9__gnu_cxx17__is_null_pointerIcEEbPT_>:
  408423:	55                   	push   %rbp
  408424:	48 89 e5             	mov    %rsp,%rbp
  408427:	48 89 7d f8          	mov    %rdi,-0x8(%rbp)
  40842b:	48 83 7d f8 00       	cmpq   $0x0,-0x8(%rbp)
  408430:	0f 94 c0             	sete   %al
  408433:	5d                   	pop    %rbp
  408434:	c3                   	retq   

0000000000408435 <_ZSt8distanceIPcENSt15iterator_traitsIT_E15difference_typeES2_S2_>:
  408435:	55                   	push   %rbp
  408436:	48 89 e5             	mov    %rsp,%rbp
  408439:	48 83 ec 20          	sub    $0x20,%rsp
  40843d:	48 89 7d e8          	mov    %rdi,-0x18(%rbp)
  408441:	48 89 75 e0          	mov    %rsi,-0x20(%rbp)
  408445:	48 8d 45 e8          	lea    -0x18(%rbp),%rax
  408449:	48 89 c7             	mov    %rax,%rdi
  40844c:	e8 f9 01 00 00       	callq  40864a <_ZSt19__iterator_categoryIPcENSt15iterator_traitsIT_E17iterator_categoryERKS2_>
  408451:	48 8b 45 e8          	mov    -0x18(%rbp),%rax
  408455:	48 8b 55 e0          	mov    -0x20(%rbp),%rdx
  408459:	48 89 d6             	mov    %rdx,%rsi
  40845c:	48 89 c7             	mov    %rax,%rdi
  40845f:	e8 f0 01 00 00       	callq  408654 <_ZSt10__distanceIPcENSt15iterator_traitsIT_E15difference_typeES2_S2_St26random_access_iterator_tag>
  408464:	90                   	nop
  408465:	c9                   	leaveq 
  408466:	c3                   	retq   

0000000000408467 <_ZNSt12_Destroy_auxILb0EE9__destroyIPNSt7__cxx1112basic_stringIcSt11char_traitsIcESaIcEEEEEvT_S9_>:
  408467:	55                   	push   %rbp
  408468:	48 89 e5             	mov    %rsp,%rbp
  40846b:	48 83 ec 10          	sub    $0x10,%rsp
  40846f:	48 89 7d f8          	mov    %rdi,-0x8(%rbp)
  408473:	48 89 75 f0          	mov    %rsi,-0x10(%rbp)
  408477:	48 8b 45 f8          	mov    -0x8(%rbp),%rax
  40847b:	48 3b 45 f0          	cmp    -0x10(%rbp),%rax
  40847f:	74 1b                	je     40849c <_ZNSt12_Destroy_auxILb0EE9__destroyIPNSt7__cxx1112basic_stringIcSt11char_traitsIcESaIcEEEEEvT_S9_+0x35>
  408481:	48 8b 45 f8          	mov    -0x8(%rbp),%rax
  408485:	48 89 c7             	mov    %rax,%rdi
  408488:	e8 dd 01 00 00       	callq  40866a <_ZSt11__addressofINSt7__cxx1112basic_stringIcSt11char_traitsIcESaIcEEEEPT_RS6_>
  40848d:	48 89 c7             	mov    %rax,%rdi
  408490:	e8 e3 01 00 00       	callq  408678 <_ZSt8_DestroyINSt7__cxx1112basic_stringIcSt11char_traitsIcESaIcEEEEvPT_>
  408495:	48 83 45 f8 20       	addq   $0x20,-0x8(%rbp)
  40849a:	eb db                	jmp    408477 <_ZNSt12_Destroy_auxILb0EE9__destroyIPNSt7__cxx1112basic_stringIcSt11char_traitsIcESaIcEEEEEvT_S9_+0x10>
  40849c:	90                   	nop
  40849d:	c9                   	leaveq 
  40849e:	c3                   	retq   

000000000040849f <_ZNSt16allocator_traitsISaINSt7__cxx1112basic_stringIcSt11char_traitsIcESaIcEEEEE8max_sizeERKS6_>:
  40849f:	55                   	push   %rbp
  4084a0:	48 89 e5             	mov    %rsp,%rbp
  4084a3:	48 83 ec 10          	sub    $0x10,%rsp
  4084a7:	48 89 7d f8          	mov    %rdi,-0x8(%rbp)
  4084ab:	48 8b 45 f8          	mov    -0x8(%rbp),%rax
  4084af:	48 89 c7             	mov    %rax,%rdi
  4084b2:	e8 dd 01 00 00       	callq  408694 <_ZNK9__gnu_cxx13new_allocatorINSt7__cxx1112basic_stringIcSt11char_traitsIcESaIcEEEE8max_sizeEv>
  4084b7:	c9                   	leaveq 
  4084b8:	c3                   	retq   
  4084b9:	90                   	nop

00000000004084ba <_ZNKSt12_Vector_baseINSt7__cxx1112basic_stringIcSt11char_traitsIcESaIcEEESaIS5_EE19_M_get_Tp_allocatorEv>:
  4084ba:	55                   	push   %rbp
  4084bb:	48 89 e5             	mov    %rsp,%rbp
  4084be:	48 89 7d f8          	mov    %rdi,-0x8(%rbp)
  4084c2:	48 8b 45 f8          	mov    -0x8(%rbp),%rax
  4084c6:	5d                   	pop    %rbp
  4084c7:	c3                   	retq   

00000000004084c8 <_ZN9__gnu_cxx13new_allocatorINSt7__cxx1112basic_stringIcSt11char_traitsIcESaIcEEEE8allocateEmPKv>:
  4084c8:	55                   	push   %rbp
  4084c9:	48 89 e5             	mov    %rsp,%rbp
  4084cc:	48 83 ec 20          	sub    $0x20,%rsp
  4084d0:	48 89 7d f8          	mov    %rdi,-0x8(%rbp)
  4084d4:	48 89 75 f0          	mov    %rsi,-0x10(%rbp)
  4084d8:	48 89 55 e8          	mov    %rdx,-0x18(%rbp)
  4084dc:	48 8b 45 f8          	mov    -0x8(%rbp),%rax
  4084e0:	48 89 c7             	mov    %rax,%rdi
  4084e3:	e8 ac 01 00 00       	callq  408694 <_ZNK9__gnu_cxx13new_allocatorINSt7__cxx1112basic_stringIcSt11char_traitsIcESaIcEEEE8max_sizeEv>
  4084e8:	48 39 45 f0          	cmp    %rax,-0x10(%rbp)
  4084ec:	0f 97 c0             	seta   %al
  4084ef:	84 c0                	test   %al,%al
  4084f1:	74 05                	je     4084f8 <_ZN9__gnu_cxx13new_allocatorINSt7__cxx1112basic_stringIcSt11char_traitsIcESaIcEEEE8allocateEmPKv+0x30>
  4084f3:	e8 08 ac ff ff       	callq  403100 <_ZSt17__throw_bad_allocv@plt>
  4084f8:	48 8b 45 f0          	mov    -0x10(%rbp),%rax
  4084fc:	48 c1 e0 05          	shl    $0x5,%rax
  408500:	48 89 c7             	mov    %rax,%rdi
  408503:	e8 78 ad ff ff       	callq  403280 <_Znwm@plt>
  408508:	c9                   	leaveq 
  408509:	c3                   	retq   

000000000040850a <_ZNSt13move_iteratorIPNSt7__cxx1112basic_stringIcSt11char_traitsIcESaIcEEEEC1ES6_>:
  40850a:	55                   	push   %rbp
  40850b:	48 89 e5             	mov    %rsp,%rbp
  40850e:	48 89 7d f8          	mov    %rdi,-0x8(%rbp)
  408512:	48 89 75 f0          	mov    %rsi,-0x10(%rbp)
  408516:	48 8b 45 f8          	mov    -0x8(%rbp),%rax
  40851a:	48 8b 55 f0          	mov    -0x10(%rbp),%rdx
  40851e:	48 89 10             	mov    %rdx,(%rax)
  408521:	90                   	nop
  408522:	5d                   	pop    %rbp
  408523:	c3                   	retq   

0000000000408524 <_ZSt18uninitialized_copyISt13move_iteratorIPNSt7__cxx1112basic_stringIcSt11char_traitsIcESaIcEEEES7_ET0_T_SA_S9_>:
  408524:	55                   	push   %rbp
  408525:	48 89 e5             	mov    %rsp,%rbp
  408528:	48 83 ec 30          	sub    $0x30,%rsp
  40852c:	48 89 7d e8          	mov    %rdi,-0x18(%rbp)
  408530:	48 89 75 e0          	mov    %rsi,-0x20(%rbp)
  408534:	48 89 55 d8          	mov    %rdx,-0x28(%rbp)
  408538:	c6 45 ff 01          	movb   $0x1,-0x1(%rbp)
  40853c:	48 8b 55 d8          	mov    -0x28(%rbp),%rdx
  408540:	48 8b 4d e0          	mov    -0x20(%rbp),%rcx
  408544:	48 8b 45 e8          	mov    -0x18(%rbp),%rax
  408548:	48 89 ce             	mov    %rcx,%rsi
  40854b:	48 89 c7             	mov    %rax,%rdi
  40854e:	e8 55 01 00 00       	callq  4086a8 <_ZNSt20__uninitialized_copyILb0EE13__uninit_copyISt13move_iteratorIPNSt7__cxx1112basic_stringIcSt11char_traitsIcESaIcEEEES9_EET0_T_SC_SB_>
  408553:	c9                   	leaveq 
  408554:	c3                   	retq   
  408555:	90                   	nop

0000000000408556 <_ZN9__gnu_cxx13new_allocatorIiEC1Ev>:
  408556:	55                   	push   %rbp
  408557:	48 89 e5             	mov    %rsp,%rbp
  40855a:	48 89 7d f8          	mov    %rdi,-0x8(%rbp)
  40855e:	90                   	nop
  40855f:	5d                   	pop    %rbp
  408560:	c3                   	retq   
  408561:	90                   	nop

0000000000408562 <_ZN9__gnu_cxx13new_allocatorIiE10deallocateEPim>:
  408562:	55                   	push   %rbp
  408563:	48 89 e5             	mov    %rsp,%rbp
  408566:	48 83 ec 20          	sub    $0x20,%rsp
  40856a:	48 89 7d f8          	mov    %rdi,-0x8(%rbp)
  40856e:	48 89 75 f0          	mov    %rsi,-0x10(%rbp)
  408572:	48 89 55 e8          	mov    %rdx,-0x18(%rbp)
  408576:	48 8b 45 f0          	mov    -0x10(%rbp),%rax
  40857a:	48 89 c7             	mov    %rax,%rdi
  40857d:	e8 de ac ff ff       	callq  403260 <_ZdlPv@plt>
  408582:	90                   	nop
  408583:	c9                   	leaveq 
  408584:	c3                   	retq   

0000000000408585 <_ZNSt16allocator_traitsISaIiEE8max_sizeERKS0_>:
  408585:	55                   	push   %rbp
  408586:	48 89 e5             	mov    %rsp,%rbp
  408589:	48 83 ec 10          	sub    $0x10,%rsp
  40858d:	48 89 7d f8          	mov    %rdi,-0x8(%rbp)
  408591:	48 8b 45 f8          	mov    -0x8(%rbp),%rax
  408595:	48 89 c7             	mov    %rax,%rdi
  408598:	e8 b9 01 00 00       	callq  408756 <_ZNK9__gnu_cxx13new_allocatorIiE8max_sizeEv>
  40859d:	c9                   	leaveq 
  40859e:	c3                   	retq   
  40859f:	90                   	nop

00000000004085a0 <_ZNKSt12_Vector_baseIiSaIiEE19_M_get_Tp_allocatorEv>:
  4085a0:	55                   	push   %rbp
  4085a1:	48 89 e5             	mov    %rsp,%rbp
  4085a4:	48 89 7d f8          	mov    %rdi,-0x8(%rbp)
  4085a8:	48 8b 45 f8          	mov    -0x8(%rbp),%rax
  4085ac:	5d                   	pop    %rbp
  4085ad:	c3                   	retq   

00000000004085ae <_ZN9__gnu_cxx13new_allocatorIiE8allocateEmPKv>:
  4085ae:	55                   	push   %rbp
  4085af:	48 89 e5             	mov    %rsp,%rbp
  4085b2:	48 83 ec 20          	sub    $0x20,%rsp
  4085b6:	48 89 7d f8          	mov    %rdi,-0x8(%rbp)
  4085ba:	48 89 75 f0          	mov    %rsi,-0x10(%rbp)
  4085be:	48 89 55 e8          	mov    %rdx,-0x18(%rbp)
  4085c2:	48 8b 45 f8          	mov    -0x8(%rbp),%rax
  4085c6:	48 89 c7             	mov    %rax,%rdi
  4085c9:	e8 88 01 00 00       	callq  408756 <_ZNK9__gnu_cxx13new_allocatorIiE8max_sizeEv>
  4085ce:	48 39 45 f0          	cmp    %rax,-0x10(%rbp)
  4085d2:	0f 97 c0             	seta   %al
  4085d5:	84 c0                	test   %al,%al
  4085d7:	74 05                	je     4085de <_ZN9__gnu_cxx13new_allocatorIiE8allocateEmPKv+0x30>
  4085d9:	e8 22 ab ff ff       	callq  403100 <_ZSt17__throw_bad_allocv@plt>
  4085de:	48 8b 45 f0          	mov    -0x10(%rbp),%rax
  4085e2:	48 c1 e0 02          	shl    $0x2,%rax
  4085e6:	48 89 c7             	mov    %rax,%rdi
  4085e9:	e8 92 ac ff ff       	callq  403280 <_Znwm@plt>
  4085ee:	c9                   	leaveq 
  4085ef:	c3                   	retq   

00000000004085f0 <_ZNSt13move_iteratorIPiEC1ES0_>:
  4085f0:	55                   	push   %rbp
  4085f1:	48 89 e5             	mov    %rsp,%rbp
  4085f4:	48 89 7d f8          	mov    %rdi,-0x8(%rbp)
  4085f8:	48 89 75 f0          	mov    %rsi,-0x10(%rbp)
  4085fc:	48 8b 45 f8          	mov    -0x8(%rbp),%rax
  408600:	48 8b 55 f0          	mov    -0x10(%rbp),%rdx
  408604:	48 89 10             	mov    %rdx,(%rax)
  408607:	90                   	nop
  408608:	5d                   	pop    %rbp
  408609:	c3                   	retq   

000000000040860a <_ZSt18uninitialized_copyISt13move_iteratorIPiES1_ET0_T_S4_S3_>:
  40860a:	55                   	push   %rbp
  40860b:	48 89 e5             	mov    %rsp,%rbp
  40860e:	48 83 ec 30          	sub    $0x30,%rsp
  408612:	48 89 7d e8          	mov    %rdi,-0x18(%rbp)
  408616:	48 89 75 e0          	mov    %rsi,-0x20(%rbp)
  40861a:	48 89 55 d8          	mov    %rdx,-0x28(%rbp)
  40861e:	c6 45 ff 01          	movb   $0x1,-0x1(%rbp)
  408622:	48 8b 55 d8          	mov    -0x28(%rbp),%rdx
  408626:	48 8b 4d e0          	mov    -0x20(%rbp),%rcx
  40862a:	48 8b 45 e8          	mov    -0x18(%rbp),%rax
  40862e:	48 89 ce             	mov    %rcx,%rsi
  408631:	48 89 c7             	mov    %rax,%rdi
  408634:	e8 31 01 00 00       	callq  40876a <_ZNSt20__uninitialized_copyILb1EE13__uninit_copyISt13move_iteratorIPiES3_EET0_T_S6_S5_>
  408639:	c9                   	leaveq 
  40863a:	c3                   	retq   

000000000040863b <_ZNSt12_Destroy_auxILb1EE9__destroyIPiEEvT_S3_>:
  40863b:	55                   	push   %rbp
  40863c:	48 89 e5             	mov    %rsp,%rbp
  40863f:	48 89 7d f8          	mov    %rdi,-0x8(%rbp)
  408643:	48 89 75 f0          	mov    %rsi,-0x10(%rbp)
  408647:	90                   	nop
  408648:	5d                   	pop    %rbp
  408649:	c3                   	retq   

000000000040864a <_ZSt19__iterator_categoryIPcENSt15iterator_traitsIT_E17iterator_categoryERKS2_>:
  40864a:	55                   	push   %rbp
  40864b:	48 89 e5             	mov    %rsp,%rbp
  40864e:	48 89 7d f8          	mov    %rdi,-0x8(%rbp)
  408652:	5d                   	pop    %rbp
  408653:	c3                   	retq   

0000000000408654 <_ZSt10__distanceIPcENSt15iterator_traitsIT_E15difference_typeES2_S2_St26random_access_iterator_tag>:
  408654:	55                   	push   %rbp
  408655:	48 89 e5             	mov    %rsp,%rbp
  408658:	48 89 7d f8          	mov    %rdi,-0x8(%rbp)
  40865c:	48 89 75 f0          	mov    %rsi,-0x10(%rbp)
  408660:	48 8b 45 f0          	mov    -0x10(%rbp),%rax
  408664:	48 2b 45 f8          	sub    -0x8(%rbp),%rax
  408668:	5d                   	pop    %rbp
  408669:	c3                   	retq   

000000000040866a <_ZSt11__addressofINSt7__cxx1112basic_stringIcSt11char_traitsIcESaIcEEEEPT_RS6_>:
  40866a:	55                   	push   %rbp
  40866b:	48 89 e5             	mov    %rsp,%rbp
  40866e:	48 89 7d f8          	mov    %rdi,-0x8(%rbp)
  408672:	48 8b 45 f8          	mov    -0x8(%rbp),%rax
  408676:	5d                   	pop    %rbp
  408677:	c3                   	retq   

0000000000408678 <_ZSt8_DestroyINSt7__cxx1112basic_stringIcSt11char_traitsIcESaIcEEEEvPT_>:
  408678:	55                   	push   %rbp
  408679:	48 89 e5             	mov    %rsp,%rbp
  40867c:	48 83 ec 10          	sub    $0x10,%rsp
  408680:	48 89 7d f8          	mov    %rdi,-0x8(%rbp)
  408684:	48 8b 45 f8          	mov    -0x8(%rbp),%rax
  408688:	48 89 c7             	mov    %rax,%rdi
  40868b:	e8 00 ab ff ff       	callq  403190 <_ZNSt7__cxx1112basic_stringIcSt11char_traitsIcESaIcEED1Ev@plt>
  408690:	90                   	nop
  408691:	c9                   	leaveq 
  408692:	c3                   	retq   
  408693:	90                   	nop

0000000000408694 <_ZNK9__gnu_cxx13new_allocatorINSt7__cxx1112basic_stringIcSt11char_traitsIcESaIcEEEE8max_sizeEv>:
  408694:	55                   	push   %rbp
  408695:	48 89 e5             	mov    %rsp,%rbp
  408698:	48 89 7d f8          	mov    %rdi,-0x8(%rbp)
  40869c:	48 b8 ff ff ff ff ff 	movabs $0x7ffffffffffffff,%rax
  4086a3:	ff ff 07 
  4086a6:	5d                   	pop    %rbp
  4086a7:	c3                   	retq   

00000000004086a8 <_ZNSt20__uninitialized_copyILb0EE13__uninit_copyISt13move_iteratorIPNSt7__cxx1112basic_stringIcSt11char_traitsIcESaIcEEEES9_EET0_T_SC_SB_>:
  4086a8:	55                   	push   %rbp
  4086a9:	48 89 e5             	mov    %rsp,%rbp
  4086ac:	53                   	push   %rbx
  4086ad:	48 83 ec 38          	sub    $0x38,%rsp
  4086b1:	48 89 7d d8          	mov    %rdi,-0x28(%rbp)
  4086b5:	48 89 75 d0          	mov    %rsi,-0x30(%rbp)
  4086b9:	48 89 55 c8          	mov    %rdx,-0x38(%rbp)
  4086bd:	48 8b 45 c8          	mov    -0x38(%rbp),%rax
  4086c1:	48 89 45 e8          	mov    %rax,-0x18(%rbp)
  4086c5:	48 8d 55 d0          	lea    -0x30(%rbp),%rdx
  4086c9:	48 8d 45 d8          	lea    -0x28(%rbp),%rax
  4086cd:	48 89 d6             	mov    %rdx,%rsi
  4086d0:	48 89 c7             	mov    %rax,%rdi
  4086d3:	e8 bf 00 00 00       	callq  408797 <_ZStneIPNSt7__cxx1112basic_stringIcSt11char_traitsIcESaIcEEEEbRKSt13move_iteratorIT_ESB_>
  4086d8:	84 c0                	test   %al,%al
  4086da:	74 39                	je     408715 <_ZNSt20__uninitialized_copyILb0EE13__uninit_copyISt13move_iteratorIPNSt7__cxx1112basic_stringIcSt11char_traitsIcESaIcEEEES9_EET0_T_SC_SB_+0x6d>
  4086dc:	48 8d 45 d8          	lea    -0x28(%rbp),%rax
  4086e0:	48 89 c7             	mov    %rax,%rdi
  4086e3:	e8 f8 00 00 00       	callq  4087e0 <_ZNKSt13move_iteratorIPNSt7__cxx1112basic_stringIcSt11char_traitsIcESaIcEEEEdeEv>
  4086e8:	48 89 c3             	mov    %rax,%rbx
  4086eb:	48 8b 45 e8          	mov    -0x18(%rbp),%rax
  4086ef:	48 89 c7             	mov    %rax,%rdi
  4086f2:	e8 73 ff ff ff       	callq  40866a <_ZSt11__addressofINSt7__cxx1112basic_stringIcSt11char_traitsIcESaIcEEEEPT_RS6_>
  4086f7:	48 89 de             	mov    %rbx,%rsi
  4086fa:	48 89 c7             	mov    %rax,%rdi
  4086fd:	e8 ef 00 00 00       	callq  4087f1 <_ZSt10_ConstructINSt7__cxx1112basic_stringIcSt11char_traitsIcESaIcEEEJS5_EEvPT_DpOT0_>
  408702:	48 8d 45 d8          	lea    -0x28(%rbp),%rax
  408706:	48 89 c7             	mov    %rax,%rdi
  408709:	e8 b2 00 00 00       	callq  4087c0 <_ZNSt13move_iteratorIPNSt7__cxx1112basic_stringIcSt11char_traitsIcESaIcEEEEppEv>
  40870e:	48 83 45 e8 20       	addq   $0x20,-0x18(%rbp)
  408713:	eb b0                	jmp    4086c5 <_ZNSt20__uninitialized_copyILb0EE13__uninit_copyISt13move_iteratorIPNSt7__cxx1112basic_stringIcSt11char_traitsIcESaIcEEEES9_EET0_T_SC_SB_+0x1d>
  408715:	48 8b 45 e8          	mov    -0x18(%rbp),%rax
  408719:	eb 33                	jmp    40874e <_ZNSt20__uninitialized_copyILb0EE13__uninit_copyISt13move_iteratorIPNSt7__cxx1112basic_stringIcSt11char_traitsIcESaIcEEEES9_EET0_T_SC_SB_+0xa6>
  40871b:	48 89 c7             	mov    %rax,%rdi
  40871e:	e8 ed a9 ff ff       	callq  403110 <__cxa_begin_catch@plt>
  408723:	48 8b 55 e8          	mov    -0x18(%rbp),%rdx
  408727:	48 8b 45 c8          	mov    -0x38(%rbp),%rax
  40872b:	48 89 d6             	mov    %rdx,%rsi
  40872e:	48 89 c7             	mov    %rax,%rdi
  408731:	e8 79 fa ff ff       	callq  4081af <_ZSt8_DestroyIPNSt7__cxx1112basic_stringIcSt11char_traitsIcESaIcEEEEvT_S7_>
  408736:	e8 65 ac ff ff       	callq  4033a0 <__cxa_rethrow@plt>
  40873b:	48 89 c3             	mov    %rax,%rbx
  40873e:	e8 dd ac ff ff       	callq  403420 <__cxa_end_catch@plt>
  408743:	48 89 d8             	mov    %rbx,%rax
  408746:	48 89 c7             	mov    %rax,%rdi
  408749:	e8 22 ad ff ff       	callq  403470 <_Unwind_Resume@plt>
  40874e:	48 83 c4 38          	add    $0x38,%rsp
  408752:	5b                   	pop    %rbx
  408753:	5d                   	pop    %rbp
  408754:	c3                   	retq   
  408755:	90                   	nop

0000000000408756 <_ZNK9__gnu_cxx13new_allocatorIiE8max_sizeEv>:
  408756:	55                   	push   %rbp
  408757:	48 89 e5             	mov    %rsp,%rbp
  40875a:	48 89 7d f8          	mov    %rdi,-0x8(%rbp)
  40875e:	48 b8 ff ff ff ff ff 	movabs $0x3fffffffffffffff,%rax
  408765:	ff ff 3f 
  408768:	5d                   	pop    %rbp
  408769:	c3                   	retq   

000000000040876a <_ZNSt20__uninitialized_copyILb1EE13__uninit_copyISt13move_iteratorIPiES3_EET0_T_S6_S5_>:
  40876a:	55                   	push   %rbp
  40876b:	48 89 e5             	mov    %rsp,%rbp
  40876e:	48 83 ec 20          	sub    $0x20,%rsp
  408772:	48 89 7d f8          	mov    %rdi,-0x8(%rbp)
  408776:	48 89 75 f0          	mov    %rsi,-0x10(%rbp)
  40877a:	48 89 55 e8          	mov    %rdx,-0x18(%rbp)
  40877e:	48 8b 55 e8          	mov    -0x18(%rbp),%rdx
  408782:	48 8b 4d f0          	mov    -0x10(%rbp),%rcx
  408786:	48 8b 45 f8          	mov    -0x8(%rbp),%rax
  40878a:	48 89 ce             	mov    %rcx,%rsi
  40878d:	48 89 c7             	mov    %rax,%rdi
  408790:	e8 a0 00 00 00       	callq  408835 <_ZSt4copyISt13move_iteratorIPiES1_ET0_T_S4_S3_>
  408795:	c9                   	leaveq 
  408796:	c3                   	retq   

0000000000408797 <_ZStneIPNSt7__cxx1112basic_stringIcSt11char_traitsIcESaIcEEEEbRKSt13move_iteratorIT_ESB_>:
  408797:	55                   	push   %rbp
  408798:	48 89 e5             	mov    %rsp,%rbp
  40879b:	48 83 ec 10          	sub    $0x10,%rsp
  40879f:	48 89 7d f8          	mov    %rdi,-0x8(%rbp)
  4087a3:	48 89 75 f0          	mov    %rsi,-0x10(%rbp)
  4087a7:	48 8b 55 f0          	mov    -0x10(%rbp),%rdx
  4087ab:	48 8b 45 f8          	mov    -0x8(%rbp),%rax
  4087af:	48 89 d6             	mov    %rdx,%rsi
  4087b2:	48 89 c7             	mov    %rax,%rdi
  4087b5:	e8 c7 00 00 00       	callq  408881 <_ZSteqIPNSt7__cxx1112basic_stringIcSt11char_traitsIcESaIcEEEEbRKSt13move_iteratorIT_ESB_>
  4087ba:	83 f0 01             	xor    $0x1,%eax
  4087bd:	c9                   	leaveq 
  4087be:	c3                   	retq   
  4087bf:	90                   	nop

00000000004087c0 <_ZNSt13move_iteratorIPNSt7__cxx1112basic_stringIcSt11char_traitsIcESaIcEEEEppEv>:
  4087c0:	55                   	push   %rbp
  4087c1:	48 89 e5             	mov    %rsp,%rbp
  4087c4:	48 89 7d f8          	mov    %rdi,-0x8(%rbp)
  4087c8:	48 8b 45 f8          	mov    -0x8(%rbp),%rax
  4087cc:	48 8b 00             	mov    (%rax),%rax
  4087cf:	48 8d 50 20          	lea    0x20(%rax),%rdx
  4087d3:	48 8b 45 f8          	mov    -0x8(%rbp),%rax
  4087d7:	48 89 10             	mov    %rdx,(%rax)
  4087da:	48 8b 45 f8          	mov    -0x8(%rbp),%rax
  4087de:	5d                   	pop    %rbp
  4087df:	c3                   	retq   

00000000004087e0 <_ZNKSt13move_iteratorIPNSt7__cxx1112basic_stringIcSt11char_traitsIcESaIcEEEEdeEv>:
  4087e0:	55                   	push   %rbp
  4087e1:	48 89 e5             	mov    %rsp,%rbp
  4087e4:	48 89 7d f8          	mov    %rdi,-0x8(%rbp)
  4087e8:	48 8b 45 f8          	mov    -0x8(%rbp),%rax
  4087ec:	48 8b 00             	mov    (%rax),%rax
  4087ef:	5d                   	pop    %rbp
  4087f0:	c3                   	retq   

00000000004087f1 <_ZSt10_ConstructINSt7__cxx1112basic_stringIcSt11char_traitsIcESaIcEEEJS5_EEvPT_DpOT0_>:
  4087f1:	55                   	push   %rbp
  4087f2:	48 89 e5             	mov    %rsp,%rbp
  4087f5:	53                   	push   %rbx
  4087f6:	48 83 ec 18          	sub    $0x18,%rsp
  4087fa:	48 89 7d e8          	mov    %rdi,-0x18(%rbp)
  4087fe:	48 89 75 e0          	mov    %rsi,-0x20(%rbp)
  408802:	48 8b 45 e0          	mov    -0x20(%rbp),%rax
  408806:	48 89 c7             	mov    %rax,%rdi
  408809:	e8 a2 eb ff ff       	callq  4073b0 <_ZSt7forwardINSt7__cxx1112basic_stringIcSt11char_traitsIcESaIcEEEEOT_RNSt16remove_referenceIS6_E4typeE>
  40880e:	48 89 c3             	mov    %rax,%rbx
  408811:	48 8b 45 e8          	mov    -0x18(%rbp),%rax
  408815:	48 89 c6             	mov    %rax,%rsi
  408818:	bf 20 00 00 00       	mov    $0x20,%edi
  40881d:	e8 ed e2 ff ff       	callq  406b0f <_ZnwmPv>
  408822:	48 89 de             	mov    %rbx,%rsi
  408825:	48 89 c7             	mov    %rax,%rdi
  408828:	e8 53 a9 ff ff       	callq  403180 <_ZNSt7__cxx1112basic_stringIcSt11char_traitsIcESaIcEEC1EOS4_@plt>
  40882d:	90                   	nop
  40882e:	48 83 c4 18          	add    $0x18,%rsp
  408832:	5b                   	pop    %rbx
  408833:	5d                   	pop    %rbp
  408834:	c3                   	retq   

0000000000408835 <_ZSt4copyISt13move_iteratorIPiES1_ET0_T_S4_S3_>:
  408835:	55                   	push   %rbp
  408836:	48 89 e5             	mov    %rsp,%rbp
  408839:	53                   	push   %rbx
  40883a:	48 83 ec 28          	sub    $0x28,%rsp
  40883e:	48 89 7d e8          	mov    %rdi,-0x18(%rbp)
  408842:	48 89 75 e0          	mov    %rsi,-0x20(%rbp)
  408846:	48 89 55 d8          	mov    %rdx,-0x28(%rbp)
  40884a:	48 8b 45 e0          	mov    -0x20(%rbp),%rax
  40884e:	48 89 c7             	mov    %rax,%rdi
  408851:	e8 64 00 00 00       	callq  4088ba <_ZSt12__miter_baseIPiEDTcl12__miter_basecldtfp_4baseEEESt13move_iteratorIT_E>
  408856:	48 89 c3             	mov    %rax,%rbx
  408859:	48 8b 45 e8          	mov    -0x18(%rbp),%rax
  40885d:	48 89 c7             	mov    %rax,%rdi
  408860:	e8 55 00 00 00       	callq  4088ba <_ZSt12__miter_baseIPiEDTcl12__miter_basecldtfp_4baseEEESt13move_iteratorIT_E>
  408865:	48 89 c1             	mov    %rax,%rcx
  408868:	48 8b 45 d8          	mov    -0x28(%rbp),%rax
  40886c:	48 89 c2             	mov    %rax,%rdx
  40886f:	48 89 de             	mov    %rbx,%rsi
  408872:	48 89 cf             	mov    %rcx,%rdi
  408875:	e8 62 00 00 00       	callq  4088dc <_ZSt14__copy_move_a2ILb1EPiS0_ET1_T0_S2_S1_>
  40887a:	48 83 c4 28          	add    $0x28,%rsp
  40887e:	5b                   	pop    %rbx
  40887f:	5d                   	pop    %rbp
  408880:	c3                   	retq   

0000000000408881 <_ZSteqIPNSt7__cxx1112basic_stringIcSt11char_traitsIcESaIcEEEEbRKSt13move_iteratorIT_ESB_>:
  408881:	55                   	push   %rbp
  408882:	48 89 e5             	mov    %rsp,%rbp
  408885:	53                   	push   %rbx
  408886:	48 83 ec 18          	sub    $0x18,%rsp
  40888a:	48 89 7d e8          	mov    %rdi,-0x18(%rbp)
  40888e:	48 89 75 e0          	mov    %rsi,-0x20(%rbp)
  408892:	48 8b 45 e8          	mov    -0x18(%rbp),%rax
  408896:	48 89 c7             	mov    %rax,%rdi
  408899:	e8 96 00 00 00       	callq  408934 <_ZNKSt13move_iteratorIPNSt7__cxx1112basic_stringIcSt11char_traitsIcESaIcEEEE4baseEv>
  40889e:	48 89 c3             	mov    %rax,%rbx
  4088a1:	48 8b 45 e0          	mov    -0x20(%rbp),%rax
  4088a5:	48 89 c7             	mov    %rax,%rdi
  4088a8:	e8 87 00 00 00       	callq  408934 <_ZNKSt13move_iteratorIPNSt7__cxx1112basic_stringIcSt11char_traitsIcESaIcEEEE4baseEv>
  4088ad:	48 39 c3             	cmp    %rax,%rbx
  4088b0:	0f 94 c0             	sete   %al
  4088b3:	48 83 c4 18          	add    $0x18,%rsp
  4088b7:	5b                   	pop    %rbx
  4088b8:	5d                   	pop    %rbp
  4088b9:	c3                   	retq   

00000000004088ba <_ZSt12__miter_baseIPiEDTcl12__miter_basecldtfp_4baseEEESt13move_iteratorIT_E>:
  4088ba:	55                   	push   %rbp
  4088bb:	48 89 e5             	mov    %rsp,%rbp
  4088be:	48 83 ec 10          	sub    $0x10,%rsp
  4088c2:	48 89 7d f8          	mov    %rdi,-0x8(%rbp)
  4088c6:	48 8d 45 f8          	lea    -0x8(%rbp),%rax
  4088ca:	48 89 c7             	mov    %rax,%rdi
  4088cd:	e8 74 00 00 00       	callq  408946 <_ZNKSt13move_iteratorIPiE4baseEv>
  4088d2:	48 89 c7             	mov    %rax,%rdi
  4088d5:	e8 7d 00 00 00       	callq  408957 <_ZSt12__miter_baseIPiET_S1_>
  4088da:	c9                   	leaveq 
  4088db:	c3                   	retq   

00000000004088dc <_ZSt14__copy_move_a2ILb1EPiS0_ET1_T0_S2_S1_>:
  4088dc:	55                   	push   %rbp
  4088dd:	48 89 e5             	mov    %rsp,%rbp
  4088e0:	41 54                	push   %r12
  4088e2:	53                   	push   %rbx
  4088e3:	48 83 ec 20          	sub    $0x20,%rsp
  4088e7:	48 89 7d e8          	mov    %rdi,-0x18(%rbp)
  4088eb:	48 89 75 e0          	mov    %rsi,-0x20(%rbp)
  4088ef:	48 89 55 d8          	mov    %rdx,-0x28(%rbp)
  4088f3:	48 8b 45 d8          	mov    -0x28(%rbp),%rax
  4088f7:	48 89 c7             	mov    %rax,%rdi
  4088fa:	e8 66 00 00 00       	callq  408965 <_ZSt12__niter_baseIPiET_S1_>
  4088ff:	49 89 c4             	mov    %rax,%r12
  408902:	48 8b 45 e0          	mov    -0x20(%rbp),%rax
  408906:	48 89 c7             	mov    %rax,%rdi
  408909:	e8 57 00 00 00       	callq  408965 <_ZSt12__niter_baseIPiET_S1_>
  40890e:	48 89 c3             	mov    %rax,%rbx
  408911:	48 8b 45 e8          	mov    -0x18(%rbp),%rax
  408915:	48 89 c7             	mov    %rax,%rdi
  408918:	e8 48 00 00 00       	callq  408965 <_ZSt12__niter_baseIPiET_S1_>
  40891d:	4c 89 e2             	mov    %r12,%rdx
  408920:	48 89 de             	mov    %rbx,%rsi
  408923:	48 89 c7             	mov    %rax,%rdi
  408926:	e8 48 00 00 00       	callq  408973 <_ZSt13__copy_move_aILb1EPiS0_ET1_T0_S2_S1_>
  40892b:	48 83 c4 20          	add    $0x20,%rsp
  40892f:	5b                   	pop    %rbx
  408930:	41 5c                	pop    %r12
  408932:	5d                   	pop    %rbp
  408933:	c3                   	retq   

0000000000408934 <_ZNKSt13move_iteratorIPNSt7__cxx1112basic_stringIcSt11char_traitsIcESaIcEEEE4baseEv>:
  408934:	55                   	push   %rbp
  408935:	48 89 e5             	mov    %rsp,%rbp
  408938:	48 89 7d f8          	mov    %rdi,-0x8(%rbp)
  40893c:	48 8b 45 f8          	mov    -0x8(%rbp),%rax
  408940:	48 8b 00             	mov    (%rax),%rax
  408943:	5d                   	pop    %rbp
  408944:	c3                   	retq   
  408945:	90                   	nop

0000000000408946 <_ZNKSt13move_iteratorIPiE4baseEv>:
  408946:	55                   	push   %rbp
  408947:	48 89 e5             	mov    %rsp,%rbp
  40894a:	48 89 7d f8          	mov    %rdi,-0x8(%rbp)
  40894e:	48 8b 45 f8          	mov    -0x8(%rbp),%rax
  408952:	48 8b 00             	mov    (%rax),%rax
  408955:	5d                   	pop    %rbp
  408956:	c3                   	retq   

0000000000408957 <_ZSt12__miter_baseIPiET_S1_>:
  408957:	55                   	push   %rbp
  408958:	48 89 e5             	mov    %rsp,%rbp
  40895b:	48 89 7d f8          	mov    %rdi,-0x8(%rbp)
  40895f:	48 8b 45 f8          	mov    -0x8(%rbp),%rax
  408963:	5d                   	pop    %rbp
  408964:	c3                   	retq   

0000000000408965 <_ZSt12__niter_baseIPiET_S1_>:
  408965:	55                   	push   %rbp
  408966:	48 89 e5             	mov    %rsp,%rbp
  408969:	48 89 7d f8          	mov    %rdi,-0x8(%rbp)
  40896d:	48 8b 45 f8          	mov    -0x8(%rbp),%rax
  408971:	5d                   	pop    %rbp
  408972:	c3                   	retq   

0000000000408973 <_ZSt13__copy_move_aILb1EPiS0_ET1_T0_S2_S1_>:
  408973:	55                   	push   %rbp
  408974:	48 89 e5             	mov    %rsp,%rbp
  408977:	48 83 ec 30          	sub    $0x30,%rsp
  40897b:	48 89 7d e8          	mov    %rdi,-0x18(%rbp)
  40897f:	48 89 75 e0          	mov    %rsi,-0x20(%rbp)
  408983:	48 89 55 d8          	mov    %rdx,-0x28(%rbp)
  408987:	c6 45 ff 01          	movb   $0x1,-0x1(%rbp)
  40898b:	48 8b 55 d8          	mov    -0x28(%rbp),%rdx
  40898f:	48 8b 4d e0          	mov    -0x20(%rbp),%rcx
  408993:	48 8b 45 e8          	mov    -0x18(%rbp),%rax
  408997:	48 89 ce             	mov    %rcx,%rsi
  40899a:	48 89 c7             	mov    %rax,%rdi
  40899d:	e8 02 00 00 00       	callq  4089a4 <_ZNSt11__copy_moveILb1ELb1ESt26random_access_iterator_tagE8__copy_mIiEEPT_PKS3_S6_S4_>
  4089a2:	c9                   	leaveq 
  4089a3:	c3                   	retq   

00000000004089a4 <_ZNSt11__copy_moveILb1ELb1ESt26random_access_iterator_tagE8__copy_mIiEEPT_PKS3_S6_S4_>:
  4089a4:	55                   	push   %rbp
  4089a5:	48 89 e5             	mov    %rsp,%rbp
  4089a8:	48 83 ec 30          	sub    $0x30,%rsp
  4089ac:	48 89 7d e8          	mov    %rdi,-0x18(%rbp)
  4089b0:	48 89 75 e0          	mov    %rsi,-0x20(%rbp)
  4089b4:	48 89 55 d8          	mov    %rdx,-0x28(%rbp)
  4089b8:	48 8b 45 e0          	mov    -0x20(%rbp),%rax
  4089bc:	48 2b 45 e8          	sub    -0x18(%rbp),%rax
  4089c0:	48 c1 f8 02          	sar    $0x2,%rax
  4089c4:	48 89 45 f8          	mov    %rax,-0x8(%rbp)
  4089c8:	48 83 7d f8 00       	cmpq   $0x0,-0x8(%rbp)
  4089cd:	74 1f                	je     4089ee <_ZNSt11__copy_moveILb1ELb1ESt26random_access_iterator_tagE8__copy_mIiEEPT_PKS3_S6_S4_+0x4a>
  4089cf:	48 8b 45 f8          	mov    -0x8(%rbp),%rax
  4089d3:	48 8d 14 85 00 00 00 	lea    0x0(,%rax,4),%rdx
  4089da:	00 
  4089db:	48 8b 4d e8          	mov    -0x18(%rbp),%rcx
  4089df:	48 8b 45 d8          	mov    -0x28(%rbp),%rax
  4089e3:	48 89 ce             	mov    %rcx,%rsi
  4089e6:	48 89 c7             	mov    %rax,%rdi
  4089e9:	e8 22 aa ff ff       	callq  403410 <memmove@plt>
  4089ee:	48 8b 45 f8          	mov    -0x8(%rbp),%rax
  4089f2:	48 8d 14 85 00 00 00 	lea    0x0(,%rax,4),%rdx
  4089f9:	00 
  4089fa:	48 8b 45 d8          	mov    -0x28(%rbp),%rax
  4089fe:	48 01 d0             	add    %rdx,%rax
  408a01:	c9                   	leaveq 
  408a02:	c3                   	retq   
  408a03:	90                   	nop

0000000000408a04 <_ZNSt3mapINSt7__cxx1112basic_stringIcSt11char_traitsIcESaIcEEE6SymbolSt4lessIS5_ESaISt4pairIKS5_S6_EEED1Ev>:
  408a04:	55                   	push   %rbp
  408a05:	48 89 e5             	mov    %rsp,%rbp
  408a08:	48 83 ec 10          	sub    $0x10,%rsp
  408a0c:	48 89 7d f8          	mov    %rdi,-0x8(%rbp)
  408a10:	48 8b 45 f8          	mov    -0x8(%rbp),%rax
  408a14:	48 89 c7             	mov    %rax,%rdi
  408a17:	e8 5c 00 00 00       	callq  408a78 <_ZNSt8_Rb_treeINSt7__cxx1112basic_stringIcSt11char_traitsIcESaIcEEESt4pairIKS5_6SymbolESt10_Select1stIS9_ESt4lessIS5_ESaIS9_EED1Ev>
  408a1c:	90                   	nop
  408a1d:	c9                   	leaveq 
  408a1e:	c3                   	retq   
  408a1f:	90                   	nop

0000000000408a20 <_ZN11SymbolTableD1Ev>:
  408a20:	55                   	push   %rbp
  408a21:	48 89 e5             	mov    %rsp,%rbp
  408a24:	48 83 ec 10          	sub    $0x10,%rsp
  408a28:	48 89 7d f8          	mov    %rdi,-0x8(%rbp)
  408a2c:	48 8b 45 f8          	mov    -0x8(%rbp),%rax
  408a30:	48 83 c0 50          	add    $0x50,%rax
  408a34:	48 89 c7             	mov    %rax,%rdi
  408a37:	e8 76 00 00 00       	callq  408ab2 <_ZNSt6vectorINSt7__cxx1112basic_stringIcSt11char_traitsIcESaIcEEESaIS5_EED1Ev>
  408a3c:	48 8b 45 f8          	mov    -0x8(%rbp),%rax
  408a40:	48 83 c0 20          	add    $0x20,%rax
  408a44:	48 89 c7             	mov    %rax,%rdi
  408a47:	e8 b8 ff ff ff       	callq  408a04 <_ZNSt3mapINSt7__cxx1112basic_stringIcSt11char_traitsIcESaIcEEE6SymbolSt4lessIS5_ESaISt4pairIKS5_S6_EEED1Ev>
  408a4c:	48 8b 45 f8          	mov    -0x8(%rbp),%rax
  408a50:	48 89 c7             	mov    %rax,%rdi
  408a53:	e8 38 a7 ff ff       	callq  403190 <_ZNSt7__cxx1112basic_stringIcSt11char_traitsIcESaIcEED1Ev@plt>
  408a58:	90                   	nop
  408a59:	c9                   	leaveq 
  408a5a:	c3                   	retq   
  408a5b:	90                   	nop

0000000000408a5c <_ZNSt8_Rb_treeINSt7__cxx1112basic_stringIcSt11char_traitsIcESaIcEEESt4pairIKS5_6SymbolESt10_Select1stIS9_ESt4lessIS5_ESaIS9_EE13_Rb_tree_implISD_Lb1EED1Ev>:
  408a5c:	55                   	push   %rbp
  408a5d:	48 89 e5             	mov    %rsp,%rbp
  408a60:	48 83 ec 10          	sub    $0x10,%rsp
  408a64:	48 89 7d f8          	mov    %rdi,-0x8(%rbp)
  408a68:	48 8b 45 f8          	mov    -0x8(%rbp),%rax
  408a6c:	48 89 c7             	mov    %rax,%rdi
  408a6f:	e8 c6 00 00 00       	callq  408b3a <_ZNSaISt13_Rb_tree_nodeISt4pairIKNSt7__cxx1112basic_stringIcSt11char_traitsIcESaIcEEE6SymbolEEED1Ev>
  408a74:	90                   	nop
  408a75:	c9                   	leaveq 
  408a76:	c3                   	retq   
  408a77:	90                   	nop

0000000000408a78 <_ZNSt8_Rb_treeINSt7__cxx1112basic_stringIcSt11char_traitsIcESaIcEEESt4pairIKS5_6SymbolESt10_Select1stIS9_ESt4lessIS5_ESaIS9_EED1Ev>:
  408a78:	55                   	push   %rbp
  408a79:	48 89 e5             	mov    %rsp,%rbp
  408a7c:	48 83 ec 10          	sub    $0x10,%rsp
  408a80:	48 89 7d f8          	mov    %rdi,-0x8(%rbp)
  408a84:	48 8b 45 f8          	mov    -0x8(%rbp),%rax
  408a88:	48 89 c7             	mov    %rax,%rdi
  408a8b:	e8 2c 01 00 00       	callq  408bbc <_ZNSt8_Rb_treeINSt7__cxx1112basic_stringIcSt11char_traitsIcESaIcEEESt4pairIKS5_6SymbolESt10_Select1stIS9_ESt4lessIS5_ESaIS9_EE8_M_beginEv>
  408a90:	48 89 c2             	mov    %rax,%rdx
  408a93:	48 8b 45 f8          	mov    -0x8(%rbp),%rax
  408a97:	48 89 d6             	mov    %rdx,%rsi
  408a9a:	48 89 c7             	mov    %rax,%rdi
  408a9d:	e8 b4 00 00 00       	callq  408b56 <_ZNSt8_Rb_treeINSt7__cxx1112basic_stringIcSt11char_traitsIcESaIcEEESt4pairIKS5_6SymbolESt10_Select1stIS9_ESt4lessIS5_ESaIS9_EE8_M_eraseEPSt13_Rb_tree_nodeIS9_E>
  408aa2:	48 8b 45 f8          	mov    -0x8(%rbp),%rax
  408aa6:	48 89 c7             	mov    %rax,%rdi
  408aa9:	e8 ae ff ff ff       	callq  408a5c <_ZNSt8_Rb_treeINSt7__cxx1112basic_stringIcSt11char_traitsIcESaIcEEESt4pairIKS5_6SymbolESt10_Select1stIS9_ESt4lessIS5_ESaIS9_EE13_Rb_tree_implISD_Lb1EED1Ev>
  408aae:	90                   	nop
  408aaf:	c9                   	leaveq 
  408ab0:	c3                   	retq   
  408ab1:	90                   	nop

0000000000408ab2 <_ZNSt6vectorINSt7__cxx1112basic_stringIcSt11char_traitsIcESaIcEEESaIS5_EED1Ev>:
  408ab2:	55                   	push   %rbp
  408ab3:	48 89 e5             	mov    %rsp,%rbp
  408ab6:	48 83 ec 10          	sub    $0x10,%rsp
  408aba:	48 89 7d f8          	mov    %rdi,-0x8(%rbp)
  408abe:	48 8b 45 f8          	mov    -0x8(%rbp),%rax
  408ac2:	48 89 c7             	mov    %rax,%rdi
  408ac5:	e8 3c f0 ff ff       	callq  407b06 <_ZNSt12_Vector_baseINSt7__cxx1112basic_stringIcSt11char_traitsIcESaIcEEESaIS5_EE19_M_get_Tp_allocatorEv>
  408aca:	48 89 c2             	mov    %rax,%rdx
  408acd:	48 8b 45 f8          	mov    -0x8(%rbp),%rax
  408ad1:	48 8b 48 08          	mov    0x8(%rax),%rcx
  408ad5:	48 8b 45 f8          	mov    -0x8(%rbp),%rax
  408ad9:	48 8b 00             	mov    (%rax),%rax
  408adc:	48 89 ce             	mov    %rcx,%rsi
  408adf:	48 89 c7             	mov    %rax,%rdi
  408ae2:	e8 2d f0 ff ff       	callq  407b14 <_ZSt8_DestroyIPNSt7__cxx1112basic_stringIcSt11char_traitsIcESaIcEEES5_EvT_S7_RSaIT0_E>
  408ae7:	48 8b 45 f8          	mov    -0x8(%rbp),%rax
  408aeb:	48 89 c7             	mov    %rax,%rdi
  408aee:	e8 01 e7 ff ff       	callq  4071f4 <_ZNSt12_Vector_baseINSt7__cxx1112basic_stringIcSt11char_traitsIcESaIcEEESaIS5_EED1Ev>
  408af3:	90                   	nop
  408af4:	c9                   	leaveq 
  408af5:	c3                   	retq   

0000000000408af6 <_ZNSt6vectorIiSaIiEED1Ev>:
  408af6:	55                   	push   %rbp
  408af7:	48 89 e5             	mov    %rsp,%rbp
  408afa:	48 83 ec 10          	sub    $0x10,%rsp
  408afe:	48 89 7d f8          	mov    %rdi,-0x8(%rbp)
  408b02:	48 8b 45 f8          	mov    -0x8(%rbp),%rax
  408b06:	48 89 c7             	mov    %rax,%rdi
  408b09:	e8 88 f4 ff ff       	callq  407f96 <_ZNSt12_Vector_baseIiSaIiEE19_M_get_Tp_allocatorEv>
  408b0e:	48 89 c2             	mov    %rax,%rdx
  408b11:	48 8b 45 f8          	mov    -0x8(%rbp),%rax
  408b15:	48 8b 48 08          	mov    0x8(%rax),%rcx
  408b19:	48 8b 45 f8          	mov    -0x8(%rbp),%rax
  408b1d:	48 8b 00             	mov    (%rax),%rax
  408b20:	48 89 ce             	mov    %rcx,%rsi
  408b23:	48 89 c7             	mov    %rax,%rdi
  408b26:	e8 f3 f4 ff ff       	callq  40801e <_ZSt8_DestroyIPiiEvT_S1_RSaIT0_E>
  408b2b:	48 8b 45 f8          	mov    -0x8(%rbp),%rax
  408b2f:	48 89 c7             	mov    %rax,%rdi
  408b32:	e8 87 eb ff ff       	callq  4076be <_ZNSt12_Vector_baseIiSaIiEED1Ev>
  408b37:	90                   	nop
  408b38:	c9                   	leaveq 
  408b39:	c3                   	retq   

0000000000408b3a <_ZNSaISt13_Rb_tree_nodeISt4pairIKNSt7__cxx1112basic_stringIcSt11char_traitsIcESaIcEEE6SymbolEEED1Ev>:
  408b3a:	55                   	push   %rbp
  408b3b:	48 89 e5             	mov    %rsp,%rbp
  408b3e:	48 83 ec 10          	sub    $0x10,%rsp
  408b42:	48 89 7d f8          	mov    %rdi,-0x8(%rbp)
  408b46:	48 8b 45 f8          	mov    -0x8(%rbp),%rax
  408b4a:	48 89 c7             	mov    %rax,%rdi
  408b4d:	e8 7c 00 00 00       	callq  408bce <_ZN9__gnu_cxx13new_allocatorISt13_Rb_tree_nodeISt4pairIKNSt7__cxx1112basic_stringIcSt11char_traitsIcESaIcEEE6SymbolEEED1Ev>
  408b52:	90                   	nop
  408b53:	c9                   	leaveq 
  408b54:	c3                   	retq   
  408b55:	90                   	nop

0000000000408b56 <_ZNSt8_Rb_treeINSt7__cxx1112basic_stringIcSt11char_traitsIcESaIcEEESt4pairIKS5_6SymbolESt10_Select1stIS9_ESt4lessIS5_ESaIS9_EE8_M_eraseEPSt13_Rb_tree_nodeIS9_E>:
  408b56:	55                   	push   %rbp
  408b57:	48 89 e5             	mov    %rsp,%rbp
  408b5a:	48 83 ec 20          	sub    $0x20,%rsp
  408b5e:	48 89 7d e8          	mov    %rdi,-0x18(%rbp)
  408b62:	48 89 75 e0          	mov    %rsi,-0x20(%rbp)
  408b66:	48 83 7d e0 00       	cmpq   $0x0,-0x20(%rbp)
  408b6b:	74 4b                	je     408bb8 <_ZNSt8_Rb_treeINSt7__cxx1112basic_stringIcSt11char_traitsIcESaIcEEESt4pairIKS5_6SymbolESt10_Select1stIS9_ESt4lessIS5_ESaIS9_EE8_M_eraseEPSt13_Rb_tree_nodeIS9_E+0x62>
  408b6d:	48 8b 45 e0          	mov    -0x20(%rbp),%rax
  408b71:	48 89 c7             	mov    %rax,%rdi
  408b74:	e8 60 00 00 00       	callq  408bd9 <_ZNSt8_Rb_treeINSt7__cxx1112basic_stringIcSt11char_traitsIcESaIcEEESt4pairIKS5_6SymbolESt10_Select1stIS9_ESt4lessIS5_ESaIS9_EE8_S_rightEPSt18_Rb_tree_node_base>
  408b79:	48 89 c2             	mov    %rax,%rdx
  408b7c:	48 8b 45 e8          	mov    -0x18(%rbp),%rax
  408b80:	48 89 d6             	mov    %rdx,%rsi
  408b83:	48 89 c7             	mov    %rax,%rdi
  408b86:	e8 cb ff ff ff       	callq  408b56 <_ZNSt8_Rb_treeINSt7__cxx1112basic_stringIcSt11char_traitsIcESaIcEEESt4pairIKS5_6SymbolESt10_Select1stIS9_ESt4lessIS5_ESaIS9_EE8_M_eraseEPSt13_Rb_tree_nodeIS9_E>
  408b8b:	48 8b 45 e0          	mov    -0x20(%rbp),%rax
  408b8f:	48 89 c7             	mov    %rax,%rdi
  408b92:	e8 54 00 00 00       	callq  408beb <_ZNSt8_Rb_treeINSt7__cxx1112basic_stringIcSt11char_traitsIcESaIcEEESt4pairIKS5_6SymbolESt10_Select1stIS9_ESt4lessIS5_ESaIS9_EE7_S_leftEPSt18_Rb_tree_node_base>
  408b97:	48 89 45 f8          	mov    %rax,-0x8(%rbp)
  408b9b:	48 8b 55 e0          	mov    -0x20(%rbp),%rdx
  408b9f:	48 8b 45 e8          	mov    -0x18(%rbp),%rax
  408ba3:	48 89 d6             	mov    %rdx,%rsi
  408ba6:	48 89 c7             	mov    %rax,%rdi
  408ba9:	e8 50 00 00 00       	callq  408bfe <_ZNSt8_Rb_treeINSt7__cxx1112basic_stringIcSt11char_traitsIcESaIcEEESt4pairIKS5_6SymbolESt10_Select1stIS9_ESt4lessIS5_ESaIS9_EE12_M_drop_nodeEPSt13_Rb_tree_nodeIS9_E>
  408bae:	48 8b 45 f8          	mov    -0x8(%rbp),%rax
  408bb2:	48 89 45 e0          	mov    %rax,-0x20(%rbp)
  408bb6:	eb ae                	jmp    408b66 <_ZNSt8_Rb_treeINSt7__cxx1112basic_stringIcSt11char_traitsIcESaIcEEESt4pairIKS5_6SymbolESt10_Select1stIS9_ESt4lessIS5_ESaIS9_EE8_M_eraseEPSt13_Rb_tree_nodeIS9_E+0x10>
  408bb8:	90                   	nop
  408bb9:	c9                   	leaveq 
  408bba:	c3                   	retq   
  408bbb:	90                   	nop

0000000000408bbc <_ZNSt8_Rb_treeINSt7__cxx1112basic_stringIcSt11char_traitsIcESaIcEEESt4pairIKS5_6SymbolESt10_Select1stIS9_ESt4lessIS5_ESaIS9_EE8_M_beginEv>:
  408bbc:	55                   	push   %rbp
  408bbd:	48 89 e5             	mov    %rsp,%rbp
  408bc0:	48 89 7d f8          	mov    %rdi,-0x8(%rbp)
  408bc4:	48 8b 45 f8          	mov    -0x8(%rbp),%rax
  408bc8:	48 8b 40 10          	mov    0x10(%rax),%rax
  408bcc:	5d                   	pop    %rbp
  408bcd:	c3                   	retq   

0000000000408bce <_ZN9__gnu_cxx13new_allocatorISt13_Rb_tree_nodeISt4pairIKNSt7__cxx1112basic_stringIcSt11char_traitsIcESaIcEEE6SymbolEEED1Ev>:
  408bce:	55                   	push   %rbp
  408bcf:	48 89 e5             	mov    %rsp,%rbp
  408bd2:	48 89 7d f8          	mov    %rdi,-0x8(%rbp)
  408bd6:	90                   	nop
  408bd7:	5d                   	pop    %rbp
  408bd8:	c3                   	retq   

0000000000408bd9 <_ZNSt8_Rb_treeINSt7__cxx1112basic_stringIcSt11char_traitsIcESaIcEEESt4pairIKS5_6SymbolESt10_Select1stIS9_ESt4lessIS5_ESaIS9_EE8_S_rightEPSt18_Rb_tree_node_base>:
  408bd9:	55                   	push   %rbp
  408bda:	48 89 e5             	mov    %rsp,%rbp
  408bdd:	48 89 7d f8          	mov    %rdi,-0x8(%rbp)
  408be1:	48 8b 45 f8          	mov    -0x8(%rbp),%rax
  408be5:	48 8b 40 18          	mov    0x18(%rax),%rax
  408be9:	5d                   	pop    %rbp
  408bea:	c3                   	retq   

0000000000408beb <_ZNSt8_Rb_treeINSt7__cxx1112basic_stringIcSt11char_traitsIcESaIcEEESt4pairIKS5_6SymbolESt10_Select1stIS9_ESt4lessIS5_ESaIS9_EE7_S_leftEPSt18_Rb_tree_node_base>:
  408beb:	55                   	push   %rbp
  408bec:	48 89 e5             	mov    %rsp,%rbp
  408bef:	48 89 7d f8          	mov    %rdi,-0x8(%rbp)
  408bf3:	48 8b 45 f8          	mov    -0x8(%rbp),%rax
  408bf7:	48 8b 40 10          	mov    0x10(%rax),%rax
  408bfb:	5d                   	pop    %rbp
  408bfc:	c3                   	retq   
  408bfd:	90                   	nop

0000000000408bfe <_ZNSt8_Rb_treeINSt7__cxx1112basic_stringIcSt11char_traitsIcESaIcEEESt4pairIKS5_6SymbolESt10_Select1stIS9_ESt4lessIS5_ESaIS9_EE12_M_drop_nodeEPSt13_Rb_tree_nodeIS9_E>:
  408bfe:	55                   	push   %rbp
  408bff:	48 89 e5             	mov    %rsp,%rbp
  408c02:	48 83 ec 10          	sub    $0x10,%rsp
  408c06:	48 89 7d f8          	mov    %rdi,-0x8(%rbp)
  408c0a:	48 89 75 f0          	mov    %rsi,-0x10(%rbp)
  408c0e:	48 8b 55 f0          	mov    -0x10(%rbp),%rdx
  408c12:	48 8b 45 f8          	mov    -0x8(%rbp),%rax
  408c16:	48 89 d6             	mov    %rdx,%rsi
  408c19:	48 89 c7             	mov    %rax,%rdi
  408c1c:	e8 17 00 00 00       	callq  408c38 <_ZNSt8_Rb_treeINSt7__cxx1112basic_stringIcSt11char_traitsIcESaIcEEESt4pairIKS5_6SymbolESt10_Select1stIS9_ESt4lessIS5_ESaIS9_EE15_M_destroy_nodeEPSt13_Rb_tree_nodeIS9_E>
  408c21:	48 8b 55 f0          	mov    -0x10(%rbp),%rdx
  408c25:	48 8b 45 f8          	mov    -0x8(%rbp),%rax
  408c29:	48 89 d6             	mov    %rdx,%rsi
  408c2c:	48 89 c7             	mov    %rax,%rdi
  408c2f:	e8 44 00 00 00       	callq  408c78 <_ZNSt8_Rb_treeINSt7__cxx1112basic_stringIcSt11char_traitsIcESaIcEEESt4pairIKS5_6SymbolESt10_Select1stIS9_ESt4lessIS5_ESaIS9_EE11_M_put_nodeEPSt13_Rb_tree_nodeIS9_E>
  408c34:	90                   	nop
  408c35:	c9                   	leaveq 
  408c36:	c3                   	retq   
  408c37:	90                   	nop

0000000000408c38 <_ZNSt8_Rb_treeINSt7__cxx1112basic_stringIcSt11char_traitsIcESaIcEEESt4pairIKS5_6SymbolESt10_Select1stIS9_ESt4lessIS5_ESaIS9_EE15_M_destroy_nodeEPSt13_Rb_tree_nodeIS9_E>:
  408c38:	55                   	push   %rbp
  408c39:	48 89 e5             	mov    %rsp,%rbp
  408c3c:	53                   	push   %rbx
  408c3d:	48 83 ec 18          	sub    $0x18,%rsp
  408c41:	48 89 7d e8          	mov    %rdi,-0x18(%rbp)
  408c45:	48 89 75 e0          	mov    %rsi,-0x20(%rbp)
  408c49:	48 8b 45 e0          	mov    -0x20(%rbp),%rax
  408c4d:	48 89 c7             	mov    %rax,%rdi
  408c50:	e8 67 00 00 00       	callq  408cbc <_ZNSt13_Rb_tree_nodeISt4pairIKNSt7__cxx1112basic_stringIcSt11char_traitsIcESaIcEEE6SymbolEE9_M_valptrEv>
  408c55:	48 89 c3             	mov    %rax,%rbx
  408c58:	48 8b 45 e8          	mov    -0x18(%rbp),%rax
  408c5c:	48 89 c7             	mov    %rax,%rdi
  408c5f:	e8 4a 00 00 00       	callq  408cae <_ZNSt8_Rb_treeINSt7__cxx1112basic_stringIcSt11char_traitsIcESaIcEEESt4pairIKS5_6SymbolESt10_Select1stIS9_ESt4lessIS5_ESaIS9_EE21_M_get_Node_allocatorEv>
  408c64:	48 89 de             	mov    %rbx,%rsi
  408c67:	48 89 c7             	mov    %rax,%rdi
  408c6a:	e8 6b 00 00 00       	callq  408cda <_ZNSt16allocator_traitsISaISt13_Rb_tree_nodeISt4pairIKNSt7__cxx1112basic_stringIcSt11char_traitsIcESaIcEEE6SymbolEEEE7destroyISA_EEvRSC_PT_>
  408c6f:	90                   	nop
  408c70:	48 83 c4 18          	add    $0x18,%rsp
  408c74:	5b                   	pop    %rbx
  408c75:	5d                   	pop    %rbp
  408c76:	c3                   	retq   
  408c77:	90                   	nop

0000000000408c78 <_ZNSt8_Rb_treeINSt7__cxx1112basic_stringIcSt11char_traitsIcESaIcEEESt4pairIKS5_6SymbolESt10_Select1stIS9_ESt4lessIS5_ESaIS9_EE11_M_put_nodeEPSt13_Rb_tree_nodeIS9_E>:
  408c78:	55                   	push   %rbp
  408c79:	48 89 e5             	mov    %rsp,%rbp
  408c7c:	48 83 ec 10          	sub    $0x10,%rsp
  408c80:	48 89 7d f8          	mov    %rdi,-0x8(%rbp)
  408c84:	48 89 75 f0          	mov    %rsi,-0x10(%rbp)
  408c88:	48 8b 45 f8          	mov    -0x8(%rbp),%rax
  408c8c:	48 89 c7             	mov    %rax,%rdi
  408c8f:	e8 1a 00 00 00       	callq  408cae <_ZNSt8_Rb_treeINSt7__cxx1112basic_stringIcSt11char_traitsIcESaIcEEESt4pairIKS5_6SymbolESt10_Select1stIS9_ESt4lessIS5_ESaIS9_EE21_M_get_Node_allocatorEv>
  408c94:	48 89 c1             	mov    %rax,%rcx
  408c97:	48 8b 45 f0          	mov    -0x10(%rbp),%rax
  408c9b:	ba 01 00 00 00       	mov    $0x1,%edx
  408ca0:	48 89 c6             	mov    %rax,%rsi
  408ca3:	48 89 cf             	mov    %rcx,%rdi
  408ca6:	e8 55 00 00 00       	callq  408d00 <_ZNSt16allocator_traitsISaISt13_Rb_tree_nodeISt4pairIKNSt7__cxx1112basic_stringIcSt11char_traitsIcESaIcEEE6SymbolEEEE10deallocateERSC_PSB_m>
  408cab:	90                   	nop
  408cac:	c9                   	leaveq 
  408cad:	c3                   	retq   

0000000000408cae <_ZNSt8_Rb_treeINSt7__cxx1112basic_stringIcSt11char_traitsIcESaIcEEESt4pairIKS5_6SymbolESt10_Select1stIS9_ESt4lessIS5_ESaIS9_EE21_M_get_Node_allocatorEv>:
  408cae:	55                   	push   %rbp
  408caf:	48 89 e5             	mov    %rsp,%rbp
  408cb2:	48 89 7d f8          	mov    %rdi,-0x8(%rbp)
  408cb6:	48 8b 45 f8          	mov    -0x8(%rbp),%rax
  408cba:	5d                   	pop    %rbp
  408cbb:	c3                   	retq   

0000000000408cbc <_ZNSt13_Rb_tree_nodeISt4pairIKNSt7__cxx1112basic_stringIcSt11char_traitsIcESaIcEEE6SymbolEE9_M_valptrEv>:
  408cbc:	55                   	push   %rbp
  408cbd:	48 89 e5             	mov    %rsp,%rbp
  408cc0:	48 83 ec 10          	sub    $0x10,%rsp
  408cc4:	48 89 7d f8          	mov    %rdi,-0x8(%rbp)
  408cc8:	48 8b 45 f8          	mov    -0x8(%rbp),%rax
  408ccc:	48 83 c0 20          	add    $0x20,%rax
  408cd0:	48 89 c7             	mov    %rax,%rdi
  408cd3:	e8 56 00 00 00       	callq  408d2e <_ZN9__gnu_cxx16__aligned_membufISt4pairIKNSt7__cxx1112basic_stringIcSt11char_traitsIcESaIcEEE6SymbolEE6_M_ptrEv>
  408cd8:	c9                   	leaveq 
  408cd9:	c3                   	retq   

0000000000408cda <_ZNSt16allocator_traitsISaISt13_Rb_tree_nodeISt4pairIKNSt7__cxx1112basic_stringIcSt11char_traitsIcESaIcEEE6SymbolEEEE7destroyISA_EEvRSC_PT_>:
  408cda:	55                   	push   %rbp
  408cdb:	48 89 e5             	mov    %rsp,%rbp
  408cde:	48 83 ec 10          	sub    $0x10,%rsp
  408ce2:	48 89 7d f8          	mov    %rdi,-0x8(%rbp)
  408ce6:	48 89 75 f0          	mov    %rsi,-0x10(%rbp)
  408cea:	48 8b 55 f0          	mov    -0x10(%rbp),%rdx
  408cee:	48 8b 45 f8          	mov    -0x8(%rbp),%rax
  408cf2:	48 89 d6             	mov    %rdx,%rsi
  408cf5:	48 89 c7             	mov    %rax,%rdi
  408cf8:	e8 c7 00 00 00       	callq  408dc4 <_ZN9__gnu_cxx13new_allocatorISt13_Rb_tree_nodeISt4pairIKNSt7__cxx1112basic_stringIcSt11char_traitsIcESaIcEEE6SymbolEEE7destroyISB_EEvPT_>
  408cfd:	90                   	nop
  408cfe:	c9                   	leaveq 
  408cff:	c3                   	retq   

0000000000408d00 <_ZNSt16allocator_traitsISaISt13_Rb_tree_nodeISt4pairIKNSt7__cxx1112basic_stringIcSt11char_traitsIcESaIcEEE6SymbolEEEE10deallocateERSC_PSB_m>:
  408d00:	55                   	push   %rbp
  408d01:	48 89 e5             	mov    %rsp,%rbp
  408d04:	48 83 ec 20          	sub    $0x20,%rsp
  408d08:	48 89 7d f8          	mov    %rdi,-0x8(%rbp)
  408d0c:	48 89 75 f0          	mov    %rsi,-0x10(%rbp)
  408d10:	48 89 55 e8          	mov    %rdx,-0x18(%rbp)
  408d14:	48 8b 55 e8          	mov    -0x18(%rbp),%rdx
  408d18:	48 8b 4d f0          	mov    -0x10(%rbp),%rcx
  408d1c:	48 8b 45 f8          	mov    -0x8(%rbp),%rax
  408d20:	48 89 ce             	mov    %rcx,%rsi
  408d23:	48 89 c7             	mov    %rax,%rdi
  408d26:	e8 b9 00 00 00       	callq  408de4 <_ZN9__gnu_cxx13new_allocatorISt13_Rb_tree_nodeISt4pairIKNSt7__cxx1112basic_stringIcSt11char_traitsIcESaIcEEE6SymbolEEE10deallocateEPSC_m>
  408d2b:	90                   	nop
  408d2c:	c9                   	leaveq 
  408d2d:	c3                   	retq   

0000000000408d2e <_ZN9__gnu_cxx16__aligned_membufISt4pairIKNSt7__cxx1112basic_stringIcSt11char_traitsIcESaIcEEE6SymbolEE6_M_ptrEv>:
  408d2e:	55                   	push   %rbp
  408d2f:	48 89 e5             	mov    %rsp,%rbp
  408d32:	48 83 ec 10          	sub    $0x10,%rsp
  408d36:	48 89 7d f8          	mov    %rdi,-0x8(%rbp)
  408d3a:	48 8b 45 f8          	mov    -0x8(%rbp),%rax
  408d3e:	48 89 c7             	mov    %rax,%rdi
  408d41:	e8 c2 00 00 00       	callq  408e08 <_ZN9__gnu_cxx16__aligned_membufISt4pairIKNSt7__cxx1112basic_stringIcSt11char_traitsIcESaIcEEE6SymbolEE7_M_addrEv>
  408d46:	c9                   	leaveq 
  408d47:	c3                   	retq   

0000000000408d48 <_ZN6SymbolD1Ev>:
  408d48:	55                   	push   %rbp
  408d49:	48 89 e5             	mov    %rsp,%rbp
  408d4c:	48 83 ec 10          	sub    $0x10,%rsp
  408d50:	48 89 7d f8          	mov    %rdi,-0x8(%rbp)
  408d54:	48 8b 45 f8          	mov    -0x8(%rbp),%rax
  408d58:	48 83 c0 68          	add    $0x68,%rax
  408d5c:	48 89 c7             	mov    %rax,%rdi
  408d5f:	e8 2c a4 ff ff       	callq  403190 <_ZNSt7__cxx1112basic_stringIcSt11char_traitsIcESaIcEED1Ev@plt>
  408d64:	48 8b 45 f8          	mov    -0x8(%rbp),%rax
  408d68:	48 83 c0 48          	add    $0x48,%rax
  408d6c:	48 89 c7             	mov    %rax,%rdi
  408d6f:	e8 1c a4 ff ff       	callq  403190 <_ZNSt7__cxx1112basic_stringIcSt11char_traitsIcESaIcEED1Ev@plt>
  408d74:	48 8b 45 f8          	mov    -0x8(%rbp),%rax
  408d78:	48 83 c0 28          	add    $0x28,%rax
  408d7c:	48 89 c7             	mov    %rax,%rdi
  408d7f:	e8 0c a4 ff ff       	callq  403190 <_ZNSt7__cxx1112basic_stringIcSt11char_traitsIcESaIcEED1Ev@plt>
  408d84:	48 8b 45 f8          	mov    -0x8(%rbp),%rax
  408d88:	48 83 c0 08          	add    $0x8,%rax
  408d8c:	48 89 c7             	mov    %rax,%rdi
  408d8f:	e8 fc a3 ff ff       	callq  403190 <_ZNSt7__cxx1112basic_stringIcSt11char_traitsIcESaIcEED1Ev@plt>
  408d94:	90                   	nop
  408d95:	c9                   	leaveq 
  408d96:	c3                   	retq   
  408d97:	90                   	nop

0000000000408d98 <_ZNSt4pairIKNSt7__cxx1112basic_stringIcSt11char_traitsIcESaIcEEE6SymbolED1Ev>:
  408d98:	55                   	push   %rbp
  408d99:	48 89 e5             	mov    %rsp,%rbp
  408d9c:	48 83 ec 10          	sub    $0x10,%rsp
  408da0:	48 89 7d f8          	mov    %rdi,-0x8(%rbp)
  408da4:	48 8b 45 f8          	mov    -0x8(%rbp),%rax
  408da8:	48 83 c0 20          	add    $0x20,%rax
  408dac:	48 89 c7             	mov    %rax,%rdi
  408daf:	e8 94 ff ff ff       	callq  408d48 <_ZN6SymbolD1Ev>
  408db4:	48 8b 45 f8          	mov    -0x8(%rbp),%rax
  408db8:	48 89 c7             	mov    %rax,%rdi
  408dbb:	e8 d0 a3 ff ff       	callq  403190 <_ZNSt7__cxx1112basic_stringIcSt11char_traitsIcESaIcEED1Ev@plt>
  408dc0:	90                   	nop
  408dc1:	c9                   	leaveq 
  408dc2:	c3                   	retq   
  408dc3:	90                   	nop

0000000000408dc4 <_ZN9__gnu_cxx13new_allocatorISt13_Rb_tree_nodeISt4pairIKNSt7__cxx1112basic_stringIcSt11char_traitsIcESaIcEEE6SymbolEEE7destroyISB_EEvPT_>:
  408dc4:	55                   	push   %rbp
  408dc5:	48 89 e5             	mov    %rsp,%rbp
  408dc8:	48 83 ec 10          	sub    $0x10,%rsp
  408dcc:	48 89 7d f8          	mov    %rdi,-0x8(%rbp)
  408dd0:	48 89 75 f0          	mov    %rsi,-0x10(%rbp)
  408dd4:	48 8b 45 f0          	mov    -0x10(%rbp),%rax
  408dd8:	48 89 c7             	mov    %rax,%rdi
  408ddb:	e8 b8 ff ff ff       	callq  408d98 <_ZNSt4pairIKNSt7__cxx1112basic_stringIcSt11char_traitsIcESaIcEEE6SymbolED1Ev>
  408de0:	90                   	nop
  408de1:	c9                   	leaveq 
  408de2:	c3                   	retq   
  408de3:	90                   	nop

0000000000408de4 <_ZN9__gnu_cxx13new_allocatorISt13_Rb_tree_nodeISt4pairIKNSt7__cxx1112basic_stringIcSt11char_traitsIcESaIcEEE6SymbolEEE10deallocateEPSC_m>:
  408de4:	55                   	push   %rbp
  408de5:	48 89 e5             	mov    %rsp,%rbp
  408de8:	48 83 ec 20          	sub    $0x20,%rsp
  408dec:	48 89 7d f8          	mov    %rdi,-0x8(%rbp)
  408df0:	48 89 75 f0          	mov    %rsi,-0x10(%rbp)
  408df4:	48 89 55 e8          	mov    %rdx,-0x18(%rbp)
  408df8:	48 8b 45 f0          	mov    -0x10(%rbp),%rax
  408dfc:	48 89 c7             	mov    %rax,%rdi
  408dff:	e8 5c a4 ff ff       	callq  403260 <_ZdlPv@plt>
  408e04:	90                   	nop
  408e05:	c9                   	leaveq 
  408e06:	c3                   	retq   
  408e07:	90                   	nop

0000000000408e08 <_ZN9__gnu_cxx16__aligned_membufISt4pairIKNSt7__cxx1112basic_stringIcSt11char_traitsIcESaIcEEE6SymbolEE7_M_addrEv>:
  408e08:	55                   	push   %rbp
  408e09:	48 89 e5             	mov    %rsp,%rbp
  408e0c:	48 89 7d f8          	mov    %rdi,-0x8(%rbp)
  408e10:	48 8b 45 f8          	mov    -0x8(%rbp),%rax
  408e14:	5d                   	pop    %rbp
  408e15:	c3                   	retq   

0000000000408e16 <_ZN11SymbolTableC1Ev>:
  408e16:	55                   	push   %rbp
  408e17:	48 89 e5             	mov    %rsp,%rbp
  408e1a:	48 83 ec 10          	sub    $0x10,%rsp
  408e1e:	48 89 7d f8          	mov    %rdi,-0x8(%rbp)
  408e22:	48 8b 45 f8          	mov    -0x8(%rbp),%rax
  408e26:	48 89 c7             	mov    %rax,%rdi
  408e29:	e8 42 a5 ff ff       	callq  403370 <_ZNSt7__cxx1112basic_stringIcSt11char_traitsIcESaIcEEC1Ev@plt>
  408e2e:	48 8b 45 f8          	mov    -0x8(%rbp),%rax
  408e32:	48 83 c0 20          	add    $0x20,%rax
  408e36:	48 89 c7             	mov    %rax,%rdi
  408e39:	e8 5c 11 00 00       	callq  409f9a <_ZNSt3mapINSt7__cxx1112basic_stringIcSt11char_traitsIcESaIcEEE6SymbolSt4lessIS5_ESaISt4pairIKS5_S6_EEEC1Ev>
  408e3e:	48 8b 45 f8          	mov    -0x8(%rbp),%rax
  408e42:	48 83 c0 50          	add    $0x50,%rax
  408e46:	48 89 c7             	mov    %rax,%rdi
  408e49:	e8 92 df ff ff       	callq  406de0 <_ZNSt6vectorINSt7__cxx1112basic_stringIcSt11char_traitsIcESaIcEEESaIS5_EEC1Ev>
  408e4e:	90                   	nop
  408e4f:	c9                   	leaveq 
  408e50:	c3                   	retq   
  408e51:	90                   	nop

0000000000408e52 <_ZN11SymbolTable6addVarElRKNSt7__cxx1112basic_stringIcSt11char_traitsIcESaIcEEEPcS8_>:
  408e52:	55                   	push   %rbp
  408e53:	48 89 e5             	mov    %rsp,%rbp
  408e56:	53                   	push   %rbx
  408e57:	48 81 ec a8 01 00 00 	sub    $0x1a8,%rsp
  408e5e:	48 89 bd 78 fe ff ff 	mov    %rdi,-0x188(%rbp)
  408e65:	48 89 b5 70 fe ff ff 	mov    %rsi,-0x190(%rbp)
  408e6c:	48 89 95 68 fe ff ff 	mov    %rdx,-0x198(%rbp)
  408e73:	48 89 8d 60 fe ff ff 	mov    %rcx,-0x1a0(%rbp)
  408e7a:	4c 89 85 58 fe ff ff 	mov    %r8,-0x1a8(%rbp)
  408e81:	48 8d 85 6f ff ff ff 	lea    -0x91(%rbp),%rax
  408e88:	48 89 c7             	mov    %rax,%rdi
  408e8b:	e8 f0 a5 ff ff       	callq  403480 <_ZNSaIcEC1Ev@plt>
  408e90:	48 8d 95 6f ff ff ff 	lea    -0x91(%rbp),%rdx
  408e97:	48 8b 8d 60 fe ff ff 	mov    -0x1a0(%rbp),%rcx
  408e9e:	48 8d 85 40 ff ff ff 	lea    -0xc0(%rbp),%rax
  408ea5:	48 89 ce             	mov    %rcx,%rsi
  408ea8:	48 89 c7             	mov    %rax,%rdi
  408eab:	e8 b0 a4 ff ff       	callq  403360 <_ZNSt7__cxx1112basic_stringIcSt11char_traitsIcESaIcEEC1EPKcRKS3_@plt>
  408eb0:	48 8d 85 6f ff ff ff 	lea    -0x91(%rbp),%rax
  408eb7:	48 89 c7             	mov    %rax,%rdi
  408eba:	e8 11 a4 ff ff       	callq  4032d0 <_ZNSaIcED1Ev@plt>
  408ebf:	48 8d 85 a0 fe ff ff 	lea    -0x160(%rbp),%rax
  408ec6:	48 89 c7             	mov    %rax,%rdi
  408ec9:	e8 e8 10 00 00       	callq  409fb6 <_ZN6SymbolC1Ev>
  408ece:	48 8d 85 40 ff ff ff 	lea    -0xc0(%rbp),%rax
  408ed5:	48 8d 95 a0 fe ff ff 	lea    -0x160(%rbp),%rdx
  408edc:	48 83 c2 08          	add    $0x8,%rdx
  408ee0:	48 89 c6             	mov    %rax,%rsi
  408ee3:	48 89 d7             	mov    %rdx,%rdi
  408ee6:	e8 65 a1 ff ff       	callq  403050 <_ZNSt7__cxx1112basic_stringIcSt11char_traitsIcESaIcEEaSERKS4_@plt>
  408eeb:	48 8b 85 70 fe ff ff 	mov    -0x190(%rbp),%rax
  408ef2:	48 89 85 28 ff ff ff 	mov    %rax,-0xd8(%rbp)
  408ef9:	48 8b 85 68 fe ff ff 	mov    -0x198(%rbp),%rax
  408f00:	48 8d 95 a0 fe ff ff 	lea    -0x160(%rbp),%rdx
  408f07:	48 83 c2 48          	add    $0x48,%rdx
  408f0b:	48 89 c6             	mov    %rax,%rsi
  408f0e:	48 89 d7             	mov    %rdx,%rdi
  408f11:	e8 3a a1 ff ff       	callq  403050 <_ZNSt7__cxx1112basic_stringIcSt11char_traitsIcESaIcEEaSERKS4_@plt>
  408f16:	c7 85 a0 fe ff ff 00 	movl   $0x0,-0x160(%rbp)
  408f1d:	00 00 00 
  408f20:	48 8b 85 58 fe ff ff 	mov    -0x1a8(%rbp),%rax
  408f27:	48 8d 95 a0 fe ff ff 	lea    -0x160(%rbp),%rdx
  408f2e:	48 83 c2 28          	add    $0x28,%rdx
  408f32:	48 89 c6             	mov    %rax,%rsi
  408f35:	48 89 d7             	mov    %rdx,%rdi
  408f38:	e8 13 a4 ff ff       	callq  403350 <_ZNSt7__cxx1112basic_stringIcSt11char_traitsIcESaIcEEaSEPKc@plt>
  408f3d:	48 8d 85 70 ff ff ff 	lea    -0x90(%rbp),%rax
  408f44:	48 8b 95 70 fe ff ff 	mov    -0x190(%rbp),%rdx
  408f4b:	48 89 d6             	mov    %rdx,%rsi
  408f4e:	48 89 c7             	mov    %rax,%rdi
  408f51:	e8 29 dc ff ff       	callq  406b7f <_ZNSt7__cxx119to_stringEl>
  408f56:	48 8d 45 d0          	lea    -0x30(%rbp),%rax
  408f5a:	48 8d 8d 40 ff ff ff 	lea    -0xc0(%rbp),%rcx
  408f61:	ba a7 e4 40 00       	mov    $0x40e4a7,%edx
  408f66:	48 89 ce             	mov    %rcx,%rsi
  408f69:	48 89 c7             	mov    %rax,%rdi
  408f6c:	e8 6c 11 00 00       	callq  40a0dd <_ZStplIcSt11char_traitsIcESaIcEENSt7__cxx1112basic_stringIT_T0_T1_EERKS8_PKS5_>
  408f71:	48 8d 45 b0          	lea    -0x50(%rbp),%rax
  408f75:	48 8b 95 68 fe ff ff 	mov    -0x198(%rbp),%rdx
  408f7c:	48 8d 4d d0          	lea    -0x30(%rbp),%rcx
  408f80:	48 89 ce             	mov    %rcx,%rsi
  408f83:	48 89 c7             	mov    %rax,%rdi
  408f86:	e8 b6 12 00 00       	callq  40a241 <_ZStplIcSt11char_traitsIcESaIcEENSt7__cxx1112basic_stringIT_T0_T1_EEOS8_RKS8_>
  408f8b:	48 8d 45 90          	lea    -0x70(%rbp),%rax
  408f8f:	48 8d 4d b0          	lea    -0x50(%rbp),%rcx
  408f93:	ba a7 e4 40 00       	mov    $0x40e4a7,%edx
  408f98:	48 89 ce             	mov    %rcx,%rsi
  408f9b:	48 89 c7             	mov    %rax,%rdi
  408f9e:	e8 e5 12 00 00       	callq  40a288 <_ZStplIcSt11char_traitsIcESaIcEENSt7__cxx1112basic_stringIT_T0_T1_EEOS8_PKS5_>
  408fa3:	48 8d 85 80 fe ff ff 	lea    -0x180(%rbp),%rax
  408faa:	48 8d 95 70 ff ff ff 	lea    -0x90(%rbp),%rdx
  408fb1:	48 8d 4d 90          	lea    -0x70(%rbp),%rcx
  408fb5:	48 89 ce             	mov    %rcx,%rsi
  408fb8:	48 89 c7             	mov    %rax,%rdi
  408fbb:	e8 7f 11 00 00       	callq  40a13f <_ZStplIcSt11char_traitsIcESaIcEENSt7__cxx1112basic_stringIT_T0_T1_EEOS8_S9_>
  408fc0:	48 8d 45 90          	lea    -0x70(%rbp),%rax
  408fc4:	48 89 c7             	mov    %rax,%rdi
  408fc7:	e8 c4 a1 ff ff       	callq  403190 <_ZNSt7__cxx1112basic_stringIcSt11char_traitsIcESaIcEED1Ev@plt>
  408fcc:	48 8d 45 b0          	lea    -0x50(%rbp),%rax
  408fd0:	48 89 c7             	mov    %rax,%rdi
  408fd3:	e8 b8 a1 ff ff       	callq  403190 <_ZNSt7__cxx1112basic_stringIcSt11char_traitsIcESaIcEED1Ev@plt>
  408fd8:	48 8d 45 d0          	lea    -0x30(%rbp),%rax
  408fdc:	48 89 c7             	mov    %rax,%rdi
  408fdf:	e8 ac a1 ff ff       	callq  403190 <_ZNSt7__cxx1112basic_stringIcSt11char_traitsIcESaIcEED1Ev@plt>
  408fe4:	48 8d 85 70 ff ff ff 	lea    -0x90(%rbp),%rax
  408feb:	48 89 c7             	mov    %rax,%rdi
  408fee:	e8 9d a1 ff ff       	callq  403190 <_ZNSt7__cxx1112basic_stringIcSt11char_traitsIcESaIcEED1Ev@plt>
  408ff3:	48 8b 85 78 fe ff ff 	mov    -0x188(%rbp),%rax
  408ffa:	48 8d 50 20          	lea    0x20(%rax),%rdx
  408ffe:	48 8d 85 80 fe ff ff 	lea    -0x180(%rbp),%rax
  409005:	48 89 c6             	mov    %rax,%rsi
  409008:	48 89 d7             	mov    %rdx,%rdi
  40900b:	e8 c0 12 00 00       	callq  40a2d0 <_ZNSt3mapINSt7__cxx1112basic_stringIcSt11char_traitsIcESaIcEEE6SymbolSt4lessIS5_ESaISt4pairIKS5_S6_EEEixERSA_>
  409010:	48 89 c2             	mov    %rax,%rdx
  409013:	48 8d 85 a0 fe ff ff 	lea    -0x160(%rbp),%rax
  40901a:	48 89 c6             	mov    %rax,%rsi
  40901d:	48 89 d7             	mov    %rdx,%rdi
  409020:	e8 eb 0f 00 00       	callq  40a010 <_ZN6SymbolaSERKS_>
  409025:	48 8b 85 78 fe ff ff 	mov    -0x188(%rbp),%rax
  40902c:	48 8d 50 50          	lea    0x50(%rax),%rdx
  409030:	48 8d 85 80 fe ff ff 	lea    -0x180(%rbp),%rax
  409037:	48 89 c6             	mov    %rax,%rsi
  40903a:	48 89 d7             	mov    %rdx,%rdi
  40903d:	e8 86 13 00 00       	callq  40a3c8 <_ZNSt6vectorINSt7__cxx1112basic_stringIcSt11char_traitsIcESaIcEEESaIS5_EE12emplace_backIJRS5_EEEvDpOT_>
  409042:	48 8d 85 80 fe ff ff 	lea    -0x180(%rbp),%rax
  409049:	48 89 c7             	mov    %rax,%rdi
  40904c:	e8 3f a1 ff ff       	callq  403190 <_ZNSt7__cxx1112basic_stringIcSt11char_traitsIcESaIcEED1Ev@plt>
  409051:	48 8d 85 a0 fe ff ff 	lea    -0x160(%rbp),%rax
  409058:	48 89 c7             	mov    %rax,%rdi
  40905b:	e8 e8 fc ff ff       	callq  408d48 <_ZN6SymbolD1Ev>
  409060:	48 8d 85 40 ff ff ff 	lea    -0xc0(%rbp),%rax
  409067:	48 89 c7             	mov    %rax,%rdi
  40906a:	e8 21 a1 ff ff       	callq  403190 <_ZNSt7__cxx1112basic_stringIcSt11char_traitsIcESaIcEED1Ev@plt>
  40906f:	e9 a4 00 00 00       	jmpq   409118 <_ZN11SymbolTable6addVarElRKNSt7__cxx1112basic_stringIcSt11char_traitsIcESaIcEEEPcS8_+0x2c6>
  409074:	48 89 c3             	mov    %rax,%rbx
  409077:	48 8d 85 6f ff ff ff 	lea    -0x91(%rbp),%rax
  40907e:	48 89 c7             	mov    %rax,%rdi
  409081:	e8 4a a2 ff ff       	callq  4032d0 <_ZNSaIcED1Ev@plt>
  409086:	48 89 d8             	mov    %rbx,%rax
  409089:	48 89 c7             	mov    %rax,%rdi
  40908c:	e8 df a3 ff ff       	callq  403470 <_Unwind_Resume@plt>
  409091:	48 89 c3             	mov    %rax,%rbx
  409094:	48 8d 45 90          	lea    -0x70(%rbp),%rax
  409098:	48 89 c7             	mov    %rax,%rdi
  40909b:	e8 f0 a0 ff ff       	callq  403190 <_ZNSt7__cxx1112basic_stringIcSt11char_traitsIcESaIcEED1Ev@plt>
  4090a0:	eb 03                	jmp    4090a5 <_ZN11SymbolTable6addVarElRKNSt7__cxx1112basic_stringIcSt11char_traitsIcESaIcEEEPcS8_+0x253>
  4090a2:	48 89 c3             	mov    %rax,%rbx
  4090a5:	48 8d 45 b0          	lea    -0x50(%rbp),%rax
  4090a9:	48 89 c7             	mov    %rax,%rdi
  4090ac:	e8 df a0 ff ff       	callq  403190 <_ZNSt7__cxx1112basic_stringIcSt11char_traitsIcESaIcEED1Ev@plt>
  4090b1:	eb 03                	jmp    4090b6 <_ZN11SymbolTable6addVarElRKNSt7__cxx1112basic_stringIcSt11char_traitsIcESaIcEEEPcS8_+0x264>
  4090b3:	48 89 c3             	mov    %rax,%rbx
  4090b6:	48 8d 45 d0          	lea    -0x30(%rbp),%rax
  4090ba:	48 89 c7             	mov    %rax,%rdi
  4090bd:	e8 ce a0 ff ff       	callq  403190 <_ZNSt7__cxx1112basic_stringIcSt11char_traitsIcESaIcEED1Ev@plt>
  4090c2:	eb 03                	jmp    4090c7 <_ZN11SymbolTable6addVarElRKNSt7__cxx1112basic_stringIcSt11char_traitsIcESaIcEEEPcS8_+0x275>
  4090c4:	48 89 c3             	mov    %rax,%rbx
  4090c7:	48 8d 85 70 ff ff ff 	lea    -0x90(%rbp),%rax
  4090ce:	48 89 c7             	mov    %rax,%rdi
  4090d1:	e8 ba a0 ff ff       	callq  403190 <_ZNSt7__cxx1112basic_stringIcSt11char_traitsIcESaIcEED1Ev@plt>
  4090d6:	eb 17                	jmp    4090ef <_ZN11SymbolTable6addVarElRKNSt7__cxx1112basic_stringIcSt11char_traitsIcESaIcEEEPcS8_+0x29d>
  4090d8:	48 89 c3             	mov    %rax,%rbx
  4090db:	48 8d 85 80 fe ff ff 	lea    -0x180(%rbp),%rax
  4090e2:	48 89 c7             	mov    %rax,%rdi
  4090e5:	e8 a6 a0 ff ff       	callq  403190 <_ZNSt7__cxx1112basic_stringIcSt11char_traitsIcESaIcEED1Ev@plt>
  4090ea:	eb 03                	jmp    4090ef <_ZN11SymbolTable6addVarElRKNSt7__cxx1112basic_stringIcSt11char_traitsIcESaIcEEEPcS8_+0x29d>
  4090ec:	48 89 c3             	mov    %rax,%rbx
  4090ef:	48 8d 85 a0 fe ff ff 	lea    -0x160(%rbp),%rax
  4090f6:	48 89 c7             	mov    %rax,%rdi
  4090f9:	e8 4a fc ff ff       	callq  408d48 <_ZN6SymbolD1Ev>
  4090fe:	48 8d 85 40 ff ff ff 	lea    -0xc0(%rbp),%rax
  409105:	48 89 c7             	mov    %rax,%rdi
  409108:	e8 83 a0 ff ff       	callq  403190 <_ZNSt7__cxx1112basic_stringIcSt11char_traitsIcESaIcEED1Ev@plt>
  40910d:	48 89 d8             	mov    %rbx,%rax
  409110:	48 89 c7             	mov    %rax,%rdi
  409113:	e8 58 a3 ff ff       	callq  403470 <_Unwind_Resume@plt>
  409118:	48 81 c4 a8 01 00 00 	add    $0x1a8,%rsp
  40911f:	5b                   	pop    %rbx
  409120:	5d                   	pop    %rbp
  409121:	c3                   	retq   

0000000000409122 <_ZN11SymbolTable7addFuncElRKNSt7__cxx1112basic_stringIcSt11char_traitsIcESaIcEEEPc14FunctionAction>:
  409122:	55                   	push   %rbp
  409123:	48 89 e5             	mov    %rsp,%rbp
  409126:	53                   	push   %rbx
  409127:	48 81 ec a8 01 00 00 	sub    $0x1a8,%rsp
  40912e:	48 89 bd 78 fe ff ff 	mov    %rdi,-0x188(%rbp)
  409135:	48 89 b5 70 fe ff ff 	mov    %rsi,-0x190(%rbp)
  40913c:	48 89 95 68 fe ff ff 	mov    %rdx,-0x198(%rbp)
  409143:	48 89 8d 60 fe ff ff 	mov    %rcx,-0x1a0(%rbp)
  40914a:	44 89 85 5c fe ff ff 	mov    %r8d,-0x1a4(%rbp)
  409151:	48 8d 85 6f ff ff ff 	lea    -0x91(%rbp),%rax
  409158:	48 89 c7             	mov    %rax,%rdi
  40915b:	e8 20 a3 ff ff       	callq  403480 <_ZNSaIcEC1Ev@plt>
  409160:	48 8d 95 6f ff ff ff 	lea    -0x91(%rbp),%rdx
  409167:	48 8b 8d 60 fe ff ff 	mov    -0x1a0(%rbp),%rcx
  40916e:	48 8d 85 40 ff ff ff 	lea    -0xc0(%rbp),%rax
  409175:	48 89 ce             	mov    %rcx,%rsi
  409178:	48 89 c7             	mov    %rax,%rdi
  40917b:	e8 e0 a1 ff ff       	callq  403360 <_ZNSt7__cxx1112basic_stringIcSt11char_traitsIcESaIcEEC1EPKcRKS3_@plt>
  409180:	48 8d 85 6f ff ff ff 	lea    -0x91(%rbp),%rax
  409187:	48 89 c7             	mov    %rax,%rdi
  40918a:	e8 41 a1 ff ff       	callq  4032d0 <_ZNSaIcED1Ev@plt>
  40918f:	48 8d 85 a0 fe ff ff 	lea    -0x160(%rbp),%rax
  409196:	48 89 c7             	mov    %rax,%rdi
  409199:	e8 18 0e 00 00       	callq  409fb6 <_ZN6SymbolC1Ev>
  40919e:	48 8d 85 40 ff ff ff 	lea    -0xc0(%rbp),%rax
  4091a5:	48 8d 95 a0 fe ff ff 	lea    -0x160(%rbp),%rdx
  4091ac:	48 83 c2 08          	add    $0x8,%rdx
  4091b0:	48 89 c6             	mov    %rax,%rsi
  4091b3:	48 89 d7             	mov    %rdx,%rdi
  4091b6:	e8 95 9e ff ff       	callq  403050 <_ZNSt7__cxx1112basic_stringIcSt11char_traitsIcESaIcEEaSERKS4_@plt>
  4091bb:	48 8b 85 70 fe ff ff 	mov    -0x190(%rbp),%rax
  4091c2:	48 89 85 28 ff ff ff 	mov    %rax,-0xd8(%rbp)
  4091c9:	48 8b 85 68 fe ff ff 	mov    -0x198(%rbp),%rax
  4091d0:	48 8d 95 a0 fe ff ff 	lea    -0x160(%rbp),%rdx
  4091d7:	48 83 c2 48          	add    $0x48,%rdx
  4091db:	48 89 c6             	mov    %rax,%rsi
  4091de:	48 89 d7             	mov    %rdx,%rdi
  4091e1:	e8 6a 9e ff ff       	callq  403050 <_ZNSt7__cxx1112basic_stringIcSt11char_traitsIcESaIcEEaSERKS4_@plt>
  4091e6:	c7 85 a0 fe ff ff 01 	movl   $0x1,-0x160(%rbp)
  4091ed:	00 00 00 
  4091f0:	8b 85 5c fe ff ff    	mov    -0x1a4(%rbp),%eax
  4091f6:	89 85 34 ff ff ff    	mov    %eax,-0xcc(%rbp)
  4091fc:	48 8d 85 70 ff ff ff 	lea    -0x90(%rbp),%rax
  409203:	48 8b 95 70 fe ff ff 	mov    -0x190(%rbp),%rdx
  40920a:	48 89 d6             	mov    %rdx,%rsi
  40920d:	48 89 c7             	mov    %rax,%rdi
  409210:	e8 6a d9 ff ff       	callq  406b7f <_ZNSt7__cxx119to_stringEl>
  409215:	48 8d 45 d0          	lea    -0x30(%rbp),%rax
  409219:	48 8d 8d 40 ff ff ff 	lea    -0xc0(%rbp),%rcx
  409220:	ba a7 e4 40 00       	mov    $0x40e4a7,%edx
  409225:	48 89 ce             	mov    %rcx,%rsi
  409228:	48 89 c7             	mov    %rax,%rdi
  40922b:	e8 ad 0e 00 00       	callq  40a0dd <_ZStplIcSt11char_traitsIcESaIcEENSt7__cxx1112basic_stringIT_T0_T1_EERKS8_PKS5_>
  409230:	48 8d 45 b0          	lea    -0x50(%rbp),%rax
  409234:	48 8b 95 68 fe ff ff 	mov    -0x198(%rbp),%rdx
  40923b:	48 8d 4d d0          	lea    -0x30(%rbp),%rcx
  40923f:	48 89 ce             	mov    %rcx,%rsi
  409242:	48 89 c7             	mov    %rax,%rdi
  409245:	e8 f7 0f 00 00       	callq  40a241 <_ZStplIcSt11char_traitsIcESaIcEENSt7__cxx1112basic_stringIT_T0_T1_EEOS8_RKS8_>
  40924a:	48 8d 45 90          	lea    -0x70(%rbp),%rax
  40924e:	48 8d 4d b0          	lea    -0x50(%rbp),%rcx
  409252:	ba a7 e4 40 00       	mov    $0x40e4a7,%edx
  409257:	48 89 ce             	mov    %rcx,%rsi
  40925a:	48 89 c7             	mov    %rax,%rdi
  40925d:	e8 26 10 00 00       	callq  40a288 <_ZStplIcSt11char_traitsIcESaIcEENSt7__cxx1112basic_stringIT_T0_T1_EEOS8_PKS5_>
  409262:	48 8d 85 80 fe ff ff 	lea    -0x180(%rbp),%rax
  409269:	48 8d 95 70 ff ff ff 	lea    -0x90(%rbp),%rdx
  409270:	48 8d 4d 90          	lea    -0x70(%rbp),%rcx
  409274:	48 89 ce             	mov    %rcx,%rsi
  409277:	48 89 c7             	mov    %rax,%rdi
  40927a:	e8 c0 0e 00 00       	callq  40a13f <_ZStplIcSt11char_traitsIcESaIcEENSt7__cxx1112basic_stringIT_T0_T1_EEOS8_S9_>
  40927f:	48 8d 45 90          	lea    -0x70(%rbp),%rax
  409283:	48 89 c7             	mov    %rax,%rdi
  409286:	e8 05 9f ff ff       	callq  403190 <_ZNSt7__cxx1112basic_stringIcSt11char_traitsIcESaIcEED1Ev@plt>
  40928b:	48 8d 45 b0          	lea    -0x50(%rbp),%rax
  40928f:	48 89 c7             	mov    %rax,%rdi
  409292:	e8 f9 9e ff ff       	callq  403190 <_ZNSt7__cxx1112basic_stringIcSt11char_traitsIcESaIcEED1Ev@plt>
  409297:	48 8d 45 d0          	lea    -0x30(%rbp),%rax
  40929b:	48 89 c7             	mov    %rax,%rdi
  40929e:	e8 ed 9e ff ff       	callq  403190 <_ZNSt7__cxx1112basic_stringIcSt11char_traitsIcESaIcEED1Ev@plt>
  4092a3:	48 8d 85 70 ff ff ff 	lea    -0x90(%rbp),%rax
  4092aa:	48 89 c7             	mov    %rax,%rdi
  4092ad:	e8 de 9e ff ff       	callq  403190 <_ZNSt7__cxx1112basic_stringIcSt11char_traitsIcESaIcEED1Ev@plt>
  4092b2:	48 8b 85 78 fe ff ff 	mov    -0x188(%rbp),%rax
  4092b9:	48 8d 50 20          	lea    0x20(%rax),%rdx
  4092bd:	48 8d 85 80 fe ff ff 	lea    -0x180(%rbp),%rax
  4092c4:	48 89 c6             	mov    %rax,%rsi
  4092c7:	48 89 d7             	mov    %rdx,%rdi
  4092ca:	e8 01 10 00 00       	callq  40a2d0 <_ZNSt3mapINSt7__cxx1112basic_stringIcSt11char_traitsIcESaIcEEE6SymbolSt4lessIS5_ESaISt4pairIKS5_S6_EEEixERSA_>
  4092cf:	48 89 c2             	mov    %rax,%rdx
  4092d2:	48 8d 85 a0 fe ff ff 	lea    -0x160(%rbp),%rax
  4092d9:	48 89 c6             	mov    %rax,%rsi
  4092dc:	48 89 d7             	mov    %rdx,%rdi
  4092df:	e8 2c 0d 00 00       	callq  40a010 <_ZN6SymbolaSERKS_>
  4092e4:	48 8b 85 78 fe ff ff 	mov    -0x188(%rbp),%rax
  4092eb:	48 8d 50 50          	lea    0x50(%rax),%rdx
  4092ef:	48 8d 85 80 fe ff ff 	lea    -0x180(%rbp),%rax
  4092f6:	48 89 c6             	mov    %rax,%rsi
  4092f9:	48 89 d7             	mov    %rdx,%rdi
  4092fc:	e8 c7 10 00 00       	callq  40a3c8 <_ZNSt6vectorINSt7__cxx1112basic_stringIcSt11char_traitsIcESaIcEEESaIS5_EE12emplace_backIJRS5_EEEvDpOT_>
  409301:	48 8d 85 80 fe ff ff 	lea    -0x180(%rbp),%rax
  409308:	48 89 c7             	mov    %rax,%rdi
  40930b:	e8 80 9e ff ff       	callq  403190 <_ZNSt7__cxx1112basic_stringIcSt11char_traitsIcESaIcEED1Ev@plt>
  409310:	48 8d 85 a0 fe ff ff 	lea    -0x160(%rbp),%rax
  409317:	48 89 c7             	mov    %rax,%rdi
  40931a:	e8 29 fa ff ff       	callq  408d48 <_ZN6SymbolD1Ev>
  40931f:	48 8d 85 40 ff ff ff 	lea    -0xc0(%rbp),%rax
  409326:	48 89 c7             	mov    %rax,%rdi
  409329:	e8 62 9e ff ff       	callq  403190 <_ZNSt7__cxx1112basic_stringIcSt11char_traitsIcESaIcEED1Ev@plt>
  40932e:	e9 a4 00 00 00       	jmpq   4093d7 <_ZN11SymbolTable7addFuncElRKNSt7__cxx1112basic_stringIcSt11char_traitsIcESaIcEEEPc14FunctionAction+0x2b5>
  409333:	48 89 c3             	mov    %rax,%rbx
  409336:	48 8d 85 6f ff ff ff 	lea    -0x91(%rbp),%rax
  40933d:	48 89 c7             	mov    %rax,%rdi
  409340:	e8 8b 9f ff ff       	callq  4032d0 <_ZNSaIcED1Ev@plt>
  409345:	48 89 d8             	mov    %rbx,%rax
  409348:	48 89 c7             	mov    %rax,%rdi
  40934b:	e8 20 a1 ff ff       	callq  403470 <_Unwind_Resume@plt>
  409350:	48 89 c3             	mov    %rax,%rbx
  409353:	48 8d 45 90          	lea    -0x70(%rbp),%rax
  409357:	48 89 c7             	mov    %rax,%rdi
  40935a:	e8 31 9e ff ff       	callq  403190 <_ZNSt7__cxx1112basic_stringIcSt11char_traitsIcESaIcEED1Ev@plt>
  40935f:	eb 03                	jmp    409364 <_ZN11SymbolTable7addFuncElRKNSt7__cxx1112basic_stringIcSt11char_traitsIcESaIcEEEPc14FunctionAction+0x242>
  409361:	48 89 c3             	mov    %rax,%rbx
  409364:	48 8d 45 b0          	lea    -0x50(%rbp),%rax
  409368:	48 89 c7             	mov    %rax,%rdi
  40936b:	e8 20 9e ff ff       	callq  403190 <_ZNSt7__cxx1112basic_stringIcSt11char_traitsIcESaIcEED1Ev@plt>
  409370:	eb 03                	jmp    409375 <_ZN11SymbolTable7addFuncElRKNSt7__cxx1112basic_stringIcSt11char_traitsIcESaIcEEEPc14FunctionAction+0x253>
  409372:	48 89 c3             	mov    %rax,%rbx
  409375:	48 8d 45 d0          	lea    -0x30(%rbp),%rax
  409379:	48 89 c7             	mov    %rax,%rdi
  40937c:	e8 0f 9e ff ff       	callq  403190 <_ZNSt7__cxx1112basic_stringIcSt11char_traitsIcESaIcEED1Ev@plt>
  409381:	eb 03                	jmp    409386 <_ZN11SymbolTable7addFuncElRKNSt7__cxx1112basic_stringIcSt11char_traitsIcESaIcEEEPc14FunctionAction+0x264>
  409383:	48 89 c3             	mov    %rax,%rbx
  409386:	48 8d 85 70 ff ff ff 	lea    -0x90(%rbp),%rax
  40938d:	48 89 c7             	mov    %rax,%rdi
  409390:	e8 fb 9d ff ff       	callq  403190 <_ZNSt7__cxx1112basic_stringIcSt11char_traitsIcESaIcEED1Ev@plt>
  409395:	eb 17                	jmp    4093ae <_ZN11SymbolTable7addFuncElRKNSt7__cxx1112basic_stringIcSt11char_traitsIcESaIcEEEPc14FunctionAction+0x28c>
  409397:	48 89 c3             	mov    %rax,%rbx
  40939a:	48 8d 85 80 fe ff ff 	lea    -0x180(%rbp),%rax
  4093a1:	48 89 c7             	mov    %rax,%rdi
  4093a4:	e8 e7 9d ff ff       	callq  403190 <_ZNSt7__cxx1112basic_stringIcSt11char_traitsIcESaIcEED1Ev@plt>
  4093a9:	eb 03                	jmp    4093ae <_ZN11SymbolTable7addFuncElRKNSt7__cxx1112basic_stringIcSt11char_traitsIcESaIcEEEPc14FunctionAction+0x28c>
  4093ab:	48 89 c3             	mov    %rax,%rbx
  4093ae:	48 8d 85 a0 fe ff ff 	lea    -0x160(%rbp),%rax
  4093b5:	48 89 c7             	mov    %rax,%rdi
  4093b8:	e8 8b f9 ff ff       	callq  408d48 <_ZN6SymbolD1Ev>
  4093bd:	48 8d 85 40 ff ff ff 	lea    -0xc0(%rbp),%rax
  4093c4:	48 89 c7             	mov    %rax,%rdi
  4093c7:	e8 c4 9d ff ff       	callq  403190 <_ZNSt7__cxx1112basic_stringIcSt11char_traitsIcESaIcEED1Ev@plt>
  4093cc:	48 89 d8             	mov    %rbx,%rax
  4093cf:	48 89 c7             	mov    %rax,%rdi
  4093d2:	e8 99 a0 ff ff       	callq  403470 <_Unwind_Resume@plt>
  4093d7:	48 81 c4 a8 01 00 00 	add    $0x1a8,%rsp
  4093de:	5b                   	pop    %rbx
  4093df:	5d                   	pop    %rbp
  4093e0:	c3                   	retq   
  4093e1:	90                   	nop

00000000004093e2 <_ZN11SymbolTable8toStringB5cxx11Ev>:
  4093e2:	55                   	push   %rbp
  4093e3:	48 89 e5             	mov    %rsp,%rbp
  4093e6:	53                   	push   %rbx
  4093e7:	48 81 ec 88 00 00 00 	sub    $0x88,%rsp
  4093ee:	48 89 bd 78 ff ff ff 	mov    %rdi,-0x88(%rbp)
  4093f5:	48 89 b5 70 ff ff ff 	mov    %rsi,-0x90(%rbp)
  4093fc:	48 8d 45 bf          	lea    -0x41(%rbp),%rax
  409400:	48 89 c7             	mov    %rax,%rdi
  409403:	e8 78 a0 ff ff       	callq  403480 <_ZNSaIcEC1Ev@plt>
  409408:	48 8d 55 bf          	lea    -0x41(%rbp),%rdx
  40940c:	48 8d 45 90          	lea    -0x70(%rbp),%rax
  409410:	be b0 e4 40 00       	mov    $0x40e4b0,%esi
  409415:	48 89 c7             	mov    %rax,%rdi
  409418:	e8 43 9f ff ff       	callq  403360 <_ZNSt7__cxx1112basic_stringIcSt11char_traitsIcESaIcEEC1EPKcRKS3_@plt>
  40941d:	48 8d 45 bf          	lea    -0x41(%rbp),%rax
  409421:	48 89 c7             	mov    %rax,%rdi
  409424:	e8 a7 9e ff ff       	callq  4032d0 <_ZNSaIcED1Ev@plt>
  409429:	48 8b 85 70 ff ff ff 	mov    -0x90(%rbp),%rax
  409430:	48 83 c0 20          	add    $0x20,%rax
  409434:	48 89 45 e8          	mov    %rax,-0x18(%rbp)
  409438:	48 8b 45 e8          	mov    -0x18(%rbp),%rax
  40943c:	48 89 c7             	mov    %rax,%rdi
  40943f:	e8 1e 10 00 00       	callq  40a462 <_ZNSt3mapINSt7__cxx1112basic_stringIcSt11char_traitsIcESaIcEEE6SymbolSt4lessIS5_ESaISt4pairIKS5_S6_EEE5beginEv>
  409444:	48 89 45 88          	mov    %rax,-0x78(%rbp)
  409448:	48 8b 45 e8          	mov    -0x18(%rbp),%rax
  40944c:	48 89 c7             	mov    %rax,%rdi
  40944f:	e8 28 10 00 00       	callq  40a47c <_ZNSt3mapINSt7__cxx1112basic_stringIcSt11char_traitsIcESaIcEEE6SymbolSt4lessIS5_ESaISt4pairIKS5_S6_EEE3endEv>
  409454:	48 89 45 80          	mov    %rax,-0x80(%rbp)
  409458:	48 8d 55 80          	lea    -0x80(%rbp),%rdx
  40945c:	48 8d 45 88          	lea    -0x78(%rbp),%rax
  409460:	48 89 d6             	mov    %rdx,%rsi
  409463:	48 89 c7             	mov    %rax,%rdi
  409466:	e8 2b 10 00 00       	callq  40a496 <_ZNKSt17_Rb_tree_iteratorISt4pairIKNSt7__cxx1112basic_stringIcSt11char_traitsIcESaIcEEE6SymbolEEneERKSA_>
  40946b:	84 c0                	test   %al,%al
  40946d:	0f 84 ad 00 00 00    	je     409520 <_ZN11SymbolTable8toStringB5cxx11Ev+0x13e>
  409473:	48 8d 45 88          	lea    -0x78(%rbp),%rax
  409477:	48 89 c7             	mov    %rax,%rdi
  40947a:	e8 65 10 00 00       	callq  40a4e4 <_ZNKSt17_Rb_tree_iteratorISt4pairIKNSt7__cxx1112basic_stringIcSt11char_traitsIcESaIcEEE6SymbolEEdeEv>
  40947f:	48 89 45 e0          	mov    %rax,-0x20(%rbp)
  409483:	48 8b 55 e0          	mov    -0x20(%rbp),%rdx
  409487:	48 8d 45 90          	lea    -0x70(%rbp),%rax
  40948b:	48 89 d6             	mov    %rdx,%rsi
  40948e:	48 89 c7             	mov    %rax,%rdi
  409491:	e8 4a a0 ff ff       	callq  4034e0 <_ZNSt7__cxx1112basic_stringIcSt11char_traitsIcESaIcEE6appendERKS4_@plt>
  409496:	be d6 e4 40 00       	mov    $0x40e4d6,%esi
  40949b:	48 89 c7             	mov    %rax,%rdi
  40949e:	e8 1d a0 ff ff       	callq  4034c0 <_ZNSt7__cxx1112basic_stringIcSt11char_traitsIcESaIcEE6appendEPKc@plt>
  4094a3:	48 89 c3             	mov    %rax,%rbx
  4094a6:	48 8b 45 e0          	mov    -0x20(%rbp),%rax
  4094aa:	48 8d 50 20          	lea    0x20(%rax),%rdx
  4094ae:	48 8d 45 c0          	lea    -0x40(%rbp),%rax
  4094b2:	48 8b 8d 70 ff ff ff 	mov    -0x90(%rbp),%rcx
  4094b9:	48 89 ce             	mov    %rcx,%rsi
  4094bc:	48 89 c7             	mov    %rax,%rdi
  4094bf:	e8 32 07 00 00       	callq  409bf6 <_ZN11SymbolTable18toSymbolTypeStringB5cxx11ERK10SymbolType>
  4094c4:	48 8d 45 c0          	lea    -0x40(%rbp),%rax
  4094c8:	48 89 c6             	mov    %rax,%rsi
  4094cb:	48 89 df             	mov    %rbx,%rdi
  4094ce:	e8 0d a0 ff ff       	callq  4034e0 <_ZNSt7__cxx1112basic_stringIcSt11char_traitsIcESaIcEE6appendERKS4_@plt>
  4094d3:	be d6 e4 40 00       	mov    $0x40e4d6,%esi
  4094d8:	48 89 c7             	mov    %rax,%rdi
  4094db:	e8 e0 9f ff ff       	callq  4034c0 <_ZNSt7__cxx1112basic_stringIcSt11char_traitsIcESaIcEE6appendEPKc@plt>
  4094e0:	48 89 c2             	mov    %rax,%rdx
  4094e3:	48 8b 45 e0          	mov    -0x20(%rbp),%rax
  4094e7:	48 83 c0 48          	add    $0x48,%rax
  4094eb:	48 89 c6             	mov    %rax,%rsi
  4094ee:	48 89 d7             	mov    %rdx,%rdi
  4094f1:	e8 ea 9f ff ff       	callq  4034e0 <_ZNSt7__cxx1112basic_stringIcSt11char_traitsIcESaIcEE6appendERKS4_@plt>
  4094f6:	be db e4 40 00       	mov    $0x40e4db,%esi
  4094fb:	48 89 c7             	mov    %rax,%rdi
  4094fe:	e8 bd 9f ff ff       	callq  4034c0 <_ZNSt7__cxx1112basic_stringIcSt11char_traitsIcESaIcEE6appendEPKc@plt>
  409503:	48 8d 45 c0          	lea    -0x40(%rbp),%rax
  409507:	48 89 c7             	mov    %rax,%rdi
  40950a:	e8 81 9c ff ff       	callq  403190 <_ZNSt7__cxx1112basic_stringIcSt11char_traitsIcESaIcEED1Ev@plt>
  40950f:	48 8d 45 88          	lea    -0x78(%rbp),%rax
  409513:	48 89 c7             	mov    %rax,%rdi
  409516:	e8 9d 0f 00 00       	callq  40a4b8 <_ZNSt17_Rb_tree_iteratorISt4pairIKNSt7__cxx1112basic_stringIcSt11char_traitsIcESaIcEEE6SymbolEEppEv>
  40951b:	e9 38 ff ff ff       	jmpq   409458 <_ZN11SymbolTable8toStringB5cxx11Ev+0x76>
  409520:	48 8d 45 90          	lea    -0x70(%rbp),%rax
  409524:	48 89 c7             	mov    %rax,%rdi
  409527:	e8 82 dc ff ff       	callq  4071ae <_ZSt4moveIRNSt7__cxx1112basic_stringIcSt11char_traitsIcESaIcEEEEONSt16remove_referenceIT_E4typeEOS8_>
  40952c:	48 89 c2             	mov    %rax,%rdx
  40952f:	48 8b 85 78 ff ff ff 	mov    -0x88(%rbp),%rax
  409536:	48 89 d6             	mov    %rdx,%rsi
  409539:	48 89 c7             	mov    %rax,%rdi
  40953c:	e8 3f 9c ff ff       	callq  403180 <_ZNSt7__cxx1112basic_stringIcSt11char_traitsIcESaIcEEC1EOS4_@plt>
  409541:	48 8d 45 90          	lea    -0x70(%rbp),%rax
  409545:	48 89 c7             	mov    %rax,%rdi
  409548:	e8 43 9c ff ff       	callq  403190 <_ZNSt7__cxx1112basic_stringIcSt11char_traitsIcESaIcEED1Ev@plt>
  40954d:	eb 45                	jmp    409594 <_ZN11SymbolTable8toStringB5cxx11Ev+0x1b2>
  40954f:	48 89 c3             	mov    %rax,%rbx
  409552:	48 8d 45 bf          	lea    -0x41(%rbp),%rax
  409556:	48 89 c7             	mov    %rax,%rdi
  409559:	e8 72 9d ff ff       	callq  4032d0 <_ZNSaIcED1Ev@plt>
  40955e:	48 89 d8             	mov    %rbx,%rax
  409561:	48 89 c7             	mov    %rax,%rdi
  409564:	e8 07 9f ff ff       	callq  403470 <_Unwind_Resume@plt>
  409569:	48 89 c3             	mov    %rax,%rbx
  40956c:	48 8d 45 c0          	lea    -0x40(%rbp),%rax
  409570:	48 89 c7             	mov    %rax,%rdi
  409573:	e8 18 9c ff ff       	callq  403190 <_ZNSt7__cxx1112basic_stringIcSt11char_traitsIcESaIcEED1Ev@plt>
  409578:	eb 03                	jmp    40957d <_ZN11SymbolTable8toStringB5cxx11Ev+0x19b>
  40957a:	48 89 c3             	mov    %rax,%rbx
  40957d:	48 8d 45 90          	lea    -0x70(%rbp),%rax
  409581:	48 89 c7             	mov    %rax,%rdi
  409584:	e8 07 9c ff ff       	callq  403190 <_ZNSt7__cxx1112basic_stringIcSt11char_traitsIcESaIcEED1Ev@plt>
  409589:	48 89 d8             	mov    %rbx,%rax
  40958c:	48 89 c7             	mov    %rax,%rdi
  40958f:	e8 dc 9e ff ff       	callq  403470 <_Unwind_Resume@plt>
  409594:	48 8b 85 78 ff ff ff 	mov    -0x88(%rbp),%rax
  40959b:	48 81 c4 88 00 00 00 	add    $0x88,%rsp
  4095a2:	5b                   	pop    %rbx
  4095a3:	5d                   	pop    %rbp
  4095a4:	c3                   	retq   
  4095a5:	90                   	nop

00000000004095a6 <_ZN11SymbolTable4showEv>:
  4095a6:	55                   	push   %rbp
  4095a7:	48 89 e5             	mov    %rsp,%rbp
  4095aa:	41 54                	push   %r12
  4095ac:	53                   	push   %rbx
  4095ad:	48 81 ec b0 00 00 00 	sub    $0xb0,%rsp
  4095b4:	48 89 bd 48 ff ff ff 	mov    %rdi,-0xb8(%rbp)
  4095bb:	be dd e4 40 00       	mov    $0x40e4dd,%esi
  4095c0:	bf e0 42 41 00       	mov    $0x4142e0,%edi
  4095c5:	e8 a6 9c ff ff       	callq  403270 <_ZStlsISt11char_traitsIcEERSt13basic_ostreamIcT_ES5_PKc@plt>
  4095ca:	be 50 31 40 00       	mov    $0x403150,%esi
  4095cf:	48 89 c7             	mov    %rax,%rdi
  4095d2:	e8 c9 9c ff ff       	callq  4032a0 <_ZNSolsEPFRSoS_E@plt>
  4095d7:	be fb e4 40 00       	mov    $0x40e4fb,%esi
  4095dc:	bf e0 42 41 00       	mov    $0x4142e0,%edi
  4095e1:	e8 8a 9c ff ff       	callq  403270 <_ZStlsISt11char_traitsIcEERSt13basic_ostreamIcT_ES5_PKc@plt>
  4095e6:	49 89 c4             	mov    %rax,%r12
  4095e9:	48 8b 85 48 ff ff ff 	mov    -0xb8(%rbp),%rax
  4095f0:	48 89 c7             	mov    %rax,%rdi
  4095f3:	e8 58 9e ff ff       	callq  403450 <_ZNKSt7__cxx1112basic_stringIcSt11char_traitsIcESaIcEE5emptyEv@plt>
  4095f8:	bb 00 00 00 00       	mov    $0x0,%ebx
  4095fd:	84 c0                	test   %al,%al
  4095ff:	74 2b                	je     40962c <_ZN11SymbolTable4showEv+0x86>
  409601:	48 8d 45 8f          	lea    -0x71(%rbp),%rax
  409605:	48 89 c7             	mov    %rax,%rdi
  409608:	e8 73 9e ff ff       	callq  403480 <_ZNSaIcEC1Ev@plt>
  40960d:	bb 01 00 00 00       	mov    $0x1,%ebx
  409612:	48 8d 55 8f          	lea    -0x71(%rbp),%rdx
  409616:	48 8d 85 60 ff ff ff 	lea    -0xa0(%rbp),%rax
  40961d:	be 07 e5 40 00       	mov    $0x40e507,%esi
  409622:	48 89 c7             	mov    %rax,%rdi
  409625:	e8 36 9d ff ff       	callq  403360 <_ZNSt7__cxx1112basic_stringIcSt11char_traitsIcESaIcEEC1EPKcRKS3_@plt>
  40962a:	eb 19                	jmp    409645 <_ZN11SymbolTable4showEv+0x9f>
  40962c:	48 8b 95 48 ff ff ff 	mov    -0xb8(%rbp),%rdx
  409633:	48 8d 85 60 ff ff ff 	lea    -0xa0(%rbp),%rax
  40963a:	48 89 d6             	mov    %rdx,%rsi
  40963d:	48 89 c7             	mov    %rax,%rdi
  409640:	e8 eb 9a ff ff       	callq  403130 <_ZNSt7__cxx1112basic_stringIcSt11char_traitsIcESaIcEEC1ERKS4_@plt>
  409645:	48 8d 85 60 ff ff ff 	lea    -0xa0(%rbp),%rax
  40964c:	48 89 c6             	mov    %rax,%rsi
  40964f:	4c 89 e7             	mov    %r12,%rdi
  409652:	e8 f9 9b ff ff       	callq  403250 <_ZStlsIcSt11char_traitsIcESaIcEERSt13basic_ostreamIT_T0_ES7_RKNSt7__cxx1112basic_stringIS4_S5_T1_EE@plt>
  409657:	be 50 31 40 00       	mov    $0x403150,%esi
  40965c:	48 89 c7             	mov    %rax,%rdi
  40965f:	e8 3c 9c ff ff       	callq  4032a0 <_ZNSolsEPFRSoS_E@plt>
  409664:	48 8d 85 60 ff ff ff 	lea    -0xa0(%rbp),%rax
  40966b:	48 89 c7             	mov    %rax,%rdi
  40966e:	e8 1d 9b ff ff       	callq  403190 <_ZNSt7__cxx1112basic_stringIcSt11char_traitsIcESaIcEED1Ev@plt>
  409673:	84 db                	test   %bl,%bl
  409675:	74 0c                	je     409683 <_ZN11SymbolTable4showEv+0xdd>
  409677:	48 8d 45 8f          	lea    -0x71(%rbp),%rax
  40967b:	48 89 c7             	mov    %rax,%rdi
  40967e:	e8 4d 9c ff ff       	callq  4032d0 <_ZNSaIcED1Ev@plt>
  409683:	be dd e4 40 00       	mov    $0x40e4dd,%esi
  409688:	bf e0 42 41 00       	mov    $0x4142e0,%edi
  40968d:	e8 de 9b ff ff       	callq  403270 <_ZStlsISt11char_traitsIcEERSt13basic_ostreamIcT_ES5_PKc@plt>
  409692:	be 50 31 40 00       	mov    $0x403150,%esi
  409697:	48 89 c7             	mov    %rax,%rdi
  40969a:	e8 01 9c ff ff       	callq  4032a0 <_ZNSolsEPFRSoS_E@plt>
  40969f:	be 0e e5 40 00       	mov    $0x40e50e,%esi
  4096a4:	bf e0 42 41 00       	mov    $0x4142e0,%edi
  4096a9:	e8 c2 9b ff ff       	callq  403270 <_ZStlsISt11char_traitsIcEERSt13basic_ostreamIcT_ES5_PKc@plt>
  4096ae:	be 50 31 40 00       	mov    $0x403150,%esi
  4096b3:	48 89 c7             	mov    %rax,%rdi
  4096b6:	e8 e5 9b ff ff       	callq  4032a0 <_ZNSolsEPFRSoS_E@plt>
  4096bb:	be dd e4 40 00       	mov    $0x40e4dd,%esi
  4096c0:	bf e0 42 41 00       	mov    $0x4142e0,%edi
  4096c5:	e8 a6 9b ff ff       	callq  403270 <_ZStlsISt11char_traitsIcEERSt13basic_ostreamIcT_ES5_PKc@plt>
  4096ca:	be 50 31 40 00       	mov    $0x403150,%esi
  4096cf:	48 89 c7             	mov    %rax,%rdi
  4096d2:	e8 c9 9b ff ff       	callq  4032a0 <_ZNSolsEPFRSoS_E@plt>
  4096d7:	bf 0f 00 00 00       	mov    $0xf,%edi
  4096dc:	e8 90 08 00 00       	callq  409f71 <_ZSt4setwi>
  4096e1:	89 c6                	mov    %eax,%esi
  4096e3:	bf e0 42 41 00       	mov    $0x4142e0,%edi
  4096e8:	e8 03 9c ff ff       	callq  4032f0 <_ZStlsIcSt11char_traitsIcEERSt13basic_ostreamIT_T0_ES6_St5_Setw@plt>
  4096ed:	be e8 9e 40 00       	mov    $0x409ee8,%esi
  4096f2:	48 89 c7             	mov    %rax,%rdi
  4096f5:	e8 f6 99 ff ff       	callq  4030f0 <_ZNSolsEPFRSt8ios_baseS0_E@plt>
  4096fa:	be 2c e5 40 00       	mov    $0x40e52c,%esi
  4096ff:	48 89 c7             	mov    %rax,%rdi
  409702:	e8 69 9b ff ff       	callq  403270 <_ZStlsISt11char_traitsIcEERSt13basic_ostreamIcT_ES5_PKc@plt>
  409707:	48 89 c3             	mov    %rax,%rbx
  40970a:	bf 0f 00 00 00       	mov    $0xf,%edi
  40970f:	e8 5d 08 00 00       	callq  409f71 <_ZSt4setwi>
  409714:	89 c6                	mov    %eax,%esi
  409716:	48 89 df             	mov    %rbx,%rdi
  409719:	e8 d2 9b ff ff       	callq  4032f0 <_ZStlsIcSt11char_traitsIcEERSt13basic_ostreamIT_T0_ES6_St5_Setw@plt>
  40971e:	be e8 9e 40 00       	mov    $0x409ee8,%esi
  409723:	48 89 c7             	mov    %rax,%rdi
  409726:	e8 c5 99 ff ff       	callq  4030f0 <_ZNSolsEPFRSt8ios_baseS0_E@plt>
  40972b:	be 33 e5 40 00       	mov    $0x40e533,%esi
  409730:	48 89 c7             	mov    %rax,%rdi
  409733:	e8 38 9b ff ff       	callq  403270 <_ZStlsISt11char_traitsIcEERSt13basic_ostreamIcT_ES5_PKc@plt>
  409738:	48 89 c3             	mov    %rax,%rbx
  40973b:	bf 0f 00 00 00       	mov    $0xf,%edi
  409740:	e8 2c 08 00 00       	callq  409f71 <_ZSt4setwi>
  409745:	89 c6                	mov    %eax,%esi
  409747:	48 89 df             	mov    %rbx,%rdi
  40974a:	e8 a1 9b ff ff       	callq  4032f0 <_ZStlsIcSt11char_traitsIcEERSt13basic_ostreamIT_T0_ES6_St5_Setw@plt>
  40974f:	be e8 9e 40 00       	mov    $0x409ee8,%esi
  409754:	48 89 c7             	mov    %rax,%rdi
  409757:	e8 94 99 ff ff       	callq  4030f0 <_ZNSolsEPFRSt8ios_baseS0_E@plt>
  40975c:	be 38 e5 40 00       	mov    $0x40e538,%esi
  409761:	48 89 c7             	mov    %rax,%rdi
  409764:	e8 07 9b ff ff       	callq  403270 <_ZStlsISt11char_traitsIcEERSt13basic_ostreamIcT_ES5_PKc@plt>
  409769:	48 89 c3             	mov    %rax,%rbx
  40976c:	bf 0f 00 00 00       	mov    $0xf,%edi
  409771:	e8 fb 07 00 00       	callq  409f71 <_ZSt4setwi>
  409776:	89 c6                	mov    %eax,%esi
  409778:	48 89 df             	mov    %rbx,%rdi
  40977b:	e8 70 9b ff ff       	callq  4032f0 <_ZStlsIcSt11char_traitsIcEERSt13basic_ostreamIT_T0_ES6_St5_Setw@plt>
  409780:	be e8 9e 40 00       	mov    $0x409ee8,%esi
  409785:	48 89 c7             	mov    %rax,%rdi
  409788:	e8 63 99 ff ff       	callq  4030f0 <_ZNSolsEPFRSt8ios_baseS0_E@plt>
  40978d:	be 3e e5 40 00       	mov    $0x40e53e,%esi
  409792:	48 89 c7             	mov    %rax,%rdi
  409795:	e8 d6 9a ff ff       	callq  403270 <_ZStlsISt11char_traitsIcEERSt13basic_ostreamIcT_ES5_PKc@plt>
  40979a:	48 89 c3             	mov    %rax,%rbx
  40979d:	bf 0f 00 00 00       	mov    $0xf,%edi
  4097a2:	e8 ca 07 00 00       	callq  409f71 <_ZSt4setwi>
  4097a7:	89 c6                	mov    %eax,%esi
  4097a9:	48 89 df             	mov    %rbx,%rdi
  4097ac:	e8 3f 9b ff ff       	callq  4032f0 <_ZStlsIcSt11char_traitsIcEERSt13basic_ostreamIT_T0_ES6_St5_Setw@plt>
  4097b1:	be e8 9e 40 00       	mov    $0x409ee8,%esi
  4097b6:	48 89 c7             	mov    %rax,%rdi
  4097b9:	e8 32 99 ff ff       	callq  4030f0 <_ZNSolsEPFRSt8ios_baseS0_E@plt>
  4097be:	be 43 e5 40 00       	mov    $0x40e543,%esi
  4097c3:	48 89 c7             	mov    %rax,%rdi
  4097c6:	e8 a5 9a ff ff       	callq  403270 <_ZStlsISt11char_traitsIcEERSt13basic_ostreamIcT_ES5_PKc@plt>
  4097cb:	48 89 c3             	mov    %rax,%rbx
  4097ce:	bf 0f 00 00 00       	mov    $0xf,%edi
  4097d3:	e8 99 07 00 00       	callq  409f71 <_ZSt4setwi>
  4097d8:	89 c6                	mov    %eax,%esi
  4097da:	48 89 df             	mov    %rbx,%rdi
  4097dd:	e8 0e 9b ff ff       	callq  4032f0 <_ZStlsIcSt11char_traitsIcEERSt13basic_ostreamIT_T0_ES6_St5_Setw@plt>
  4097e2:	be e8 9e 40 00       	mov    $0x409ee8,%esi
  4097e7:	48 89 c7             	mov    %rax,%rdi
  4097ea:	e8 01 99 ff ff       	callq  4030f0 <_ZNSolsEPFRSt8ios_baseS0_E@plt>
  4097ef:	be 49 e5 40 00       	mov    $0x40e549,%esi
  4097f4:	48 89 c7             	mov    %rax,%rdi
  4097f7:	e8 74 9a ff ff       	callq  403270 <_ZStlsISt11char_traitsIcEERSt13basic_ostreamIcT_ES5_PKc@plt>
  4097fc:	be 50 31 40 00       	mov    $0x403150,%esi
  409801:	48 89 c7             	mov    %rax,%rdi
  409804:	e8 97 9a ff ff       	callq  4032a0 <_ZNSolsEPFRSoS_E@plt>
  409809:	bf 0f 00 00 00       	mov    $0xf,%edi
  40980e:	e8 5e 07 00 00       	callq  409f71 <_ZSt4setwi>
  409813:	89 c6                	mov    %eax,%esi
  409815:	bf e0 42 41 00       	mov    $0x4142e0,%edi
  40981a:	e8 d1 9a ff ff       	callq  4032f0 <_ZStlsIcSt11char_traitsIcEERSt13basic_ostreamIT_T0_ES6_St5_Setw@plt>
  40981f:	be e8 9e 40 00       	mov    $0x409ee8,%esi
  409824:	48 89 c7             	mov    %rax,%rdi
  409827:	e8 c4 98 ff ff       	callq  4030f0 <_ZNSolsEPFRSt8ios_baseS0_E@plt>
  40982c:	be 50 e5 40 00       	mov    $0x40e550,%esi
  409831:	48 89 c7             	mov    %rax,%rdi
  409834:	e8 37 9a ff ff       	callq  403270 <_ZStlsISt11char_traitsIcEERSt13basic_ostreamIcT_ES5_PKc@plt>
  409839:	48 89 c3             	mov    %rax,%rbx
  40983c:	bf 0f 00 00 00       	mov    $0xf,%edi
  409841:	e8 2b 07 00 00       	callq  409f71 <_ZSt4setwi>
  409846:	89 c6                	mov    %eax,%esi
  409848:	48 89 df             	mov    %rbx,%rdi
  40984b:	e8 a0 9a ff ff       	callq  4032f0 <_ZStlsIcSt11char_traitsIcEERSt13basic_ostreamIT_T0_ES6_St5_Setw@plt>
  409850:	be e8 9e 40 00       	mov    $0x409ee8,%esi
  409855:	48 89 c7             	mov    %rax,%rdi
  409858:	e8 93 98 ff ff       	callq  4030f0 <_ZNSolsEPFRSt8ios_baseS0_E@plt>
  40985d:	be 50 e5 40 00       	mov    $0x40e550,%esi
  409862:	48 89 c7             	mov    %rax,%rdi
  409865:	e8 06 9a ff ff       	callq  403270 <_ZStlsISt11char_traitsIcEERSt13basic_ostreamIcT_ES5_PKc@plt>
  40986a:	48 89 c3             	mov    %rax,%rbx
  40986d:	bf 0f 00 00 00       	mov    $0xf,%edi
  409872:	e8 fa 06 00 00       	callq  409f71 <_ZSt4setwi>
  409877:	89 c6                	mov    %eax,%esi
  409879:	48 89 df             	mov    %rbx,%rdi
  40987c:	e8 6f 9a ff ff       	callq  4032f0 <_ZStlsIcSt11char_traitsIcEERSt13basic_ostreamIT_T0_ES6_St5_Setw@plt>
  409881:	be e8 9e 40 00       	mov    $0x409ee8,%esi
  409886:	48 89 c7             	mov    %rax,%rdi
  409889:	e8 62 98 ff ff       	callq  4030f0 <_ZNSolsEPFRSt8ios_baseS0_E@plt>
  40988e:	be 50 e5 40 00       	mov    $0x40e550,%esi
  409893:	48 89 c7             	mov    %rax,%rdi
  409896:	e8 d5 99 ff ff       	callq  403270 <_ZStlsISt11char_traitsIcEERSt13basic_ostreamIcT_ES5_PKc@plt>
  40989b:	48 89 c3             	mov    %rax,%rbx
  40989e:	bf 0f 00 00 00       	mov    $0xf,%edi
  4098a3:	e8 c9 06 00 00       	callq  409f71 <_ZSt4setwi>
  4098a8:	89 c6                	mov    %eax,%esi
  4098aa:	48 89 df             	mov    %rbx,%rdi
  4098ad:	e8 3e 9a ff ff       	callq  4032f0 <_ZStlsIcSt11char_traitsIcEERSt13basic_ostreamIT_T0_ES6_St5_Setw@plt>
  4098b2:	be e8 9e 40 00       	mov    $0x409ee8,%esi
  4098b7:	48 89 c7             	mov    %rax,%rdi
  4098ba:	e8 31 98 ff ff       	callq  4030f0 <_ZNSolsEPFRSt8ios_baseS0_E@plt>
  4098bf:	be 50 e5 40 00       	mov    $0x40e550,%esi
  4098c4:	48 89 c7             	mov    %rax,%rdi
  4098c7:	e8 a4 99 ff ff       	callq  403270 <_ZStlsISt11char_traitsIcEERSt13basic_ostreamIcT_ES5_PKc@plt>
  4098cc:	48 89 c3             	mov    %rax,%rbx
  4098cf:	bf 0f 00 00 00       	mov    $0xf,%edi
  4098d4:	e8 98 06 00 00       	callq  409f71 <_ZSt4setwi>
  4098d9:	89 c6                	mov    %eax,%esi
  4098db:	48 89 df             	mov    %rbx,%rdi
  4098de:	e8 0d 9a ff ff       	callq  4032f0 <_ZStlsIcSt11char_traitsIcEERSt13basic_ostreamIT_T0_ES6_St5_Setw@plt>
  4098e3:	be e8 9e 40 00       	mov    $0x409ee8,%esi
  4098e8:	48 89 c7             	mov    %rax,%rdi
  4098eb:	e8 00 98 ff ff       	callq  4030f0 <_ZNSolsEPFRSt8ios_baseS0_E@plt>
  4098f0:	be 50 e5 40 00       	mov    $0x40e550,%esi
  4098f5:	48 89 c7             	mov    %rax,%rdi
  4098f8:	e8 73 99 ff ff       	callq  403270 <_ZStlsISt11char_traitsIcEERSt13basic_ostreamIcT_ES5_PKc@plt>
  4098fd:	48 89 c3             	mov    %rax,%rbx
  409900:	bf 0f 00 00 00       	mov    $0xf,%edi
  409905:	e8 67 06 00 00       	callq  409f71 <_ZSt4setwi>
  40990a:	89 c6                	mov    %eax,%esi
  40990c:	48 89 df             	mov    %rbx,%rdi
  40990f:	e8 dc 99 ff ff       	callq  4032f0 <_ZStlsIcSt11char_traitsIcEERSt13basic_ostreamIT_T0_ES6_St5_Setw@plt>
  409914:	be e8 9e 40 00       	mov    $0x409ee8,%esi
  409919:	48 89 c7             	mov    %rax,%rdi
  40991c:	e8 cf 97 ff ff       	callq  4030f0 <_ZNSolsEPFRSt8ios_baseS0_E@plt>
  409921:	be 50 e5 40 00       	mov    $0x40e550,%esi
  409926:	48 89 c7             	mov    %rax,%rdi
  409929:	e8 42 99 ff ff       	callq  403270 <_ZStlsISt11char_traitsIcEERSt13basic_ostreamIcT_ES5_PKc@plt>
  40992e:	be 50 31 40 00       	mov    $0x403150,%esi
  409933:	48 89 c7             	mov    %rax,%rdi
  409936:	e8 65 99 ff ff       	callq  4032a0 <_ZNSolsEPFRSoS_E@plt>
  40993b:	48 8b 85 48 ff ff ff 	mov    -0xb8(%rbp),%rax
  409942:	48 83 c0 50          	add    $0x50,%rax
  409946:	48 89 45 e8          	mov    %rax,-0x18(%rbp)
  40994a:	48 8b 45 e8          	mov    -0x18(%rbp),%rax
  40994e:	48 89 c7             	mov    %rax,%rdi
  409951:	e8 e8 d5 ff ff       	callq  406f3e <_ZNSt6vectorINSt7__cxx1112basic_stringIcSt11char_traitsIcESaIcEEESaIS5_EE5beginEv>
  409956:	48 89 85 58 ff ff ff 	mov    %rax,-0xa8(%rbp)
  40995d:	48 8b 45 e8          	mov    -0x18(%rbp),%rax
  409961:	48 89 c7             	mov    %rax,%rdi
  409964:	e8 fb d5 ff ff       	callq  406f64 <_ZNSt6vectorINSt7__cxx1112basic_stringIcSt11char_traitsIcESaIcEEESaIS5_EE3endEv>
  409969:	48 89 85 50 ff ff ff 	mov    %rax,-0xb0(%rbp)
  409970:	48 8d 95 50 ff ff ff 	lea    -0xb0(%rbp),%rdx
  409977:	48 8d 85 58 ff ff ff 	lea    -0xa8(%rbp),%rax
  40997e:	48 89 d6             	mov    %rdx,%rsi
  409981:	48 89 c7             	mov    %rax,%rdi
  409984:	e8 04 d6 ff ff       	callq  406f8d <_ZN9__gnu_cxxneIPNSt7__cxx1112basic_stringIcSt11char_traitsIcESaIcEEESt6vectorIS6_SaIS6_EEEEbRKNS_17__normal_iteratorIT_T0_EESG_>
  409989:	84 c0                	test   %al,%al
  40998b:	0f 84 58 02 00 00    	je     409be9 <_ZN11SymbolTable4showEv+0x643>
  409991:	48 8d 85 58 ff ff ff 	lea    -0xa8(%rbp),%rax
  409998:	48 89 c7             	mov    %rax,%rdi
  40999b:	e8 4a d6 ff ff       	callq  406fea <_ZNK9__gnu_cxx17__normal_iteratorIPNSt7__cxx1112basic_stringIcSt11char_traitsIcESaIcEEESt6vectorIS6_SaIS6_EEEdeEv>
  4099a0:	48 89 45 e0          	mov    %rax,-0x20(%rbp)
  4099a4:	48 8b 85 48 ff ff ff 	mov    -0xb8(%rbp),%rax
  4099ab:	48 8d 50 20          	lea    0x20(%rax),%rdx
  4099af:	48 8b 45 e0          	mov    -0x20(%rbp),%rax
  4099b3:	48 89 c6             	mov    %rax,%rsi
  4099b6:	48 89 d7             	mov    %rdx,%rdi
  4099b9:	e8 12 09 00 00       	callq  40a2d0 <_ZNSt3mapINSt7__cxx1112basic_stringIcSt11char_traitsIcESaIcEEE6SymbolSt4lessIS5_ESaISt4pairIKS5_S6_EEEixERSA_>
  4099be:	48 89 45 d8          	mov    %rax,-0x28(%rbp)
  4099c2:	bf 0f 00 00 00       	mov    $0xf,%edi
  4099c7:	e8 a5 05 00 00       	callq  409f71 <_ZSt4setwi>
  4099cc:	89 c6                	mov    %eax,%esi
  4099ce:	bf e0 42 41 00       	mov    $0x4142e0,%edi
  4099d3:	e8 18 99 ff ff       	callq  4032f0 <_ZStlsIcSt11char_traitsIcEERSt13basic_ostreamIT_T0_ES6_St5_Setw@plt>
  4099d8:	be e8 9e 40 00       	mov    $0x409ee8,%esi
  4099dd:	48 89 c7             	mov    %rax,%rdi
  4099e0:	e8 0b 97 ff ff       	callq  4030f0 <_ZNSolsEPFRSt8ios_baseS0_E@plt>
  4099e5:	48 89 c2             	mov    %rax,%rdx
  4099e8:	48 8b 45 d8          	mov    -0x28(%rbp),%rax
  4099ec:	48 83 c0 08          	add    $0x8,%rax
  4099f0:	48 89 c6             	mov    %rax,%rsi
  4099f3:	48 89 d7             	mov    %rdx,%rdi
  4099f6:	e8 55 98 ff ff       	callq  403250 <_ZStlsIcSt11char_traitsIcESaIcEERSt13basic_ostreamIT_T0_ES7_RKNSt7__cxx1112basic_stringIS4_S5_T1_EE@plt>
  4099fb:	48 89 c3             	mov    %rax,%rbx
  4099fe:	bf 0f 00 00 00       	mov    $0xf,%edi
  409a03:	e8 69 05 00 00       	callq  409f71 <_ZSt4setwi>
  409a08:	89 c6                	mov    %eax,%esi
  409a0a:	48 89 df             	mov    %rbx,%rdi
  409a0d:	e8 de 98 ff ff       	callq  4032f0 <_ZStlsIcSt11char_traitsIcEERSt13basic_ostreamIT_T0_ES6_St5_Setw@plt>
  409a12:	be e8 9e 40 00       	mov    $0x409ee8,%esi
  409a17:	48 89 c7             	mov    %rax,%rdi
  409a1a:	e8 d1 96 ff ff       	callq  4030f0 <_ZNSolsEPFRSt8ios_baseS0_E@plt>
  409a1f:	48 89 c2             	mov    %rax,%rdx
  409a22:	48 8b 45 d8          	mov    -0x28(%rbp),%rax
  409a26:	48 8b 80 88 00 00 00 	mov    0x88(%rax),%rax
  409a2d:	48 89 c6             	mov    %rax,%rsi
  409a30:	48 89 d7             	mov    %rdx,%rdi
  409a33:	e8 68 9a ff ff       	callq  4034a0 <_ZNSolsEl@plt>
  409a38:	48 89 c3             	mov    %rax,%rbx
  409a3b:	bf 0f 00 00 00       	mov    $0xf,%edi
  409a40:	e8 2c 05 00 00       	callq  409f71 <_ZSt4setwi>
  409a45:	89 c6                	mov    %eax,%esi
  409a47:	48 89 df             	mov    %rbx,%rdi
  409a4a:	e8 a1 98 ff ff       	callq  4032f0 <_ZStlsIcSt11char_traitsIcEERSt13basic_ostreamIT_T0_ES6_St5_Setw@plt>
  409a4f:	be e8 9e 40 00       	mov    $0x409ee8,%esi
  409a54:	48 89 c7             	mov    %rax,%rdi
  409a57:	e8 94 96 ff ff       	callq  4030f0 <_ZNSolsEPFRSt8ios_baseS0_E@plt>
  409a5c:	48 89 c2             	mov    %rax,%rdx
  409a5f:	48 8b 45 d8          	mov    -0x28(%rbp),%rax
  409a63:	48 83 c0 48          	add    $0x48,%rax
  409a67:	48 89 c6             	mov    %rax,%rsi
  409a6a:	48 89 d7             	mov    %rdx,%rdi
  409a6d:	e8 de 97 ff ff       	callq  403250 <_ZStlsIcSt11char_traitsIcESaIcEERSt13basic_ostreamIT_T0_ES7_RKNSt7__cxx1112basic_stringIS4_S5_T1_EE@plt>
  409a72:	48 89 c3             	mov    %rax,%rbx
  409a75:	bf 0f 00 00 00       	mov    $0xf,%edi
  409a7a:	e8 f2 04 00 00       	callq  409f71 <_ZSt4setwi>
  409a7f:	89 c6                	mov    %eax,%esi
  409a81:	48 89 df             	mov    %rbx,%rdi
  409a84:	e8 67 98 ff ff       	callq  4032f0 <_ZStlsIcSt11char_traitsIcEERSt13basic_ostreamIT_T0_ES6_St5_Setw@plt>
  409a89:	be e8 9e 40 00       	mov    $0x409ee8,%esi
  409a8e:	48 89 c7             	mov    %rax,%rdi
  409a91:	e8 5a 96 ff ff       	callq  4030f0 <_ZNSolsEPFRSt8ios_baseS0_E@plt>
  409a96:	48 89 c3             	mov    %rax,%rbx
  409a99:	48 8b 55 d8          	mov    -0x28(%rbp),%rdx
  409a9d:	48 8d 45 90          	lea    -0x70(%rbp),%rax
  409aa1:	48 8b 8d 48 ff ff ff 	mov    -0xb8(%rbp),%rcx
  409aa8:	48 89 ce             	mov    %rcx,%rsi
  409aab:	48 89 c7             	mov    %rax,%rdi
  409aae:	e8 43 01 00 00       	callq  409bf6 <_ZN11SymbolTable18toSymbolTypeStringB5cxx11ERK10SymbolType>
  409ab3:	48 8d 45 90          	lea    -0x70(%rbp),%rax
  409ab7:	48 89 c6             	mov    %rax,%rsi
  409aba:	48 89 df             	mov    %rbx,%rdi
  409abd:	e8 8e 97 ff ff       	callq  403250 <_ZStlsIcSt11char_traitsIcESaIcEERSt13basic_ostreamIT_T0_ES7_RKNSt7__cxx1112basic_stringIS4_S5_T1_EE@plt>
  409ac2:	48 89 c3             	mov    %rax,%rbx
  409ac5:	bf 0f 00 00 00       	mov    $0xf,%edi
  409aca:	e8 a2 04 00 00       	callq  409f71 <_ZSt4setwi>
  409acf:	89 c6                	mov    %eax,%esi
  409ad1:	48 89 df             	mov    %rbx,%rdi
  409ad4:	e8 17 98 ff ff       	callq  4032f0 <_ZStlsIcSt11char_traitsIcEERSt13basic_ostreamIT_T0_ES6_St5_Setw@plt>
  409ad9:	be e8 9e 40 00       	mov    $0x409ee8,%esi
  409ade:	48 89 c7             	mov    %rax,%rdi
  409ae1:	e8 0a 96 ff ff       	callq  4030f0 <_ZNSolsEPFRSt8ios_baseS0_E@plt>
  409ae6:	48 89 c2             	mov    %rax,%rdx
  409ae9:	48 8b 45 d8          	mov    -0x28(%rbp),%rax
  409aed:	48 83 c0 28          	add    $0x28,%rax
  409af1:	48 89 c6             	mov    %rax,%rsi
  409af4:	48 89 d7             	mov    %rdx,%rdi
  409af7:	e8 54 97 ff ff       	callq  403250 <_ZStlsIcSt11char_traitsIcESaIcEERSt13basic_ostreamIT_T0_ES7_RKNSt7__cxx1112basic_stringIS4_S5_T1_EE@plt>
  409afc:	48 89 c3             	mov    %rax,%rbx
  409aff:	bf 0f 00 00 00       	mov    $0xf,%edi
  409b04:	e8 68 04 00 00       	callq  409f71 <_ZSt4setwi>
  409b09:	89 c6                	mov    %eax,%esi
  409b0b:	48 89 df             	mov    %rbx,%rdi
  409b0e:	e8 dd 97 ff ff       	callq  4032f0 <_ZStlsIcSt11char_traitsIcEERSt13basic_ostreamIT_T0_ES6_St5_Setw@plt>
  409b13:	be e8 9e 40 00       	mov    $0x409ee8,%esi
  409b18:	48 89 c7             	mov    %rax,%rdi
  409b1b:	e8 d0 95 ff ff       	callq  4030f0 <_ZNSolsEPFRSt8ios_baseS0_E@plt>
  409b20:	48 89 c3             	mov    %rax,%rbx
  409b23:	48 8b 45 d8          	mov    -0x28(%rbp),%rax
  409b27:	48 8d 90 94 00 00 00 	lea    0x94(%rax),%rdx
  409b2e:	48 8d 45 b0          	lea    -0x50(%rbp),%rax
  409b32:	48 8b 8d 48 ff ff ff 	mov    -0xb8(%rbp),%rcx
  409b39:	48 89 ce             	mov    %rcx,%rsi
  409b3c:	48 89 c7             	mov    %rax,%rdi
  409b3f:	e8 6e 01 00 00       	callq  409cb2 <_ZN11SymbolTable22toFunctionActionStringB5cxx11ERK14FunctionAction>
  409b44:	48 8d 45 b0          	lea    -0x50(%rbp),%rax
  409b48:	48 89 c6             	mov    %rax,%rsi
  409b4b:	48 89 df             	mov    %rbx,%rdi
  409b4e:	e8 fd 96 ff ff       	callq  403250 <_ZStlsIcSt11char_traitsIcESaIcEERSt13basic_ostreamIT_T0_ES7_RKNSt7__cxx1112basic_stringIS4_S5_T1_EE@plt>
  409b53:	be 50 31 40 00       	mov    $0x403150,%esi
  409b58:	48 89 c7             	mov    %rax,%rdi
  409b5b:	e8 40 97 ff ff       	callq  4032a0 <_ZNSolsEPFRSoS_E@plt>
  409b60:	48 8d 45 b0          	lea    -0x50(%rbp),%rax
  409b64:	48 89 c7             	mov    %rax,%rdi
  409b67:	e8 24 96 ff ff       	callq  403190 <_ZNSt7__cxx1112basic_stringIcSt11char_traitsIcESaIcEED1Ev@plt>
  409b6c:	48 8d 45 90          	lea    -0x70(%rbp),%rax
  409b70:	48 89 c7             	mov    %rax,%rdi
  409b73:	e8 18 96 ff ff       	callq  403190 <_ZNSt7__cxx1112basic_stringIcSt11char_traitsIcESaIcEED1Ev@plt>
  409b78:	48 8d 85 58 ff ff ff 	lea    -0xa8(%rbp),%rax
  409b7f:	48 89 c7             	mov    %rax,%rdi
  409b82:	e8 43 d4 ff ff       	callq  406fca <_ZN9__gnu_cxx17__normal_iteratorIPNSt7__cxx1112basic_stringIcSt11char_traitsIcESaIcEEESt6vectorIS6_SaIS6_EEEppEv>
  409b87:	e9 e4 fd ff ff       	jmpq   409970 <_ZN11SymbolTable4showEv+0x3ca>
  409b8c:	49 89 c4             	mov    %rax,%r12
  409b8f:	48 8d 85 60 ff ff ff 	lea    -0xa0(%rbp),%rax
  409b96:	48 89 c7             	mov    %rax,%rdi
  409b99:	e8 f2 95 ff ff       	callq  403190 <_ZNSt7__cxx1112basic_stringIcSt11char_traitsIcESaIcEED1Ev@plt>
  409b9e:	eb 03                	jmp    409ba3 <_ZN11SymbolTable4showEv+0x5fd>
  409ba0:	49 89 c4             	mov    %rax,%r12
  409ba3:	84 db                	test   %bl,%bl
  409ba5:	74 0c                	je     409bb3 <_ZN11SymbolTable4showEv+0x60d>
  409ba7:	48 8d 45 8f          	lea    -0x71(%rbp),%rax
  409bab:	48 89 c7             	mov    %rax,%rdi
  409bae:	e8 1d 97 ff ff       	callq  4032d0 <_ZNSaIcED1Ev@plt>
  409bb3:	4c 89 e0             	mov    %r12,%rax
  409bb6:	48 89 c7             	mov    %rax,%rdi
  409bb9:	e8 b2 98 ff ff       	callq  403470 <_Unwind_Resume@plt>
  409bbe:	48 89 c3             	mov    %rax,%rbx
  409bc1:	48 8d 45 b0          	lea    -0x50(%rbp),%rax
  409bc5:	48 89 c7             	mov    %rax,%rdi
  409bc8:	e8 c3 95 ff ff       	callq  403190 <_ZNSt7__cxx1112basic_stringIcSt11char_traitsIcESaIcEED1Ev@plt>
  409bcd:	eb 03                	jmp    409bd2 <_ZN11SymbolTable4showEv+0x62c>
  409bcf:	48 89 c3             	mov    %rax,%rbx
  409bd2:	48 8d 45 90          	lea    -0x70(%rbp),%rax
  409bd6:	48 89 c7             	mov    %rax,%rdi
  409bd9:	e8 b2 95 ff ff       	callq  403190 <_ZNSt7__cxx1112basic_stringIcSt11char_traitsIcESaIcEED1Ev@plt>
  409bde:	48 89 d8             	mov    %rbx,%rax
  409be1:	48 89 c7             	mov    %rax,%rdi
  409be4:	e8 87 98 ff ff       	callq  403470 <_Unwind_Resume@plt>
  409be9:	90                   	nop
  409bea:	48 81 c4 b0 00 00 00 	add    $0xb0,%rsp
  409bf1:	5b                   	pop    %rbx
  409bf2:	41 5c                	pop    %r12
  409bf4:	5d                   	pop    %rbp
  409bf5:	c3                   	retq   

0000000000409bf6 <_ZN11SymbolTable18toSymbolTypeStringB5cxx11ERK10SymbolType>:
  409bf6:	55                   	push   %rbp
  409bf7:	48 89 e5             	mov    %rsp,%rbp
  409bfa:	53                   	push   %rbx
  409bfb:	48 83 ec 48          	sub    $0x48,%rsp
  409bff:	48 89 7d c8          	mov    %rdi,-0x38(%rbp)
  409c03:	48 89 75 c0          	mov    %rsi,-0x40(%rbp)
  409c07:	48 89 55 b8          	mov    %rdx,-0x48(%rbp)
  409c0b:	48 8d 45 d0          	lea    -0x30(%rbp),%rax
  409c0f:	48 89 c7             	mov    %rax,%rdi
  409c12:	e8 59 97 ff ff       	callq  403370 <_ZNSt7__cxx1112basic_stringIcSt11char_traitsIcESaIcEEC1Ev@plt>
  409c17:	48 8b 45 b8          	mov    -0x48(%rbp),%rax
  409c1b:	8b 00                	mov    (%rax),%eax
  409c1d:	85 c0                	test   %eax,%eax
  409c1f:	74 07                	je     409c28 <_ZN11SymbolTable18toSymbolTypeStringB5cxx11ERK10SymbolType+0x32>
  409c21:	83 f8 01             	cmp    $0x1,%eax
  409c24:	74 15                	je     409c3b <_ZN11SymbolTable18toSymbolTypeStringB5cxx11ERK10SymbolType+0x45>
  409c26:	eb 26                	jmp    409c4e <_ZN11SymbolTable18toSymbolTypeStringB5cxx11ERK10SymbolType+0x58>
  409c28:	48 8d 45 d0          	lea    -0x30(%rbp),%rax
  409c2c:	be 55 e5 40 00       	mov    $0x40e555,%esi
  409c31:	48 89 c7             	mov    %rax,%rdi
  409c34:	e8 17 97 ff ff       	callq  403350 <_ZNSt7__cxx1112basic_stringIcSt11char_traitsIcESaIcEEaSEPKc@plt>
  409c39:	eb 25                	jmp    409c60 <_ZN11SymbolTable18toSymbolTypeStringB5cxx11ERK10SymbolType+0x6a>
  409c3b:	48 8d 45 d0          	lea    -0x30(%rbp),%rax
  409c3f:	be 5e e5 40 00       	mov    $0x40e55e,%esi
  409c44:	48 89 c7             	mov    %rax,%rdi
  409c47:	e8 04 97 ff ff       	callq  403350 <_ZNSt7__cxx1112basic_stringIcSt11char_traitsIcESaIcEEaSEPKc@plt>
  409c4c:	eb 12                	jmp    409c60 <_ZN11SymbolTable18toSymbolTypeStringB5cxx11ERK10SymbolType+0x6a>
  409c4e:	48 8d 45 d0          	lea    -0x30(%rbp),%rax
  409c52:	be 67 e5 40 00       	mov    $0x40e567,%esi
  409c57:	48 89 c7             	mov    %rax,%rdi
  409c5a:	e8 f1 96 ff ff       	callq  403350 <_ZNSt7__cxx1112basic_stringIcSt11char_traitsIcESaIcEEaSEPKc@plt>
  409c5f:	90                   	nop
  409c60:	48 8d 45 d0          	lea    -0x30(%rbp),%rax
  409c64:	48 89 c7             	mov    %rax,%rdi
  409c67:	e8 42 d5 ff ff       	callq  4071ae <_ZSt4moveIRNSt7__cxx1112basic_stringIcSt11char_traitsIcESaIcEEEEONSt16remove_referenceIT_E4typeEOS8_>
  409c6c:	48 89 c2             	mov    %rax,%rdx
  409c6f:	48 8b 45 c8          	mov    -0x38(%rbp),%rax
  409c73:	48 89 d6             	mov    %rdx,%rsi
  409c76:	48 89 c7             	mov    %rax,%rdi
  409c79:	e8 02 95 ff ff       	callq  403180 <_ZNSt7__cxx1112basic_stringIcSt11char_traitsIcESaIcEEC1EOS4_@plt>
  409c7e:	48 8d 45 d0          	lea    -0x30(%rbp),%rax
  409c82:	48 89 c7             	mov    %rax,%rdi
  409c85:	e8 06 95 ff ff       	callq  403190 <_ZNSt7__cxx1112basic_stringIcSt11char_traitsIcESaIcEED1Ev@plt>
  409c8a:	eb 1a                	jmp    409ca6 <_ZN11SymbolTable18toSymbolTypeStringB5cxx11ERK10SymbolType+0xb0>
  409c8c:	48 89 c3             	mov    %rax,%rbx
  409c8f:	48 8d 45 d0          	lea    -0x30(%rbp),%rax
  409c93:	48 89 c7             	mov    %rax,%rdi
  409c96:	e8 f5 94 ff ff       	callq  403190 <_ZNSt7__cxx1112basic_stringIcSt11char_traitsIcESaIcEED1Ev@plt>
  409c9b:	48 89 d8             	mov    %rbx,%rax
  409c9e:	48 89 c7             	mov    %rax,%rdi
  409ca1:	e8 ca 97 ff ff       	callq  403470 <_Unwind_Resume@plt>
  409ca6:	48 8b 45 c8          	mov    -0x38(%rbp),%rax
  409caa:	48 83 c4 48          	add    $0x48,%rsp
  409cae:	5b                   	pop    %rbx
  409caf:	5d                   	pop    %rbp
  409cb0:	c3                   	retq   
  409cb1:	90                   	nop

0000000000409cb2 <_ZN11SymbolTable22toFunctionActionStringB5cxx11ERK14FunctionAction>:
  409cb2:	55                   	push   %rbp
  409cb3:	48 89 e5             	mov    %rsp,%rbp
  409cb6:	53                   	push   %rbx
  409cb7:	48 83 ec 48          	sub    $0x48,%rsp
  409cbb:	48 89 7d c8          	mov    %rdi,-0x38(%rbp)
  409cbf:	48 89 75 c0          	mov    %rsi,-0x40(%rbp)
  409cc3:	48 89 55 b8          	mov    %rdx,-0x48(%rbp)
  409cc7:	48 8d 45 d0          	lea    -0x30(%rbp),%rax
  409ccb:	48 89 c7             	mov    %rax,%rdi
  409cce:	e8 9d 96 ff ff       	callq  403370 <_ZNSt7__cxx1112basic_stringIcSt11char_traitsIcESaIcEEC1Ev@plt>
  409cd3:	48 8b 45 b8          	mov    -0x48(%rbp),%rax
  409cd7:	8b 00                	mov    (%rax),%eax
  409cd9:	85 c0                	test   %eax,%eax
  409cdb:	74 07                	je     409ce4 <_ZN11SymbolTable22toFunctionActionStringB5cxx11ERK14FunctionAction+0x32>
  409cdd:	83 f8 01             	cmp    $0x1,%eax
  409ce0:	74 15                	je     409cf7 <_ZN11SymbolTable22toFunctionActionStringB5cxx11ERK14FunctionAction+0x45>
  409ce2:	eb 26                	jmp    409d0a <_ZN11SymbolTable22toFunctionActionStringB5cxx11ERK14FunctionAction+0x58>
  409ce4:	48 8d 45 d0          	lea    -0x30(%rbp),%rax
  409ce8:	be 6f e5 40 00       	mov    $0x40e56f,%esi
  409ced:	48 89 c7             	mov    %rax,%rdi
  409cf0:	e8 5b 96 ff ff       	callq  403350 <_ZNSt7__cxx1112basic_stringIcSt11char_traitsIcESaIcEEaSEPKc@plt>
  409cf5:	eb 25                	jmp    409d1c <_ZN11SymbolTable22toFunctionActionStringB5cxx11ERK14FunctionAction+0x6a>
  409cf7:	48 8d 45 d0          	lea    -0x30(%rbp),%rax
  409cfb:	be 76 e5 40 00       	mov    $0x40e576,%esi
  409d00:	48 89 c7             	mov    %rax,%rdi
  409d03:	e8 48 96 ff ff       	callq  403350 <_ZNSt7__cxx1112basic_stringIcSt11char_traitsIcESaIcEEaSEPKc@plt>
  409d08:	eb 12                	jmp    409d1c <_ZN11SymbolTable22toFunctionActionStringB5cxx11ERK14FunctionAction+0x6a>
  409d0a:	48 8d 45 d0          	lea    -0x30(%rbp),%rax
  409d0e:	be 7b e5 40 00       	mov    $0x40e57b,%esi
  409d13:	48 89 c7             	mov    %rax,%rdi
  409d16:	e8 35 96 ff ff       	callq  403350 <_ZNSt7__cxx1112basic_stringIcSt11char_traitsIcESaIcEEaSEPKc@plt>
  409d1b:	90                   	nop
  409d1c:	48 8d 45 d0          	lea    -0x30(%rbp),%rax
  409d20:	48 89 c7             	mov    %rax,%rdi
  409d23:	e8 86 d4 ff ff       	callq  4071ae <_ZSt4moveIRNSt7__cxx1112basic_stringIcSt11char_traitsIcESaIcEEEEONSt16remove_referenceIT_E4typeEOS8_>
  409d28:	48 89 c2             	mov    %rax,%rdx
  409d2b:	48 8b 45 c8          	mov    -0x38(%rbp),%rax
  409d2f:	48 89 d6             	mov    %rdx,%rsi
  409d32:	48 89 c7             	mov    %rax,%rdi
  409d35:	e8 46 94 ff ff       	callq  403180 <_ZNSt7__cxx1112basic_stringIcSt11char_traitsIcESaIcEEC1EOS4_@plt>
  409d3a:	48 8d 45 d0          	lea    -0x30(%rbp),%rax
  409d3e:	48 89 c7             	mov    %rax,%rdi
  409d41:	e8 4a 94 ff ff       	callq  403190 <_ZNSt7__cxx1112basic_stringIcSt11char_traitsIcESaIcEED1Ev@plt>
  409d46:	eb 1a                	jmp    409d62 <_ZN11SymbolTable22toFunctionActionStringB5cxx11ERK14FunctionAction+0xb0>
  409d48:	48 89 c3             	mov    %rax,%rbx
  409d4b:	48 8d 45 d0          	lea    -0x30(%rbp),%rax
  409d4f:	48 89 c7             	mov    %rax,%rdi
  409d52:	e8 39 94 ff ff       	callq  403190 <_ZNSt7__cxx1112basic_stringIcSt11char_traitsIcESaIcEED1Ev@plt>
  409d57:	48 89 d8             	mov    %rbx,%rax
  409d5a:	48 89 c7             	mov    %rax,%rdi
  409d5d:	e8 0e 97 ff ff       	callq  403470 <_Unwind_Resume@plt>
  409d62:	48 8b 45 c8          	mov    -0x38(%rbp),%rax
  409d66:	48 83 c4 48          	add    $0x48,%rsp
  409d6a:	5b                   	pop    %rbx
  409d6b:	5d                   	pop    %rbp
  409d6c:	c3                   	retq   
  409d6d:	90                   	nop

0000000000409d6e <_ZN11SymbolTable3leaEPc>:
  409d6e:	55                   	push   %rbp
  409d6f:	48 89 e5             	mov    %rsp,%rbp
  409d72:	48 83 ec 10          	sub    $0x10,%rsp
  409d76:	48 89 7d f8          	mov    %rdi,-0x8(%rbp)
  409d7a:	48 89 75 f0          	mov    %rsi,-0x10(%rbp)
  409d7e:	48 8b 45 f8          	mov    -0x8(%rbp),%rax
  409d82:	48 8b 55 f0          	mov    -0x10(%rbp),%rdx
  409d86:	48 89 d6             	mov    %rdx,%rsi
  409d89:	48 89 c7             	mov    %rax,%rdi
  409d8c:	e8 bf 95 ff ff       	callq  403350 <_ZNSt7__cxx1112basic_stringIcSt11char_traitsIcESaIcEEaSEPKc@plt>
  409d91:	90                   	nop
  409d92:	c9                   	leaveq 
  409d93:	c3                   	retq   

0000000000409d94 <_Z41__static_initialization_and_destruction_0ii>:
  409d94:	55                   	push   %rbp
  409d95:	48 89 e5             	mov    %rsp,%rbp
  409d98:	48 83 ec 10          	sub    $0x10,%rsp
  409d9c:	89 7d fc             	mov    %edi,-0x4(%rbp)
  409d9f:	89 75 f8             	mov    %esi,-0x8(%rbp)
  409da2:	83 7d fc 01          	cmpl   $0x1,-0x4(%rbp)
  409da6:	75 27                	jne    409dcf <_Z41__static_initialization_and_destruction_0ii+0x3b>
  409da8:	81 7d f8 ff ff 00 00 	cmpl   $0xffff,-0x8(%rbp)
  409daf:	75 1e                	jne    409dcf <_Z41__static_initialization_and_destruction_0ii+0x3b>
  409db1:	bf 29 49 41 00       	mov    $0x414929,%edi
  409db6:	e8 15 96 ff ff       	callq  4033d0 <_ZNSt8ios_base4InitC1Ev@plt>
  409dbb:	ba 90 42 41 00       	mov    $0x414290,%edx
  409dc0:	be 29 49 41 00       	mov    $0x414929,%esi
  409dc5:	bf 00 35 40 00       	mov    $0x403500,%edi
  409dca:	e8 71 94 ff ff       	callq  403240 <__cxa_atexit@plt>
  409dcf:	90                   	nop
  409dd0:	c9                   	leaveq 
  409dd1:	c3                   	retq   

0000000000409dd2 <_GLOBAL__sub_I__ZN11SymbolTableC2Ev>:
  409dd2:	55                   	push   %rbp
  409dd3:	48 89 e5             	mov    %rsp,%rbp
  409dd6:	be ff ff 00 00       	mov    $0xffff,%esi
  409ddb:	bf 01 00 00 00       	mov    $0x1,%edi
  409de0:	e8 af ff ff ff       	callq  409d94 <_Z41__static_initialization_and_destruction_0ii>
  409de5:	5d                   	pop    %rbp
  409de6:	c3                   	retq   

0000000000409de7 <_ZdlPvS_>:
  409de7:	55                   	push   %rbp
  409de8:	48 89 e5             	mov    %rsp,%rbp
  409deb:	48 89 7d f8          	mov    %rdi,-0x8(%rbp)
  409def:	48 89 75 f0          	mov    %rsi,-0x10(%rbp)
  409df3:	90                   	nop
  409df4:	5d                   	pop    %rbp
  409df5:	c3                   	retq   

0000000000409df6 <_ZStanSt13_Ios_FmtflagsS_>:
  409df6:	55                   	push   %rbp
  409df7:	48 89 e5             	mov    %rsp,%rbp
  409dfa:	89 7d fc             	mov    %edi,-0x4(%rbp)
  409dfd:	89 75 f8             	mov    %esi,-0x8(%rbp)
  409e00:	8b 45 fc             	mov    -0x4(%rbp),%eax
  409e03:	23 45 f8             	and    -0x8(%rbp),%eax
  409e06:	5d                   	pop    %rbp
  409e07:	c3                   	retq   

0000000000409e08 <_ZStorSt13_Ios_FmtflagsS_>:
  409e08:	55                   	push   %rbp
  409e09:	48 89 e5             	mov    %rsp,%rbp
  409e0c:	89 7d fc             	mov    %edi,-0x4(%rbp)
  409e0f:	89 75 f8             	mov    %esi,-0x8(%rbp)
  409e12:	8b 45 fc             	mov    -0x4(%rbp),%eax
  409e15:	0b 45 f8             	or     -0x8(%rbp),%eax
  409e18:	5d                   	pop    %rbp
  409e19:	c3                   	retq   

0000000000409e1a <_ZStcoSt13_Ios_Fmtflags>:
  409e1a:	55                   	push   %rbp
  409e1b:	48 89 e5             	mov    %rsp,%rbp
  409e1e:	89 7d fc             	mov    %edi,-0x4(%rbp)
  409e21:	8b 45 fc             	mov    -0x4(%rbp),%eax
  409e24:	f7 d0                	not    %eax
  409e26:	5d                   	pop    %rbp
  409e27:	c3                   	retq   

0000000000409e28 <_ZStoRRSt13_Ios_FmtflagsS_>:
  409e28:	55                   	push   %rbp
  409e29:	48 89 e5             	mov    %rsp,%rbp
  409e2c:	48 83 ec 10          	sub    $0x10,%rsp
  409e30:	48 89 7d f8          	mov    %rdi,-0x8(%rbp)
  409e34:	89 75 f4             	mov    %esi,-0xc(%rbp)
  409e37:	48 8b 45 f8          	mov    -0x8(%rbp),%rax
  409e3b:	8b 00                	mov    (%rax),%eax
  409e3d:	8b 55 f4             	mov    -0xc(%rbp),%edx
  409e40:	89 d6                	mov    %edx,%esi
  409e42:	89 c7                	mov    %eax,%edi
  409e44:	e8 bf ff ff ff       	callq  409e08 <_ZStorSt13_Ios_FmtflagsS_>
  409e49:	89 c2                	mov    %eax,%edx
  409e4b:	48 8b 45 f8          	mov    -0x8(%rbp),%rax
  409e4f:	89 10                	mov    %edx,(%rax)
  409e51:	48 8b 45 f8          	mov    -0x8(%rbp),%rax
  409e55:	c9                   	leaveq 
  409e56:	c3                   	retq   

0000000000409e57 <_ZStaNRSt13_Ios_FmtflagsS_>:
  409e57:	55                   	push   %rbp
  409e58:	48 89 e5             	mov    %rsp,%rbp
  409e5b:	48 83 ec 10          	sub    $0x10,%rsp
  409e5f:	48 89 7d f8          	mov    %rdi,-0x8(%rbp)
  409e63:	89 75 f4             	mov    %esi,-0xc(%rbp)
  409e66:	48 8b 45 f8          	mov    -0x8(%rbp),%rax
  409e6a:	8b 00                	mov    (%rax),%eax
  409e6c:	8b 55 f4             	mov    -0xc(%rbp),%edx
  409e6f:	89 d6                	mov    %edx,%esi
  409e71:	89 c7                	mov    %eax,%edi
  409e73:	e8 7e ff ff ff       	callq  409df6 <_ZStanSt13_Ios_FmtflagsS_>
  409e78:	89 c2                	mov    %eax,%edx
  409e7a:	48 8b 45 f8          	mov    -0x8(%rbp),%rax
  409e7e:	89 10                	mov    %edx,(%rax)
  409e80:	48 8b 45 f8          	mov    -0x8(%rbp),%rax
  409e84:	c9                   	leaveq 
  409e85:	c3                   	retq   

0000000000409e86 <_ZNSt8ios_base4setfESt13_Ios_FmtflagsS0_>:
  409e86:	55                   	push   %rbp
  409e87:	48 89 e5             	mov    %rsp,%rbp
  409e8a:	48 83 ec 20          	sub    $0x20,%rsp
  409e8e:	48 89 7d e8          	mov    %rdi,-0x18(%rbp)
  409e92:	89 75 e4             	mov    %esi,-0x1c(%rbp)
  409e95:	89 55 e0             	mov    %edx,-0x20(%rbp)
  409e98:	48 8b 45 e8          	mov    -0x18(%rbp),%rax
  409e9c:	8b 40 18             	mov    0x18(%rax),%eax
  409e9f:	89 45 fc             	mov    %eax,-0x4(%rbp)
  409ea2:	8b 45 e0             	mov    -0x20(%rbp),%eax
  409ea5:	89 c7                	mov    %eax,%edi
  409ea7:	e8 6e ff ff ff       	callq  409e1a <_ZStcoSt13_Ios_Fmtflags>
  409eac:	89 c2                	mov    %eax,%edx
  409eae:	48 8b 45 e8          	mov    -0x18(%rbp),%rax
  409eb2:	48 83 c0 18          	add    $0x18,%rax
  409eb6:	89 d6                	mov    %edx,%esi
  409eb8:	48 89 c7             	mov    %rax,%rdi
  409ebb:	e8 97 ff ff ff       	callq  409e57 <_ZStaNRSt13_Ios_FmtflagsS_>
  409ec0:	8b 55 e0             	mov    -0x20(%rbp),%edx
  409ec3:	8b 45 e4             	mov    -0x1c(%rbp),%eax
  409ec6:	89 d6                	mov    %edx,%esi
  409ec8:	89 c7                	mov    %eax,%edi
  409eca:	e8 27 ff ff ff       	callq  409df6 <_ZStanSt13_Ios_FmtflagsS_>
  409ecf:	89 c2                	mov    %eax,%edx
  409ed1:	48 8b 45 e8          	mov    -0x18(%rbp),%rax
  409ed5:	48 83 c0 18          	add    $0x18,%rax
  409ed9:	89 d6                	mov    %edx,%esi
  409edb:	48 89 c7             	mov    %rax,%rdi
  409ede:	e8 45 ff ff ff       	callq  409e28 <_ZStoRRSt13_Ios_FmtflagsS_>
  409ee3:	8b 45 fc             	mov    -0x4(%rbp),%eax
  409ee6:	c9                   	leaveq 
  409ee7:	c3                   	retq   

0000000000409ee8 <_ZSt4leftRSt8ios_base>:
  409ee8:	55                   	push   %rbp
  409ee9:	48 89 e5             	mov    %rsp,%rbp
  409eec:	48 83 ec 10          	sub    $0x10,%rsp
  409ef0:	48 89 7d f8          	mov    %rdi,-0x8(%rbp)
  409ef4:	48 8b 45 f8          	mov    -0x8(%rbp),%rax
  409ef8:	ba b0 00 00 00       	mov    $0xb0,%edx
  409efd:	be 20 00 00 00       	mov    $0x20,%esi
  409f02:	48 89 c7             	mov    %rax,%rdi
  409f05:	e8 7c ff ff ff       	callq  409e86 <_ZNSt8ios_base4setfESt13_Ios_FmtflagsS0_>
  409f0a:	48 8b 45 f8          	mov    -0x8(%rbp),%rax
  409f0e:	c9                   	leaveq 
  409f0f:	c3                   	retq   

0000000000409f10 <_ZNSt15_Rb_tree_headerC1Ev>:
  409f10:	55                   	push   %rbp
  409f11:	48 89 e5             	mov    %rsp,%rbp
  409f14:	48 83 ec 10          	sub    $0x10,%rsp
  409f18:	48 89 7d f8          	mov    %rdi,-0x8(%rbp)
  409f1c:	48 8b 45 f8          	mov    -0x8(%rbp),%rax
  409f20:	c7 00 00 00 00 00    	movl   $0x0,(%rax)
  409f26:	48 8b 45 f8          	mov    -0x8(%rbp),%rax
  409f2a:	48 89 c7             	mov    %rax,%rdi
  409f2d:	e8 04 00 00 00       	callq  409f36 <_ZNSt15_Rb_tree_header8_M_resetEv>
  409f32:	90                   	nop
  409f33:	c9                   	leaveq 
  409f34:	c3                   	retq   
  409f35:	90                   	nop

0000000000409f36 <_ZNSt15_Rb_tree_header8_M_resetEv>:
  409f36:	55                   	push   %rbp
  409f37:	48 89 e5             	mov    %rsp,%rbp
  409f3a:	48 89 7d f8          	mov    %rdi,-0x8(%rbp)
  409f3e:	48 8b 45 f8          	mov    -0x8(%rbp),%rax
  409f42:	48 c7 40 08 00 00 00 	movq   $0x0,0x8(%rax)
  409f49:	00 
  409f4a:	48 8b 55 f8          	mov    -0x8(%rbp),%rdx
  409f4e:	48 8b 45 f8          	mov    -0x8(%rbp),%rax
  409f52:	48 89 50 10          	mov    %rdx,0x10(%rax)
  409f56:	48 8b 55 f8          	mov    -0x8(%rbp),%rdx
  409f5a:	48 8b 45 f8          	mov    -0x8(%rbp),%rax
  409f5e:	48 89 50 18          	mov    %rdx,0x18(%rax)
  409f62:	48 8b 45 f8          	mov    -0x8(%rbp),%rax
  409f66:	48 c7 40 20 00 00 00 	movq   $0x0,0x20(%rax)
  409f6d:	00 
  409f6e:	90                   	nop
  409f6f:	5d                   	pop    %rbp
  409f70:	c3                   	retq   

0000000000409f71 <_ZSt4setwi>:
  409f71:	55                   	push   %rbp
  409f72:	48 89 e5             	mov    %rsp,%rbp
  409f75:	89 7d fc             	mov    %edi,-0x4(%rbp)
  409f78:	8b 45 fc             	mov    -0x4(%rbp),%eax
  409f7b:	5d                   	pop    %rbp
  409f7c:	c3                   	retq   
  409f7d:	90                   	nop

0000000000409f7e <_ZNSt8_Rb_treeINSt7__cxx1112basic_stringIcSt11char_traitsIcESaIcEEESt4pairIKS5_6SymbolESt10_Select1stIS9_ESt4lessIS5_ESaIS9_EEC1Ev>:
  409f7e:	55                   	push   %rbp
  409f7f:	48 89 e5             	mov    %rsp,%rbp
  409f82:	48 83 ec 10          	sub    $0x10,%rsp
  409f86:	48 89 7d f8          	mov    %rdi,-0x8(%rbp)
  409f8a:	48 8b 45 f8          	mov    -0x8(%rbp),%rax
  409f8e:	48 89 c7             	mov    %rax,%rdi
  409f91:	e8 74 02 00 00       	callq  40a20a <_ZNSt8_Rb_treeINSt7__cxx1112basic_stringIcSt11char_traitsIcESaIcEEESt4pairIKS5_6SymbolESt10_Select1stIS9_ESt4lessIS5_ESaIS9_EE13_Rb_tree_implISD_Lb1EEC1Ev>
  409f96:	90                   	nop
  409f97:	c9                   	leaveq 
  409f98:	c3                   	retq   
  409f99:	90                   	nop

0000000000409f9a <_ZNSt3mapINSt7__cxx1112basic_stringIcSt11char_traitsIcESaIcEEE6SymbolSt4lessIS5_ESaISt4pairIKS5_S6_EEEC1Ev>:
  409f9a:	55                   	push   %rbp
  409f9b:	48 89 e5             	mov    %rsp,%rbp
  409f9e:	48 83 ec 10          	sub    $0x10,%rsp
  409fa2:	48 89 7d f8          	mov    %rdi,-0x8(%rbp)
  409fa6:	48 8b 45 f8          	mov    -0x8(%rbp),%rax
  409faa:	48 89 c7             	mov    %rax,%rdi
  409fad:	e8 cc ff ff ff       	callq  409f7e <_ZNSt8_Rb_treeINSt7__cxx1112basic_stringIcSt11char_traitsIcESaIcEEESt4pairIKS5_6SymbolESt10_Select1stIS9_ESt4lessIS5_ESaIS9_EEC1Ev>
  409fb2:	90                   	nop
  409fb3:	c9                   	leaveq 
  409fb4:	c3                   	retq   
  409fb5:	90                   	nop

0000000000409fb6 <_ZN6SymbolC1Ev>:
  409fb6:	55                   	push   %rbp
  409fb7:	48 89 e5             	mov    %rsp,%rbp
  409fba:	48 83 ec 10          	sub    $0x10,%rsp
  409fbe:	48 89 7d f8          	mov    %rdi,-0x8(%rbp)
  409fc2:	48 8b 45 f8          	mov    -0x8(%rbp),%rax
  409fc6:	48 83 c0 08          	add    $0x8,%rax
  409fca:	48 89 c7             	mov    %rax,%rdi
  409fcd:	e8 9e 93 ff ff       	callq  403370 <_ZNSt7__cxx1112basic_stringIcSt11char_traitsIcESaIcEEC1Ev@plt>
  409fd2:	48 8b 45 f8          	mov    -0x8(%rbp),%rax
  409fd6:	48 83 c0 28          	add    $0x28,%rax
  409fda:	48 89 c7             	mov    %rax,%rdi
  409fdd:	e8 8e 93 ff ff       	callq  403370 <_ZNSt7__cxx1112basic_stringIcSt11char_traitsIcESaIcEEC1Ev@plt>
  409fe2:	48 8b 45 f8          	mov    -0x8(%rbp),%rax
  409fe6:	48 83 c0 48          	add    $0x48,%rax
  409fea:	48 89 c7             	mov    %rax,%rdi
  409fed:	e8 7e 93 ff ff       	callq  403370 <_ZNSt7__cxx1112basic_stringIcSt11char_traitsIcESaIcEEC1Ev@plt>
  409ff2:	48 8b 45 f8          	mov    -0x8(%rbp),%rax
  409ff6:	48 83 c0 68          	add    $0x68,%rax
  409ffa:	48 89 c7             	mov    %rax,%rdi
  409ffd:	e8 6e 93 ff ff       	callq  403370 <_ZNSt7__cxx1112basic_stringIcSt11char_traitsIcESaIcEEC1Ev@plt>
  40a002:	48 8b 45 f8          	mov    -0x8(%rbp),%rax
  40a006:	c6 80 90 00 00 00 00 	movb   $0x0,0x90(%rax)
  40a00d:	90                   	nop
  40a00e:	c9                   	leaveq 
  40a00f:	c3                   	retq   

000000000040a010 <_ZN6SymbolaSERKS_>:
  40a010:	55                   	push   %rbp
  40a011:	48 89 e5             	mov    %rsp,%rbp
  40a014:	48 83 ec 10          	sub    $0x10,%rsp
  40a018:	48 89 7d f8          	mov    %rdi,-0x8(%rbp)
  40a01c:	48 89 75 f0          	mov    %rsi,-0x10(%rbp)
  40a020:	48 8b 45 f0          	mov    -0x10(%rbp),%rax
  40a024:	8b 10                	mov    (%rax),%edx
  40a026:	48 8b 45 f8          	mov    -0x8(%rbp),%rax
  40a02a:	89 10                	mov    %edx,(%rax)
  40a02c:	48 8b 45 f0          	mov    -0x10(%rbp),%rax
  40a030:	48 8d 50 08          	lea    0x8(%rax),%rdx
  40a034:	48 8b 45 f8          	mov    -0x8(%rbp),%rax
  40a038:	48 83 c0 08          	add    $0x8,%rax
  40a03c:	48 89 d6             	mov    %rdx,%rsi
  40a03f:	48 89 c7             	mov    %rax,%rdi
  40a042:	e8 09 90 ff ff       	callq  403050 <_ZNSt7__cxx1112basic_stringIcSt11char_traitsIcESaIcEEaSERKS4_@plt>
  40a047:	48 8b 45 f0          	mov    -0x10(%rbp),%rax
  40a04b:	48 8d 50 28          	lea    0x28(%rax),%rdx
  40a04f:	48 8b 45 f8          	mov    -0x8(%rbp),%rax
  40a053:	48 83 c0 28          	add    $0x28,%rax
  40a057:	48 89 d6             	mov    %rdx,%rsi
  40a05a:	48 89 c7             	mov    %rax,%rdi
  40a05d:	e8 ee 8f ff ff       	callq  403050 <_ZNSt7__cxx1112basic_stringIcSt11char_traitsIcESaIcEEaSERKS4_@plt>
  40a062:	48 8b 45 f0          	mov    -0x10(%rbp),%rax
  40a066:	48 8d 50 48          	lea    0x48(%rax),%rdx
  40a06a:	48 8b 45 f8          	mov    -0x8(%rbp),%rax
  40a06e:	48 83 c0 48          	add    $0x48,%rax
  40a072:	48 89 d6             	mov    %rdx,%rsi
  40a075:	48 89 c7             	mov    %rax,%rdi
  40a078:	e8 d3 8f ff ff       	callq  403050 <_ZNSt7__cxx1112basic_stringIcSt11char_traitsIcESaIcEEaSERKS4_@plt>
  40a07d:	48 8b 45 f0          	mov    -0x10(%rbp),%rax
  40a081:	48 8d 50 68          	lea    0x68(%rax),%rdx
  40a085:	48 8b 45 f8          	mov    -0x8(%rbp),%rax
  40a089:	48 83 c0 68          	add    $0x68,%rax
  40a08d:	48 89 d6             	mov    %rdx,%rsi
  40a090:	48 89 c7             	mov    %rax,%rdi
  40a093:	e8 b8 8f ff ff       	callq  403050 <_ZNSt7__cxx1112basic_stringIcSt11char_traitsIcESaIcEEaSERKS4_@plt>
  40a098:	48 8b 45 f0          	mov    -0x10(%rbp),%rax
  40a09c:	48 8b 90 88 00 00 00 	mov    0x88(%rax),%rdx
  40a0a3:	48 8b 45 f8          	mov    -0x8(%rbp),%rax
  40a0a7:	48 89 90 88 00 00 00 	mov    %rdx,0x88(%rax)
  40a0ae:	48 8b 45 f0          	mov    -0x10(%rbp),%rax
  40a0b2:	0f b6 90 90 00 00 00 	movzbl 0x90(%rax),%edx
  40a0b9:	48 8b 45 f8          	mov    -0x8(%rbp),%rax
  40a0bd:	88 90 90 00 00 00    	mov    %dl,0x90(%rax)
  40a0c3:	48 8b 45 f0          	mov    -0x10(%rbp),%rax
  40a0c7:	8b 90 94 00 00 00    	mov    0x94(%rax),%edx
  40a0cd:	48 8b 45 f8          	mov    -0x8(%rbp),%rax
  40a0d1:	89 90 94 00 00 00    	mov    %edx,0x94(%rax)
  40a0d7:	48 8b 45 f8          	mov    -0x8(%rbp),%rax
  40a0db:	c9                   	leaveq 
  40a0dc:	c3                   	retq   

000000000040a0dd <_ZStplIcSt11char_traitsIcESaIcEENSt7__cxx1112basic_stringIT_T0_T1_EERKS8_PKS5_>:
  40a0dd:	55                   	push   %rbp
  40a0de:	48 89 e5             	mov    %rsp,%rbp
  40a0e1:	53                   	push   %rbx
  40a0e2:	48 83 ec 28          	sub    $0x28,%rsp
  40a0e6:	48 89 7d e8          	mov    %rdi,-0x18(%rbp)
  40a0ea:	48 89 75 e0          	mov    %rsi,-0x20(%rbp)
  40a0ee:	48 89 55 d8          	mov    %rdx,-0x28(%rbp)
  40a0f2:	48 8b 55 e0          	mov    -0x20(%rbp),%rdx
  40a0f6:	48 8b 45 e8          	mov    -0x18(%rbp),%rax
  40a0fa:	48 89 d6             	mov    %rdx,%rsi
  40a0fd:	48 89 c7             	mov    %rax,%rdi
  40a100:	e8 2b 90 ff ff       	callq  403130 <_ZNSt7__cxx1112basic_stringIcSt11char_traitsIcESaIcEEC1ERKS4_@plt>
  40a105:	48 8b 55 d8          	mov    -0x28(%rbp),%rdx
  40a109:	48 8b 45 e8          	mov    -0x18(%rbp),%rax
  40a10d:	48 89 d6             	mov    %rdx,%rsi
  40a110:	48 89 c7             	mov    %rax,%rdi
  40a113:	e8 a8 93 ff ff       	callq  4034c0 <_ZNSt7__cxx1112basic_stringIcSt11char_traitsIcESaIcEE6appendEPKc@plt>
  40a118:	eb 1a                	jmp    40a134 <_ZStplIcSt11char_traitsIcESaIcEENSt7__cxx1112basic_stringIT_T0_T1_EERKS8_PKS5_+0x57>
  40a11a:	48 89 c3             	mov    %rax,%rbx
  40a11d:	48 8b 45 e8          	mov    -0x18(%rbp),%rax
  40a121:	48 89 c7             	mov    %rax,%rdi
  40a124:	e8 67 90 ff ff       	callq  403190 <_ZNSt7__cxx1112basic_stringIcSt11char_traitsIcESaIcEED1Ev@plt>
  40a129:	48 89 d8             	mov    %rbx,%rax
  40a12c:	48 89 c7             	mov    %rax,%rdi
  40a12f:	e8 3c 93 ff ff       	callq  403470 <_Unwind_Resume@plt>
  40a134:	48 8b 45 e8          	mov    -0x18(%rbp),%rax
  40a138:	48 83 c4 28          	add    $0x28,%rsp
  40a13c:	5b                   	pop    %rbx
  40a13d:	5d                   	pop    %rbp
  40a13e:	c3                   	retq   

000000000040a13f <_ZStplIcSt11char_traitsIcESaIcEENSt7__cxx1112basic_stringIT_T0_T1_EEOS8_S9_>:
  40a13f:	55                   	push   %rbp
  40a140:	48 89 e5             	mov    %rsp,%rbp
  40a143:	53                   	push   %rbx
  40a144:	48 83 ec 38          	sub    $0x38,%rsp
  40a148:	48 89 7d d8          	mov    %rdi,-0x28(%rbp)
  40a14c:	48 89 75 d0          	mov    %rsi,-0x30(%rbp)
  40a150:	48 89 55 c8          	mov    %rdx,-0x38(%rbp)
  40a154:	48 8b 45 d0          	mov    -0x30(%rbp),%rax
  40a158:	48 89 c7             	mov    %rax,%rdi
  40a15b:	e8 80 90 ff ff       	callq  4031e0 <_ZNKSt7__cxx1112basic_stringIcSt11char_traitsIcESaIcEE4sizeEv@plt>
  40a160:	48 89 c3             	mov    %rax,%rbx
  40a163:	48 8b 45 c8          	mov    -0x38(%rbp),%rax
  40a167:	48 89 c7             	mov    %rax,%rdi
  40a16a:	e8 71 90 ff ff       	callq  4031e0 <_ZNKSt7__cxx1112basic_stringIcSt11char_traitsIcESaIcEE4sizeEv@plt>
  40a16f:	48 01 d8             	add    %rbx,%rax
  40a172:	48 89 45 e8          	mov    %rax,-0x18(%rbp)
  40a176:	48 8b 45 d0          	mov    -0x30(%rbp),%rax
  40a17a:	48 89 c7             	mov    %rax,%rdi
  40a17d:	e8 ae 8e ff ff       	callq  403030 <_ZNKSt7__cxx1112basic_stringIcSt11char_traitsIcESaIcEE8capacityEv@plt>
  40a182:	48 39 45 e8          	cmp    %rax,-0x18(%rbp)
  40a186:	76 19                	jbe    40a1a1 <_ZStplIcSt11char_traitsIcESaIcEENSt7__cxx1112basic_stringIT_T0_T1_EEOS8_S9_+0x62>
  40a188:	48 8b 45 c8          	mov    -0x38(%rbp),%rax
  40a18c:	48 89 c7             	mov    %rax,%rdi
  40a18f:	e8 9c 8e ff ff       	callq  403030 <_ZNKSt7__cxx1112basic_stringIcSt11char_traitsIcESaIcEE8capacityEv@plt>
  40a194:	48 39 45 e8          	cmp    %rax,-0x18(%rbp)
  40a198:	77 07                	ja     40a1a1 <_ZStplIcSt11char_traitsIcESaIcEENSt7__cxx1112basic_stringIT_T0_T1_EEOS8_S9_+0x62>
  40a19a:	b8 01 00 00 00       	mov    $0x1,%eax
  40a19f:	eb 05                	jmp    40a1a6 <_ZStplIcSt11char_traitsIcESaIcEENSt7__cxx1112basic_stringIT_T0_T1_EEOS8_S9_+0x67>
  40a1a1:	b8 00 00 00 00       	mov    $0x0,%eax
  40a1a6:	88 45 e7             	mov    %al,-0x19(%rbp)
  40a1a9:	80 7d e7 00          	cmpb   $0x0,-0x19(%rbp)
  40a1ad:	74 22                	je     40a1d1 <_ZStplIcSt11char_traitsIcESaIcEENSt7__cxx1112basic_stringIT_T0_T1_EEOS8_S9_+0x92>
  40a1af:	48 8b 55 d0          	mov    -0x30(%rbp),%rdx
  40a1b3:	48 8b 45 c8          	mov    -0x38(%rbp),%rax
  40a1b7:	be 00 00 00 00       	mov    $0x0,%esi
  40a1bc:	48 89 c7             	mov    %rax,%rdi
  40a1bf:	e8 3c 92 ff ff       	callq  403400 <_ZNSt7__cxx1112basic_stringIcSt11char_traitsIcESaIcEE6insertEmRKS4_@plt>
  40a1c4:	48 89 c7             	mov    %rax,%rdi
  40a1c7:	e8 e2 cf ff ff       	callq  4071ae <_ZSt4moveIRNSt7__cxx1112basic_stringIcSt11char_traitsIcESaIcEEEEONSt16remove_referenceIT_E4typeEOS8_>
  40a1cc:	48 89 c2             	mov    %rax,%rdx
  40a1cf:	eb 1e                	jmp    40a1ef <_ZStplIcSt11char_traitsIcESaIcEENSt7__cxx1112basic_stringIT_T0_T1_EEOS8_S9_+0xb0>
  40a1d1:	48 8b 55 c8          	mov    -0x38(%rbp),%rdx
  40a1d5:	48 8b 45 d0          	mov    -0x30(%rbp),%rax
  40a1d9:	48 89 d6             	mov    %rdx,%rsi
  40a1dc:	48 89 c7             	mov    %rax,%rdi
  40a1df:	e8 fc 92 ff ff       	callq  4034e0 <_ZNSt7__cxx1112basic_stringIcSt11char_traitsIcESaIcEE6appendERKS4_@plt>
  40a1e4:	48 89 c7             	mov    %rax,%rdi
  40a1e7:	e8 c2 cf ff ff       	callq  4071ae <_ZSt4moveIRNSt7__cxx1112basic_stringIcSt11char_traitsIcESaIcEEEEONSt16remove_referenceIT_E4typeEOS8_>
  40a1ec:	48 89 c2             	mov    %rax,%rdx
  40a1ef:	48 8b 45 d8          	mov    -0x28(%rbp),%rax
  40a1f3:	48 89 d6             	mov    %rdx,%rsi
  40a1f6:	48 89 c7             	mov    %rax,%rdi
  40a1f9:	e8 82 8f ff ff       	callq  403180 <_ZNSt7__cxx1112basic_stringIcSt11char_traitsIcESaIcEEC1EOS4_@plt>
  40a1fe:	48 8b 45 d8          	mov    -0x28(%rbp),%rax
  40a202:	48 83 c4 38          	add    $0x38,%rsp
  40a206:	5b                   	pop    %rbx
  40a207:	5d                   	pop    %rbp
  40a208:	c3                   	retq   
  40a209:	90                   	nop

000000000040a20a <_ZNSt8_Rb_treeINSt7__cxx1112basic_stringIcSt11char_traitsIcESaIcEEESt4pairIKS5_6SymbolESt10_Select1stIS9_ESt4lessIS5_ESaIS9_EE13_Rb_tree_implISD_Lb1EEC1Ev>:
  40a20a:	55                   	push   %rbp
  40a20b:	48 89 e5             	mov    %rsp,%rbp
  40a20e:	48 83 ec 10          	sub    $0x10,%rsp
  40a212:	48 89 7d f8          	mov    %rdi,-0x8(%rbp)
  40a216:	48 8b 45 f8          	mov    -0x8(%rbp),%rax
  40a21a:	48 89 c7             	mov    %rax,%rdi
  40a21d:	e8 e0 02 00 00       	callq  40a502 <_ZNSaISt13_Rb_tree_nodeISt4pairIKNSt7__cxx1112basic_stringIcSt11char_traitsIcESaIcEEE6SymbolEEEC1Ev>
  40a222:	48 8b 45 f8          	mov    -0x8(%rbp),%rax
  40a226:	48 89 c7             	mov    %rax,%rdi
  40a229:	e8 f0 02 00 00       	callq  40a51e <_ZNSt20_Rb_tree_key_compareISt4lessINSt7__cxx1112basic_stringIcSt11char_traitsIcESaIcEEEEEC1Ev>
  40a22e:	48 8b 45 f8          	mov    -0x8(%rbp),%rax
  40a232:	48 83 c0 08          	add    $0x8,%rax
  40a236:	48 89 c7             	mov    %rax,%rdi
  40a239:	e8 d2 fc ff ff       	callq  409f10 <_ZNSt15_Rb_tree_headerC1Ev>
  40a23e:	90                   	nop
  40a23f:	c9                   	leaveq 
  40a240:	c3                   	retq   

000000000040a241 <_ZStplIcSt11char_traitsIcESaIcEENSt7__cxx1112basic_stringIT_T0_T1_EEOS8_RKS8_>:
  40a241:	55                   	push   %rbp
  40a242:	48 89 e5             	mov    %rsp,%rbp
  40a245:	48 83 ec 20          	sub    $0x20,%rsp
  40a249:	48 89 7d f8          	mov    %rdi,-0x8(%rbp)
  40a24d:	48 89 75 f0          	mov    %rsi,-0x10(%rbp)
  40a251:	48 89 55 e8          	mov    %rdx,-0x18(%rbp)
  40a255:	48 8b 55 e8          	mov    -0x18(%rbp),%rdx
  40a259:	48 8b 45 f0          	mov    -0x10(%rbp),%rax
  40a25d:	48 89 d6             	mov    %rdx,%rsi
  40a260:	48 89 c7             	mov    %rax,%rdi
  40a263:	e8 78 92 ff ff       	callq  4034e0 <_ZNSt7__cxx1112basic_stringIcSt11char_traitsIcESaIcEE6appendERKS4_@plt>
  40a268:	48 89 c7             	mov    %rax,%rdi
  40a26b:	e8 3e cf ff ff       	callq  4071ae <_ZSt4moveIRNSt7__cxx1112basic_stringIcSt11char_traitsIcESaIcEEEEONSt16remove_referenceIT_E4typeEOS8_>
  40a270:	48 89 c2             	mov    %rax,%rdx
  40a273:	48 8b 45 f8          	mov    -0x8(%rbp),%rax
  40a277:	48 89 d6             	mov    %rdx,%rsi
  40a27a:	48 89 c7             	mov    %rax,%rdi
  40a27d:	e8 fe 8e ff ff       	callq  403180 <_ZNSt7__cxx1112basic_stringIcSt11char_traitsIcESaIcEEC1EOS4_@plt>
  40a282:	48 8b 45 f8          	mov    -0x8(%rbp),%rax
  40a286:	c9                   	leaveq 
  40a287:	c3                   	retq   

000000000040a288 <_ZStplIcSt11char_traitsIcESaIcEENSt7__cxx1112basic_stringIT_T0_T1_EEOS8_PKS5_>:
  40a288:	55                   	push   %rbp
  40a289:	48 89 e5             	mov    %rsp,%rbp
  40a28c:	48 83 ec 20          	sub    $0x20,%rsp
  40a290:	48 89 7d f8          	mov    %rdi,-0x8(%rbp)
  40a294:	48 89 75 f0          	mov    %rsi,-0x10(%rbp)
  40a298:	48 89 55 e8          	mov    %rdx,-0x18(%rbp)
  40a29c:	48 8b 55 e8          	mov    -0x18(%rbp),%rdx
  40a2a0:	48 8b 45 f0          	mov    -0x10(%rbp),%rax
  40a2a4:	48 89 d6             	mov    %rdx,%rsi
  40a2a7:	48 89 c7             	mov    %rax,%rdi
  40a2aa:	e8 11 92 ff ff       	callq  4034c0 <_ZNSt7__cxx1112basic_stringIcSt11char_traitsIcESaIcEE6appendEPKc@plt>
  40a2af:	48 89 c7             	mov    %rax,%rdi
  40a2b2:	e8 f7 ce ff ff       	callq  4071ae <_ZSt4moveIRNSt7__cxx1112basic_stringIcSt11char_traitsIcESaIcEEEEONSt16remove_referenceIT_E4typeEOS8_>
  40a2b7:	48 89 c2             	mov    %rax,%rdx
  40a2ba:	48 8b 45 f8          	mov    -0x8(%rbp),%rax
  40a2be:	48 89 d6             	mov    %rdx,%rsi
  40a2c1:	48 89 c7             	mov    %rax,%rdi
  40a2c4:	e8 b7 8e ff ff       	callq  403180 <_ZNSt7__cxx1112basic_stringIcSt11char_traitsIcESaIcEEC1EOS4_@plt>
  40a2c9:	48 8b 45 f8          	mov    -0x8(%rbp),%rax
  40a2cd:	c9                   	leaveq 
  40a2ce:	c3                   	retq   
  40a2cf:	90                   	nop

000000000040a2d0 <_ZNSt3mapINSt7__cxx1112basic_stringIcSt11char_traitsIcESaIcEEE6SymbolSt4lessIS5_ESaISt4pairIKS5_S6_EEEixERSA_>:
  40a2d0:	55                   	push   %rbp
  40a2d1:	48 89 e5             	mov    %rsp,%rbp
  40a2d4:	53                   	push   %rbx
  40a2d5:	48 83 ec 48          	sub    $0x48,%rsp
  40a2d9:	48 89 7d b8          	mov    %rdi,-0x48(%rbp)
  40a2dd:	48 89 75 b0          	mov    %rsi,-0x50(%rbp)
  40a2e1:	48 8b 55 b0          	mov    -0x50(%rbp),%rdx
  40a2e5:	48 8b 45 b8          	mov    -0x48(%rbp),%rax
  40a2e9:	48 89 d6             	mov    %rdx,%rsi
  40a2ec:	48 89 c7             	mov    %rax,%rdi
  40a2ef:	e8 36 02 00 00       	callq  40a52a <_ZNSt3mapINSt7__cxx1112basic_stringIcSt11char_traitsIcESaIcEEE6SymbolSt4lessIS5_ESaISt4pairIKS5_S6_EEE11lower_boundERSA_>
  40a2f4:	48 89 45 c8          	mov    %rax,-0x38(%rbp)
  40a2f8:	48 8b 45 b8          	mov    -0x48(%rbp),%rax
  40a2fc:	48 89 c7             	mov    %rax,%rdi
  40a2ff:	e8 78 01 00 00       	callq  40a47c <_ZNSt3mapINSt7__cxx1112basic_stringIcSt11char_traitsIcESaIcEEE6SymbolSt4lessIS5_ESaISt4pairIKS5_S6_EEE3endEv>
  40a304:	48 89 45 d0          	mov    %rax,-0x30(%rbp)
  40a308:	48 8d 55 d0          	lea    -0x30(%rbp),%rdx
  40a30c:	48 8d 45 c8          	lea    -0x38(%rbp),%rax
  40a310:	48 89 d6             	mov    %rdx,%rsi
  40a313:	48 89 c7             	mov    %rax,%rdi
  40a316:	e8 35 02 00 00       	callq  40a550 <_ZNKSt17_Rb_tree_iteratorISt4pairIKNSt7__cxx1112basic_stringIcSt11char_traitsIcESaIcEEE6SymbolEEeqERKSA_>
  40a31b:	84 c0                	test   %al,%al
  40a31d:	75 32                	jne    40a351 <_ZNSt3mapINSt7__cxx1112basic_stringIcSt11char_traitsIcESaIcEEE6SymbolSt4lessIS5_ESaISt4pairIKS5_S6_EEEixERSA_+0x81>
  40a31f:	48 8b 45 b8          	mov    -0x48(%rbp),%rax
  40a323:	48 89 c7             	mov    %rax,%rdi
  40a326:	e8 47 02 00 00       	callq  40a572 <_ZNKSt3mapINSt7__cxx1112basic_stringIcSt11char_traitsIcESaIcEEE6SymbolSt4lessIS5_ESaISt4pairIKS5_S6_EEE8key_compEv>
  40a32b:	48 8d 45 c8          	lea    -0x38(%rbp),%rax
  40a32f:	48 89 c7             	mov    %rax,%rdi
  40a332:	e8 ad 01 00 00       	callq  40a4e4 <_ZNKSt17_Rb_tree_iteratorISt4pairIKNSt7__cxx1112basic_stringIcSt11char_traitsIcESaIcEEE6SymbolEEdeEv>
  40a337:	48 89 c2             	mov    %rax,%rdx
  40a33a:	48 8b 4d b0          	mov    -0x50(%rbp),%rcx
  40a33e:	48 8d 45 de          	lea    -0x22(%rbp),%rax
  40a342:	48 89 ce             	mov    %rcx,%rsi
  40a345:	48 89 c7             	mov    %rax,%rdi
  40a348:	e8 47 02 00 00       	callq  40a594 <_ZNKSt4lessINSt7__cxx1112basic_stringIcSt11char_traitsIcESaIcEEEEclERKS5_S8_>
  40a34d:	84 c0                	test   %al,%al
  40a34f:	74 07                	je     40a358 <_ZNSt3mapINSt7__cxx1112basic_stringIcSt11char_traitsIcESaIcEEE6SymbolSt4lessIS5_ESaISt4pairIKS5_S6_EEEixERSA_+0x88>
  40a351:	b8 01 00 00 00       	mov    $0x1,%eax
  40a356:	eb 05                	jmp    40a35d <_ZNSt3mapINSt7__cxx1112basic_stringIcSt11char_traitsIcESaIcEEE6SymbolSt4lessIS5_ESaISt4pairIKS5_S6_EEEixERSA_+0x8d>
  40a358:	b8 00 00 00 00       	mov    $0x0,%eax
  40a35d:	84 c0                	test   %al,%al
  40a35f:	74 50                	je     40a3b1 <_ZNSt3mapINSt7__cxx1112basic_stringIcSt11char_traitsIcESaIcEEE6SymbolSt4lessIS5_ESaISt4pairIKS5_S6_EEEixERSA_+0xe1>
  40a361:	48 8b 5d b8          	mov    -0x48(%rbp),%rbx
  40a365:	48 8b 55 b0          	mov    -0x50(%rbp),%rdx
  40a369:	48 8d 45 e0          	lea    -0x20(%rbp),%rax
  40a36d:	48 89 d6             	mov    %rdx,%rsi
  40a370:	48 89 c7             	mov    %rax,%rdi
  40a373:	e8 46 02 00 00       	callq  40a5be <_ZNSt5tupleIJRKNSt7__cxx1112basic_stringIcSt11char_traitsIcESaIcEEEEEC1IvLb1EEES7_>
  40a378:	48 8d 55 c8          	lea    -0x38(%rbp),%rdx
  40a37c:	48 8d 45 e8          	lea    -0x18(%rbp),%rax
  40a380:	48 89 d6             	mov    %rdx,%rsi
  40a383:	48 89 c7             	mov    %rax,%rdi
  40a386:	e8 59 02 00 00       	callq  40a5e4 <_ZNSt23_Rb_tree_const_iteratorISt4pairIKNSt7__cxx1112basic_stringIcSt11char_traitsIcESaIcEEE6SymbolEEC1ERKSt17_Rb_tree_iteratorIS9_E>
  40a38b:	48 8d 4d df          	lea    -0x21(%rbp),%rcx
  40a38f:	48 8d 55 e0          	lea    -0x20(%rbp),%rdx
  40a393:	48 8b 45 e8          	mov    -0x18(%rbp),%rax
  40a397:	49 89 c8             	mov    %rcx,%r8
  40a39a:	48 89 d1             	mov    %rdx,%rcx
  40a39d:	ba a0 e4 40 00       	mov    $0x40e4a0,%edx
  40a3a2:	48 89 c6             	mov    %rax,%rsi
  40a3a5:	48 89 df             	mov    %rbx,%rdi
  40a3a8:	e8 55 02 00 00       	callq  40a602 <_ZNSt8_Rb_treeINSt7__cxx1112basic_stringIcSt11char_traitsIcESaIcEEESt4pairIKS5_6SymbolESt10_Select1stIS9_ESt4lessIS5_ESaIS9_EE22_M_emplace_hint_uniqueIJRKSt21piecewise_construct_tSt5tupleIJRS7_EESK_IJEEEEESt17_Rb_tree_iteratorIS9_ESt23_Rb_tree_const_iteratorIS9_EDpOT_>
  40a3ad:	48 89 45 c8          	mov    %rax,-0x38(%rbp)
  40a3b1:	48 8d 45 c8          	lea    -0x38(%rbp),%rax
  40a3b5:	48 89 c7             	mov    %rax,%rdi
  40a3b8:	e8 27 01 00 00       	callq  40a4e4 <_ZNKSt17_Rb_tree_iteratorISt4pairIKNSt7__cxx1112basic_stringIcSt11char_traitsIcESaIcEEE6SymbolEEdeEv>
  40a3bd:	48 83 c0 20          	add    $0x20,%rax
  40a3c1:	48 83 c4 48          	add    $0x48,%rsp
  40a3c5:	5b                   	pop    %rbx
  40a3c6:	5d                   	pop    %rbp
  40a3c7:	c3                   	retq   

000000000040a3c8 <_ZNSt6vectorINSt7__cxx1112basic_stringIcSt11char_traitsIcESaIcEEESaIS5_EE12emplace_backIJRS5_EEEvDpOT_>:
  40a3c8:	55                   	push   %rbp
  40a3c9:	48 89 e5             	mov    %rsp,%rbp
  40a3cc:	53                   	push   %rbx
  40a3cd:	48 83 ec 18          	sub    $0x18,%rsp
  40a3d1:	48 89 7d e8          	mov    %rdi,-0x18(%rbp)
  40a3d5:	48 89 75 e0          	mov    %rsi,-0x20(%rbp)
  40a3d9:	48 8b 45 e8          	mov    -0x18(%rbp),%rax
  40a3dd:	48 8b 50 08          	mov    0x8(%rax),%rdx
  40a3e1:	48 8b 45 e8          	mov    -0x18(%rbp),%rax
  40a3e5:	48 8b 40 10          	mov    0x10(%rax),%rax
  40a3e9:	48 39 c2             	cmp    %rax,%rdx
  40a3ec:	74 3c                	je     40a42a <_ZNSt6vectorINSt7__cxx1112basic_stringIcSt11char_traitsIcESaIcEEESaIS5_EE12emplace_backIJRS5_EEEvDpOT_+0x62>
  40a3ee:	48 8b 45 e0          	mov    -0x20(%rbp),%rax
  40a3f2:	48 89 c7             	mov    %rax,%rdi
  40a3f5:	e8 1f 03 00 00       	callq  40a719 <_ZSt7forwardIRNSt7__cxx1112basic_stringIcSt11char_traitsIcESaIcEEEEOT_RNSt16remove_referenceIS7_E4typeE>
  40a3fa:	48 89 c2             	mov    %rax,%rdx
  40a3fd:	48 8b 45 e8          	mov    -0x18(%rbp),%rax
  40a401:	48 8b 48 08          	mov    0x8(%rax),%rcx
  40a405:	48 8b 45 e8          	mov    -0x18(%rbp),%rax
  40a409:	48 89 ce             	mov    %rcx,%rsi
  40a40c:	48 89 c7             	mov    %rax,%rdi
  40a40f:	e8 13 03 00 00       	callq  40a727 <_ZNSt16allocator_traitsISaINSt7__cxx1112basic_stringIcSt11char_traitsIcESaIcEEEEE9constructIS5_JRS5_EEEvRS6_PT_DpOT0_>
  40a414:	48 8b 45 e8          	mov    -0x18(%rbp),%rax
  40a418:	48 8b 40 08          	mov    0x8(%rax),%rax
  40a41c:	48 8d 50 20          	lea    0x20(%rax),%rdx
  40a420:	48 8b 45 e8          	mov    -0x18(%rbp),%rax
  40a424:	48 89 50 08          	mov    %rdx,0x8(%rax)
  40a428:	eb 30                	jmp    40a45a <_ZNSt6vectorINSt7__cxx1112basic_stringIcSt11char_traitsIcESaIcEEESaIS5_EE12emplace_backIJRS5_EEEvDpOT_+0x92>
  40a42a:	48 8b 45 e0          	mov    -0x20(%rbp),%rax
  40a42e:	48 89 c7             	mov    %rax,%rdi
  40a431:	e8 e3 02 00 00       	callq  40a719 <_ZSt7forwardIRNSt7__cxx1112basic_stringIcSt11char_traitsIcESaIcEEEEOT_RNSt16remove_referenceIS7_E4typeE>
  40a436:	48 89 c3             	mov    %rax,%rbx
  40a439:	48 8b 45 e8          	mov    -0x18(%rbp),%rax
  40a43d:	48 89 c7             	mov    %rax,%rdi
  40a440:	e8 1f cb ff ff       	callq  406f64 <_ZNSt6vectorINSt7__cxx1112basic_stringIcSt11char_traitsIcESaIcEEESaIS5_EE3endEv>
  40a445:	48 89 c1             	mov    %rax,%rcx
  40a448:	48 8b 45 e8          	mov    -0x18(%rbp),%rax
  40a44c:	48 89 da             	mov    %rbx,%rdx
  40a44f:	48 89 ce             	mov    %rcx,%rsi
  40a452:	48 89 c7             	mov    %rax,%rdi
  40a455:	e8 06 03 00 00       	callq  40a760 <_ZNSt6vectorINSt7__cxx1112basic_stringIcSt11char_traitsIcESaIcEEESaIS5_EE17_M_realloc_insertIJRS5_EEEvN9__gnu_cxx17__normal_iteratorIPS5_S7_EEDpOT_>
  40a45a:	90                   	nop
  40a45b:	48 83 c4 18          	add    $0x18,%rsp
  40a45f:	5b                   	pop    %rbx
  40a460:	5d                   	pop    %rbp
  40a461:	c3                   	retq   

000000000040a462 <_ZNSt3mapINSt7__cxx1112basic_stringIcSt11char_traitsIcESaIcEEE6SymbolSt4lessIS5_ESaISt4pairIKS5_S6_EEE5beginEv>:
  40a462:	55                   	push   %rbp
  40a463:	48 89 e5             	mov    %rsp,%rbp
  40a466:	48 83 ec 10          	sub    $0x10,%rsp
  40a46a:	48 89 7d f8          	mov    %rdi,-0x8(%rbp)
  40a46e:	48 8b 45 f8          	mov    -0x8(%rbp),%rax
  40a472:	48 89 c7             	mov    %rax,%rdi
  40a475:	e8 22 05 00 00       	callq  40a99c <_ZNSt8_Rb_treeINSt7__cxx1112basic_stringIcSt11char_traitsIcESaIcEEESt4pairIKS5_6SymbolESt10_Select1stIS9_ESt4lessIS5_ESaIS9_EE5beginEv>
  40a47a:	c9                   	leaveq 
  40a47b:	c3                   	retq   

000000000040a47c <_ZNSt3mapINSt7__cxx1112basic_stringIcSt11char_traitsIcESaIcEEE6SymbolSt4lessIS5_ESaISt4pairIKS5_S6_EEE3endEv>:
  40a47c:	55                   	push   %rbp
  40a47d:	48 89 e5             	mov    %rsp,%rbp
  40a480:	48 83 ec 10          	sub    $0x10,%rsp
  40a484:	48 89 7d f8          	mov    %rdi,-0x8(%rbp)
  40a488:	48 8b 45 f8          	mov    -0x8(%rbp),%rax
  40a48c:	48 89 c7             	mov    %rax,%rdi
  40a48f:	e8 32 05 00 00       	callq  40a9c6 <_ZNSt8_Rb_treeINSt7__cxx1112basic_stringIcSt11char_traitsIcESaIcEEESt4pairIKS5_6SymbolESt10_Select1stIS9_ESt4lessIS5_ESaIS9_EE3endEv>
  40a494:	c9                   	leaveq 
  40a495:	c3                   	retq   

000000000040a496 <_ZNKSt17_Rb_tree_iteratorISt4pairIKNSt7__cxx1112basic_stringIcSt11char_traitsIcESaIcEEE6SymbolEEneERKSA_>:
  40a496:	55                   	push   %rbp
  40a497:	48 89 e5             	mov    %rsp,%rbp
  40a49a:	48 89 7d f8          	mov    %rdi,-0x8(%rbp)
  40a49e:	48 89 75 f0          	mov    %rsi,-0x10(%rbp)
  40a4a2:	48 8b 45 f8          	mov    -0x8(%rbp),%rax
  40a4a6:	48 8b 10             	mov    (%rax),%rdx
  40a4a9:	48 8b 45 f0          	mov    -0x10(%rbp),%rax
  40a4ad:	48 8b 00             	mov    (%rax),%rax
  40a4b0:	48 39 c2             	cmp    %rax,%rdx
  40a4b3:	0f 95 c0             	setne  %al
  40a4b6:	5d                   	pop    %rbp
  40a4b7:	c3                   	retq   

000000000040a4b8 <_ZNSt17_Rb_tree_iteratorISt4pairIKNSt7__cxx1112basic_stringIcSt11char_traitsIcESaIcEEE6SymbolEEppEv>:
  40a4b8:	55                   	push   %rbp
  40a4b9:	48 89 e5             	mov    %rsp,%rbp
  40a4bc:	48 83 ec 10          	sub    $0x10,%rsp
  40a4c0:	48 89 7d f8          	mov    %rdi,-0x8(%rbp)
  40a4c4:	48 8b 45 f8          	mov    -0x8(%rbp),%rax
  40a4c8:	48 8b 00             	mov    (%rax),%rax
  40a4cb:	48 89 c7             	mov    %rax,%rdi
  40a4ce:	e8 fd 8c ff ff       	callq  4031d0 <_ZSt18_Rb_tree_incrementPSt18_Rb_tree_node_base@plt>
  40a4d3:	48 89 c2             	mov    %rax,%rdx
  40a4d6:	48 8b 45 f8          	mov    -0x8(%rbp),%rax
  40a4da:	48 89 10             	mov    %rdx,(%rax)
  40a4dd:	48 8b 45 f8          	mov    -0x8(%rbp),%rax
  40a4e1:	c9                   	leaveq 
  40a4e2:	c3                   	retq   
  40a4e3:	90                   	nop

000000000040a4e4 <_ZNKSt17_Rb_tree_iteratorISt4pairIKNSt7__cxx1112basic_stringIcSt11char_traitsIcESaIcEEE6SymbolEEdeEv>:
  40a4e4:	55                   	push   %rbp
  40a4e5:	48 89 e5             	mov    %rsp,%rbp
  40a4e8:	48 83 ec 10          	sub    $0x10,%rsp
  40a4ec:	48 89 7d f8          	mov    %rdi,-0x8(%rbp)
  40a4f0:	48 8b 45 f8          	mov    -0x8(%rbp),%rax
  40a4f4:	48 8b 00             	mov    (%rax),%rax
  40a4f7:	48 89 c7             	mov    %rax,%rdi
  40a4fa:	e8 bd e7 ff ff       	callq  408cbc <_ZNSt13_Rb_tree_nodeISt4pairIKNSt7__cxx1112basic_stringIcSt11char_traitsIcESaIcEEE6SymbolEE9_M_valptrEv>
  40a4ff:	c9                   	leaveq 
  40a500:	c3                   	retq   
  40a501:	90                   	nop

000000000040a502 <_ZNSaISt13_Rb_tree_nodeISt4pairIKNSt7__cxx1112basic_stringIcSt11char_traitsIcESaIcEEE6SymbolEEEC1Ev>:
  40a502:	55                   	push   %rbp
  40a503:	48 89 e5             	mov    %rsp,%rbp
  40a506:	48 83 ec 10          	sub    $0x10,%rsp
  40a50a:	48 89 7d f8          	mov    %rdi,-0x8(%rbp)
  40a50e:	48 8b 45 f8          	mov    -0x8(%rbp),%rax
  40a512:	48 89 c7             	mov    %rax,%rdi
  40a515:	e8 d6 04 00 00       	callq  40a9f0 <_ZN9__gnu_cxx13new_allocatorISt13_Rb_tree_nodeISt4pairIKNSt7__cxx1112basic_stringIcSt11char_traitsIcESaIcEEE6SymbolEEEC1Ev>
  40a51a:	90                   	nop
  40a51b:	c9                   	leaveq 
  40a51c:	c3                   	retq   
  40a51d:	90                   	nop

000000000040a51e <_ZNSt20_Rb_tree_key_compareISt4lessINSt7__cxx1112basic_stringIcSt11char_traitsIcESaIcEEEEEC1Ev>:
  40a51e:	55                   	push   %rbp
  40a51f:	48 89 e5             	mov    %rsp,%rbp
  40a522:	48 89 7d f8          	mov    %rdi,-0x8(%rbp)
  40a526:	90                   	nop
  40a527:	5d                   	pop    %rbp
  40a528:	c3                   	retq   
  40a529:	90                   	nop

000000000040a52a <_ZNSt3mapINSt7__cxx1112basic_stringIcSt11char_traitsIcESaIcEEE6SymbolSt4lessIS5_ESaISt4pairIKS5_S6_EEE11lower_boundERSA_>:
  40a52a:	55                   	push   %rbp
  40a52b:	48 89 e5             	mov    %rsp,%rbp
  40a52e:	48 83 ec 10          	sub    $0x10,%rsp
  40a532:	48 89 7d f8          	mov    %rdi,-0x8(%rbp)
  40a536:	48 89 75 f0          	mov    %rsi,-0x10(%rbp)
  40a53a:	48 8b 45 f8          	mov    -0x8(%rbp),%rax
  40a53e:	48 8b 55 f0          	mov    -0x10(%rbp),%rdx
  40a542:	48 89 d6             	mov    %rdx,%rsi
  40a545:	48 89 c7             	mov    %rax,%rdi
  40a548:	e8 af 04 00 00       	callq  40a9fc <_ZNSt8_Rb_treeINSt7__cxx1112basic_stringIcSt11char_traitsIcESaIcEEESt4pairIKS5_6SymbolESt10_Select1stIS9_ESt4lessIS5_ESaIS9_EE11lower_boundERS7_>
  40a54d:	c9                   	leaveq 
  40a54e:	c3                   	retq   
  40a54f:	90                   	nop

000000000040a550 <_ZNKSt17_Rb_tree_iteratorISt4pairIKNSt7__cxx1112basic_stringIcSt11char_traitsIcESaIcEEE6SymbolEEeqERKSA_>:
  40a550:	55                   	push   %rbp
  40a551:	48 89 e5             	mov    %rsp,%rbp
  40a554:	48 89 7d f8          	mov    %rdi,-0x8(%rbp)
  40a558:	48 89 75 f0          	mov    %rsi,-0x10(%rbp)
  40a55c:	48 8b 45 f8          	mov    -0x8(%rbp),%rax
  40a560:	48 8b 10             	mov    (%rax),%rdx
  40a563:	48 8b 45 f0          	mov    -0x10(%rbp),%rax
  40a567:	48 8b 00             	mov    (%rax),%rax
  40a56a:	48 39 c2             	cmp    %rax,%rdx
  40a56d:	0f 94 c0             	sete   %al
  40a570:	5d                   	pop    %rbp
  40a571:	c3                   	retq   

000000000040a572 <_ZNKSt3mapINSt7__cxx1112basic_stringIcSt11char_traitsIcESaIcEEE6SymbolSt4lessIS5_ESaISt4pairIKS5_S6_EEE8key_compEv>:
  40a572:	55                   	push   %rbp
  40a573:	48 89 e5             	mov    %rsp,%rbp
  40a576:	53                   	push   %rbx
  40a577:	48 83 ec 18          	sub    $0x18,%rsp
  40a57b:	48 89 7d e8          	mov    %rdi,-0x18(%rbp)
  40a57f:	48 8b 45 e8          	mov    -0x18(%rbp),%rax
  40a583:	48 89 c7             	mov    %rax,%rdi
  40a586:	e8 bd 04 00 00       	callq  40aa48 <_ZNKSt8_Rb_treeINSt7__cxx1112basic_stringIcSt11char_traitsIcESaIcEEESt4pairIKS5_6SymbolESt10_Select1stIS9_ESt4lessIS5_ESaIS9_EE8key_compEv>
  40a58b:	89 d8                	mov    %ebx,%eax
  40a58d:	48 83 c4 18          	add    $0x18,%rsp
  40a591:	5b                   	pop    %rbx
  40a592:	5d                   	pop    %rbp
  40a593:	c3                   	retq   

000000000040a594 <_ZNKSt4lessINSt7__cxx1112basic_stringIcSt11char_traitsIcESaIcEEEEclERKS5_S8_>:
  40a594:	55                   	push   %rbp
  40a595:	48 89 e5             	mov    %rsp,%rbp
  40a598:	48 83 ec 20          	sub    $0x20,%rsp
  40a59c:	48 89 7d f8          	mov    %rdi,-0x8(%rbp)
  40a5a0:	48 89 75 f0          	mov    %rsi,-0x10(%rbp)
  40a5a4:	48 89 55 e8          	mov    %rdx,-0x18(%rbp)
  40a5a8:	48 8b 55 e8          	mov    -0x18(%rbp),%rdx
  40a5ac:	48 8b 45 f0          	mov    -0x10(%rbp),%rax
  40a5b0:	48 89 d6             	mov    %rdx,%rsi
  40a5b3:	48 89 c7             	mov    %rax,%rdi
  40a5b6:	e8 97 04 00 00       	callq  40aa52 <_ZStltIcSt11char_traitsIcESaIcEEbRKNSt7__cxx1112basic_stringIT_T0_T1_EESA_>
  40a5bb:	c9                   	leaveq 
  40a5bc:	c3                   	retq   
  40a5bd:	90                   	nop

000000000040a5be <_ZNSt5tupleIJRKNSt7__cxx1112basic_stringIcSt11char_traitsIcESaIcEEEEEC1IvLb1EEES7_>:
  40a5be:	55                   	push   %rbp
  40a5bf:	48 89 e5             	mov    %rsp,%rbp
  40a5c2:	48 83 ec 10          	sub    $0x10,%rsp
  40a5c6:	48 89 7d f8          	mov    %rdi,-0x8(%rbp)
  40a5ca:	48 89 75 f0          	mov    %rsi,-0x10(%rbp)
  40a5ce:	48 8b 45 f8          	mov    -0x8(%rbp),%rax
  40a5d2:	48 8b 55 f0          	mov    -0x10(%rbp),%rdx
  40a5d6:	48 89 d6             	mov    %rdx,%rsi
  40a5d9:	48 89 c7             	mov    %rax,%rdi
  40a5dc:	e8 99 04 00 00       	callq  40aa7a <_ZNSt11_Tuple_implILm0EJRKNSt7__cxx1112basic_stringIcSt11char_traitsIcESaIcEEEEEC1ES7_>
  40a5e1:	90                   	nop
  40a5e2:	c9                   	leaveq 
  40a5e3:	c3                   	retq   

000000000040a5e4 <_ZNSt23_Rb_tree_const_iteratorISt4pairIKNSt7__cxx1112basic_stringIcSt11char_traitsIcESaIcEEE6SymbolEEC1ERKSt17_Rb_tree_iteratorIS9_E>:
  40a5e4:	55                   	push   %rbp
  40a5e5:	48 89 e5             	mov    %rsp,%rbp
  40a5e8:	48 89 7d f8          	mov    %rdi,-0x8(%rbp)
  40a5ec:	48 89 75 f0          	mov    %rsi,-0x10(%rbp)
  40a5f0:	48 8b 45 f0          	mov    -0x10(%rbp),%rax
  40a5f4:	48 8b 10             	mov    (%rax),%rdx
  40a5f7:	48 8b 45 f8          	mov    -0x8(%rbp),%rax
  40a5fb:	48 89 10             	mov    %rdx,(%rax)
  40a5fe:	90                   	nop
  40a5ff:	5d                   	pop    %rbp
  40a600:	c3                   	retq   
  40a601:	90                   	nop

000000000040a602 <_ZNSt8_Rb_treeINSt7__cxx1112basic_stringIcSt11char_traitsIcESaIcEEESt4pairIKS5_6SymbolESt10_Select1stIS9_ESt4lessIS5_ESaIS9_EE22_M_emplace_hint_uniqueIJRKSt21piecewise_construct_tSt5tupleIJRS7_EESK_IJEEEEESt17_Rb_tree_iteratorIS9_ESt23_Rb_tree_const_iteratorIS9_EDpOT_>:
  40a602:	55                   	push   %rbp
  40a603:	48 89 e5             	mov    %rsp,%rbp
  40a606:	41 54                	push   %r12
  40a608:	53                   	push   %rbx
  40a609:	48 83 ec 50          	sub    $0x50,%rsp
  40a60d:	48 89 7d c8          	mov    %rdi,-0x38(%rbp)
  40a611:	48 89 75 c0          	mov    %rsi,-0x40(%rbp)
  40a615:	48 89 55 b8          	mov    %rdx,-0x48(%rbp)
  40a619:	48 89 4d b0          	mov    %rcx,-0x50(%rbp)
  40a61d:	4c 89 45 a8          	mov    %r8,-0x58(%rbp)
  40a621:	48 8b 45 a8          	mov    -0x58(%rbp),%rax
  40a625:	48 89 c7             	mov    %rax,%rdi
  40a628:	e8 8f 04 00 00       	callq  40aabc <_ZSt7forwardISt5tupleIJEEEOT_RNSt16remove_referenceIS2_E4typeE>
  40a62d:	49 89 c4             	mov    %rax,%r12
  40a630:	48 8b 45 b0          	mov    -0x50(%rbp),%rax
  40a634:	48 89 c7             	mov    %rax,%rdi
  40a637:	e8 72 04 00 00       	callq  40aaae <_ZSt7forwardISt5tupleIJRKNSt7__cxx1112basic_stringIcSt11char_traitsIcESaIcEEEEEEOT_RNSt16remove_referenceISA_E4typeE>
  40a63c:	48 89 c3             	mov    %rax,%rbx
  40a63f:	48 8b 45 b8          	mov    -0x48(%rbp),%rax
  40a643:	48 89 c7             	mov    %rax,%rdi
  40a646:	e8 55 04 00 00       	callq  40aaa0 <_ZSt7forwardIRKSt21piecewise_construct_tEOT_RNSt16remove_referenceIS3_E4typeE>
  40a64b:	48 89 c6             	mov    %rax,%rsi
  40a64e:	48 8b 45 c8          	mov    -0x38(%rbp),%rax
  40a652:	4c 89 e1             	mov    %r12,%rcx
  40a655:	48 89 da             	mov    %rbx,%rdx
  40a658:	48 89 c7             	mov    %rax,%rdi
  40a65b:	e8 6a 04 00 00       	callq  40aaca <_ZNSt8_Rb_treeINSt7__cxx1112basic_stringIcSt11char_traitsIcESaIcEEESt4pairIKS5_6SymbolESt10_Select1stIS9_ESt4lessIS5_ESaIS9_EE14_M_create_nodeIJRKSt21piecewise_construct_tSt5tupleIJRS7_EESK_IJEEEEEPSt13_Rb_tree_nodeIS9_EDpOT_>
  40a660:	48 89 45 e8          	mov    %rax,-0x18(%rbp)
  40a664:	48 8b 45 e8          	mov    -0x18(%rbp),%rax
  40a668:	48 89 c7             	mov    %rax,%rdi
  40a66b:	e8 28 09 00 00       	callq  40af98 <_ZNSt8_Rb_treeINSt7__cxx1112basic_stringIcSt11char_traitsIcESaIcEEESt4pairIKS5_6SymbolESt10_Select1stIS9_ESt4lessIS5_ESaIS9_EE6_S_keyEPKSt13_Rb_tree_nodeIS9_E>
  40a670:	48 89 c2             	mov    %rax,%rdx
  40a673:	48 8b 4d c0          	mov    -0x40(%rbp),%rcx
  40a677:	48 8b 45 c8          	mov    -0x38(%rbp),%rax
  40a67b:	48 89 ce             	mov    %rcx,%rsi
  40a67e:	48 89 c7             	mov    %rax,%rdi
  40a681:	e8 c0 04 00 00       	callq  40ab46 <_ZNSt8_Rb_treeINSt7__cxx1112basic_stringIcSt11char_traitsIcESaIcEEESt4pairIKS5_6SymbolESt10_Select1stIS9_ESt4lessIS5_ESaIS9_EE29_M_get_insert_hint_unique_posESt23_Rb_tree_const_iteratorIS9_ERS7_>
  40a686:	48 89 45 d0          	mov    %rax,-0x30(%rbp)
  40a68a:	48 89 55 d8          	mov    %rdx,-0x28(%rbp)
  40a68e:	48 8b 45 d8          	mov    -0x28(%rbp),%rax
  40a692:	48 85 c0             	test   %rax,%rax
  40a695:	74 1a                	je     40a6b1 <_ZNSt8_Rb_treeINSt7__cxx1112basic_stringIcSt11char_traitsIcESaIcEEESt4pairIKS5_6SymbolESt10_Select1stIS9_ESt4lessIS5_ESaIS9_EE22_M_emplace_hint_uniqueIJRKSt21piecewise_construct_tSt5tupleIJRS7_EESK_IJEEEEESt17_Rb_tree_iteratorIS9_ESt23_Rb_tree_const_iteratorIS9_EDpOT_+0xaf>
  40a697:	48 8b 55 d8          	mov    -0x28(%rbp),%rdx
  40a69b:	48 8b 75 d0          	mov    -0x30(%rbp),%rsi
  40a69f:	48 8b 4d e8          	mov    -0x18(%rbp),%rcx
  40a6a3:	48 8b 45 c8          	mov    -0x38(%rbp),%rax
  40a6a7:	48 89 c7             	mov    %rax,%rdi
  40a6aa:	e8 17 09 00 00       	callq  40afc6 <_ZNSt8_Rb_treeINSt7__cxx1112basic_stringIcSt11char_traitsIcESaIcEEESt4pairIKS5_6SymbolESt10_Select1stIS9_ESt4lessIS5_ESaIS9_EE14_M_insert_nodeEPSt18_Rb_tree_node_baseSH_PSt13_Rb_tree_nodeIS9_E>
  40a6af:	eb 5f                	jmp    40a710 <_ZNSt8_Rb_treeINSt7__cxx1112basic_stringIcSt11char_traitsIcESaIcEEESt4pairIKS5_6SymbolESt10_Select1stIS9_ESt4lessIS5_ESaIS9_EE22_M_emplace_hint_uniqueIJRKSt21piecewise_construct_tSt5tupleIJRS7_EESK_IJEEEEESt17_Rb_tree_iteratorIS9_ESt23_Rb_tree_const_iteratorIS9_EDpOT_+0x10e>
  40a6b1:	48 8b 55 e8          	mov    -0x18(%rbp),%rdx
  40a6b5:	48 8b 45 c8          	mov    -0x38(%rbp),%rax
  40a6b9:	48 89 d6             	mov    %rdx,%rsi
  40a6bc:	48 89 c7             	mov    %rax,%rdi
  40a6bf:	e8 3a e5 ff ff       	callq  408bfe <_ZNSt8_Rb_treeINSt7__cxx1112basic_stringIcSt11char_traitsIcESaIcEEESt4pairIKS5_6SymbolESt10_Select1stIS9_ESt4lessIS5_ESaIS9_EE12_M_drop_nodeEPSt13_Rb_tree_nodeIS9_E>
  40a6c4:	48 8b 55 d0          	mov    -0x30(%rbp),%rdx
  40a6c8:	48 8d 45 e0          	lea    -0x20(%rbp),%rax
  40a6cc:	48 89 d6             	mov    %rdx,%rsi
  40a6cf:	48 89 c7             	mov    %rax,%rdi
  40a6d2:	e8 b3 09 00 00       	callq  40b08a <_ZNSt17_Rb_tree_iteratorISt4pairIKNSt7__cxx1112basic_stringIcSt11char_traitsIcESaIcEEE6SymbolEEC1EPSt18_Rb_tree_node_base>
  40a6d7:	48 8b 45 e0          	mov    -0x20(%rbp),%rax
  40a6db:	eb 33                	jmp    40a710 <_ZNSt8_Rb_treeINSt7__cxx1112basic_stringIcSt11char_traitsIcESaIcEEESt4pairIKS5_6SymbolESt10_Select1stIS9_ESt4lessIS5_ESaIS9_EE22_M_emplace_hint_uniqueIJRKSt21piecewise_construct_tSt5tupleIJRS7_EESK_IJEEEEESt17_Rb_tree_iteratorIS9_ESt23_Rb_tree_const_iteratorIS9_EDpOT_+0x10e>
  40a6dd:	48 89 c7             	mov    %rax,%rdi
  40a6e0:	e8 2b 8a ff ff       	callq  403110 <__cxa_begin_catch@plt>
  40a6e5:	48 8b 55 e8          	mov    -0x18(%rbp),%rdx
  40a6e9:	48 8b 45 c8          	mov    -0x38(%rbp),%rax
  40a6ed:	48 89 d6             	mov    %rdx,%rsi
  40a6f0:	48 89 c7             	mov    %rax,%rdi
  40a6f3:	e8 06 e5 ff ff       	callq  408bfe <_ZNSt8_Rb_treeINSt7__cxx1112basic_stringIcSt11char_traitsIcESaIcEEESt4pairIKS5_6SymbolESt10_Select1stIS9_ESt4lessIS5_ESaIS9_EE12_M_drop_nodeEPSt13_Rb_tree_nodeIS9_E>
  40a6f8:	e8 a3 8c ff ff       	callq  4033a0 <__cxa_rethrow@plt>
  40a6fd:	48 89 c3             	mov    %rax,%rbx
  40a700:	e8 1b 8d ff ff       	callq  403420 <__cxa_end_catch@plt>
  40a705:	48 89 d8             	mov    %rbx,%rax
  40a708:	48 89 c7             	mov    %rax,%rdi
  40a70b:	e8 60 8d ff ff       	callq  403470 <_Unwind_Resume@plt>
  40a710:	48 83 c4 50          	add    $0x50,%rsp
  40a714:	5b                   	pop    %rbx
  40a715:	41 5c                	pop    %r12
  40a717:	5d                   	pop    %rbp
  40a718:	c3                   	retq   

000000000040a719 <_ZSt7forwardIRNSt7__cxx1112basic_stringIcSt11char_traitsIcESaIcEEEEOT_RNSt16remove_referenceIS7_E4typeE>:
  40a719:	55                   	push   %rbp
  40a71a:	48 89 e5             	mov    %rsp,%rbp
  40a71d:	48 89 7d f8          	mov    %rdi,-0x8(%rbp)
  40a721:	48 8b 45 f8          	mov    -0x8(%rbp),%rax
  40a725:	5d                   	pop    %rbp
  40a726:	c3                   	retq   

000000000040a727 <_ZNSt16allocator_traitsISaINSt7__cxx1112basic_stringIcSt11char_traitsIcESaIcEEEEE9constructIS5_JRS5_EEEvRS6_PT_DpOT0_>:
  40a727:	55                   	push   %rbp
  40a728:	48 89 e5             	mov    %rsp,%rbp
  40a72b:	48 83 ec 20          	sub    $0x20,%rsp
  40a72f:	48 89 7d f8          	mov    %rdi,-0x8(%rbp)
  40a733:	48 89 75 f0          	mov    %rsi,-0x10(%rbp)
  40a737:	48 89 55 e8          	mov    %rdx,-0x18(%rbp)
  40a73b:	48 8b 45 e8          	mov    -0x18(%rbp),%rax
  40a73f:	48 89 c7             	mov    %rax,%rdi
  40a742:	e8 d2 ff ff ff       	callq  40a719 <_ZSt7forwardIRNSt7__cxx1112basic_stringIcSt11char_traitsIcESaIcEEEEOT_RNSt16remove_referenceIS7_E4typeE>
  40a747:	48 89 c2             	mov    %rax,%rdx
  40a74a:	48 8b 4d f0          	mov    -0x10(%rbp),%rcx
  40a74e:	48 8b 45 f8          	mov    -0x8(%rbp),%rax
  40a752:	48 89 ce             	mov    %rcx,%rsi
  40a755:	48 89 c7             	mov    %rax,%rdi
  40a758:	e8 47 09 00 00       	callq  40b0a4 <_ZN9__gnu_cxx13new_allocatorINSt7__cxx1112basic_stringIcSt11char_traitsIcESaIcEEEE9constructIS6_JRS6_EEEvPT_DpOT0_>
  40a75d:	90                   	nop
  40a75e:	c9                   	leaveq 
  40a75f:	c3                   	retq   

000000000040a760 <_ZNSt6vectorINSt7__cxx1112basic_stringIcSt11char_traitsIcESaIcEEESaIS5_EE17_M_realloc_insertIJRS5_EEEvN9__gnu_cxx17__normal_iteratorIPS5_S7_EEDpOT_>:
  40a760:	55                   	push   %rbp
  40a761:	48 89 e5             	mov    %rsp,%rbp
  40a764:	53                   	push   %rbx
  40a765:	48 83 ec 68          	sub    $0x68,%rsp
  40a769:	48 89 7d a8          	mov    %rdi,-0x58(%rbp)
  40a76d:	48 89 75 a0          	mov    %rsi,-0x60(%rbp)
  40a771:	48 89 55 98          	mov    %rdx,-0x68(%rbp)
  40a775:	48 8b 45 a8          	mov    -0x58(%rbp),%rax
  40a779:	ba 7c e5 40 00       	mov    $0x40e57c,%edx
  40a77e:	be 01 00 00 00       	mov    $0x1,%esi
  40a783:	48 89 c7             	mov    %rax,%rdi
  40a786:	e8 fb d3 ff ff       	callq  407b86 <_ZNKSt6vectorINSt7__cxx1112basic_stringIcSt11char_traitsIcESaIcEEESaIS5_EE12_M_check_lenEmPKc>
  40a78b:	48 89 45 e0          	mov    %rax,-0x20(%rbp)
  40a78f:	48 8b 45 a8          	mov    -0x58(%rbp),%rax
  40a793:	48 8b 00             	mov    (%rax),%rax
  40a796:	48 89 45 d8          	mov    %rax,-0x28(%rbp)
  40a79a:	48 8b 45 a8          	mov    -0x58(%rbp),%rax
  40a79e:	48 8b 40 08          	mov    0x8(%rax),%rax
  40a7a2:	48 89 45 d0          	mov    %rax,-0x30(%rbp)
  40a7a6:	48 8b 45 a8          	mov    -0x58(%rbp),%rax
  40a7aa:	48 89 c7             	mov    %rax,%rdi
  40a7ad:	e8 8c c7 ff ff       	callq  406f3e <_ZNSt6vectorINSt7__cxx1112basic_stringIcSt11char_traitsIcESaIcEEESaIS5_EE5beginEv>
  40a7b2:	48 89 45 b8          	mov    %rax,-0x48(%rbp)
  40a7b6:	48 8d 55 b8          	lea    -0x48(%rbp),%rdx
  40a7ba:	48 8d 45 a0          	lea    -0x60(%rbp),%rax
  40a7be:	48 89 d6             	mov    %rdx,%rsi
  40a7c1:	48 89 c7             	mov    %rax,%rdi
  40a7c4:	e8 86 d4 ff ff       	callq  407c4f <_ZN9__gnu_cxxmiIPNSt7__cxx1112basic_stringIcSt11char_traitsIcESaIcEEESt6vectorIS6_SaIS6_EEEENS_17__normal_iteratorIT_T0_E15difference_typeERKSE_SH_>
  40a7c9:	48 89 45 c8          	mov    %rax,-0x38(%rbp)
  40a7cd:	48 8b 45 a8          	mov    -0x58(%rbp),%rax
  40a7d1:	48 8b 55 e0          	mov    -0x20(%rbp),%rdx
  40a7d5:	48 89 d6             	mov    %rdx,%rsi
  40a7d8:	48 89 c7             	mov    %rax,%rdi
  40a7db:	e8 b0 d4 ff ff       	callq  407c90 <_ZNSt12_Vector_baseINSt7__cxx1112basic_stringIcSt11char_traitsIcESaIcEEESaIS5_EE11_M_allocateEm>
  40a7e0:	48 89 45 c0          	mov    %rax,-0x40(%rbp)
  40a7e4:	48 8b 45 c0          	mov    -0x40(%rbp),%rax
  40a7e8:	48 89 45 e8          	mov    %rax,-0x18(%rbp)
  40a7ec:	48 8b 45 98          	mov    -0x68(%rbp),%rax
  40a7f0:	48 89 c7             	mov    %rax,%rdi
  40a7f3:	e8 21 ff ff ff       	callq  40a719 <_ZSt7forwardIRNSt7__cxx1112basic_stringIcSt11char_traitsIcESaIcEEEEOT_RNSt16remove_referenceIS7_E4typeE>
  40a7f8:	48 89 c6             	mov    %rax,%rsi
  40a7fb:	48 8b 45 c8          	mov    -0x38(%rbp),%rax
  40a7ff:	48 c1 e0 05          	shl    $0x5,%rax
  40a803:	48 89 c2             	mov    %rax,%rdx
  40a806:	48 8b 45 c0          	mov    -0x40(%rbp),%rax
  40a80a:	48 8d 0c 02          	lea    (%rdx,%rax,1),%rcx
  40a80e:	48 8b 45 a8          	mov    -0x58(%rbp),%rax
  40a812:	48 89 f2             	mov    %rsi,%rdx
  40a815:	48 89 ce             	mov    %rcx,%rsi
  40a818:	48 89 c7             	mov    %rax,%rdi
  40a81b:	e8 07 ff ff ff       	callq  40a727 <_ZNSt16allocator_traitsISaINSt7__cxx1112basic_stringIcSt11char_traitsIcESaIcEEEEE9constructIS5_JRS5_EEEvRS6_PT_DpOT0_>
  40a820:	48 c7 45 e8 00 00 00 	movq   $0x0,-0x18(%rbp)
  40a827:	00 
  40a828:	48 8b 45 a8          	mov    -0x58(%rbp),%rax
  40a82c:	48 89 c7             	mov    %rax,%rdi
  40a82f:	e8 d2 d2 ff ff       	callq  407b06 <_ZNSt12_Vector_baseINSt7__cxx1112basic_stringIcSt11char_traitsIcESaIcEEESaIS5_EE19_M_get_Tp_allocatorEv>
  40a834:	48 89 c3             	mov    %rax,%rbx
  40a837:	48 8d 45 a0          	lea    -0x60(%rbp),%rax
  40a83b:	48 89 c7             	mov    %rax,%rdi
  40a83e:	e8 0f ce ff ff       	callq  407652 <_ZNK9__gnu_cxx17__normal_iteratorIPNSt7__cxx1112basic_stringIcSt11char_traitsIcESaIcEEESt6vectorIS6_SaIS6_EEE4baseEv>
  40a843:	48 8b 30             	mov    (%rax),%rsi
  40a846:	48 8b 55 c0          	mov    -0x40(%rbp),%rdx
  40a84a:	48 8b 45 d8          	mov    -0x28(%rbp),%rax
  40a84e:	48 89 d9             	mov    %rbx,%rcx
  40a851:	48 89 c7             	mov    %rax,%rdi
  40a854:	e8 6a d4 ff ff       	callq  407cc3 <_ZSt34__uninitialized_move_if_noexcept_aIPNSt7__cxx1112basic_stringIcSt11char_traitsIcESaIcEEES6_SaIS5_EET0_T_S9_S8_RT1_>
  40a859:	48 89 45 e8          	mov    %rax,-0x18(%rbp)
  40a85d:	48 83 45 e8 20       	addq   $0x20,-0x18(%rbp)
  40a862:	48 8b 45 a8          	mov    -0x58(%rbp),%rax
  40a866:	48 89 c7             	mov    %rax,%rdi
  40a869:	e8 98 d2 ff ff       	callq  407b06 <_ZNSt12_Vector_baseINSt7__cxx1112basic_stringIcSt11char_traitsIcESaIcEEESaIS5_EE19_M_get_Tp_allocatorEv>
  40a86e:	48 89 c3             	mov    %rax,%rbx
  40a871:	48 8d 45 a0          	lea    -0x60(%rbp),%rax
  40a875:	48 89 c7             	mov    %rax,%rdi
  40a878:	e8 d5 cd ff ff       	callq  407652 <_ZNK9__gnu_cxx17__normal_iteratorIPNSt7__cxx1112basic_stringIcSt11char_traitsIcESaIcEEESt6vectorIS6_SaIS6_EEE4baseEv>
  40a87d:	48 8b 00             	mov    (%rax),%rax
  40a880:	48 8b 55 e8          	mov    -0x18(%rbp),%rdx
  40a884:	48 8b 75 d0          	mov    -0x30(%rbp),%rsi
  40a888:	48 89 d9             	mov    %rbx,%rcx
  40a88b:	48 89 c7             	mov    %rax,%rdi
  40a88e:	e8 30 d4 ff ff       	callq  407cc3 <_ZSt34__uninitialized_move_if_noexcept_aIPNSt7__cxx1112basic_stringIcSt11char_traitsIcESaIcEEES6_SaIS5_EET0_T_S9_S8_RT1_>
  40a893:	48 89 45 e8          	mov    %rax,-0x18(%rbp)
  40a897:	48 8b 45 a8          	mov    -0x58(%rbp),%rax
  40a89b:	48 89 c7             	mov    %rax,%rdi
  40a89e:	e8 63 d2 ff ff       	callq  407b06 <_ZNSt12_Vector_baseINSt7__cxx1112basic_stringIcSt11char_traitsIcESaIcEEESaIS5_EE19_M_get_Tp_allocatorEv>
  40a8a3:	48 89 c2             	mov    %rax,%rdx
  40a8a6:	48 8b 4d d0          	mov    -0x30(%rbp),%rcx
  40a8aa:	48 8b 45 d8          	mov    -0x28(%rbp),%rax
  40a8ae:	48 89 ce             	mov    %rcx,%rsi
  40a8b1:	48 89 c7             	mov    %rax,%rdi
  40a8b4:	e8 5b d2 ff ff       	callq  407b14 <_ZSt8_DestroyIPNSt7__cxx1112basic_stringIcSt11char_traitsIcESaIcEEES5_EvT_S7_RSaIT0_E>
  40a8b9:	48 8b 45 a8          	mov    -0x58(%rbp),%rax
  40a8bd:	48 8b 55 a8          	mov    -0x58(%rbp),%rdx
  40a8c1:	48 8b 52 10          	mov    0x10(%rdx),%rdx
  40a8c5:	48 2b 55 d8          	sub    -0x28(%rbp),%rdx
  40a8c9:	48 c1 fa 05          	sar    $0x5,%rdx
  40a8cd:	48 8b 4d d8          	mov    -0x28(%rbp),%rcx
  40a8d1:	48 89 ce             	mov    %rcx,%rsi
  40a8d4:	48 89 c7             	mov    %rax,%rdi
  40a8d7:	e8 9a d1 ff ff       	callq  407a76 <_ZNSt12_Vector_baseINSt7__cxx1112basic_stringIcSt11char_traitsIcESaIcEEESaIS5_EE13_M_deallocateEPS5_m>
  40a8dc:	48 8b 45 a8          	mov    -0x58(%rbp),%rax
  40a8e0:	48 8b 55 c0          	mov    -0x40(%rbp),%rdx
  40a8e4:	48 89 10             	mov    %rdx,(%rax)
  40a8e7:	48 8b 45 a8          	mov    -0x58(%rbp),%rax
  40a8eb:	48 8b 55 e8          	mov    -0x18(%rbp),%rdx
  40a8ef:	48 89 50 08          	mov    %rdx,0x8(%rax)
  40a8f3:	48 8b 45 e0          	mov    -0x20(%rbp),%rax
  40a8f7:	48 c1 e0 05          	shl    $0x5,%rax
  40a8fb:	48 89 c2             	mov    %rax,%rdx
  40a8fe:	48 8b 45 c0          	mov    -0x40(%rbp),%rax
  40a902:	48 01 c2             	add    %rax,%rdx
  40a905:	48 8b 45 a8          	mov    -0x58(%rbp),%rax
  40a909:	48 89 50 10          	mov    %rdx,0x10(%rax)
  40a90d:	e9 83 00 00 00       	jmpq   40a995 <_ZNSt6vectorINSt7__cxx1112basic_stringIcSt11char_traitsIcESaIcEEESaIS5_EE17_M_realloc_insertIJRS5_EEEvN9__gnu_cxx17__normal_iteratorIPS5_S7_EEDpOT_+0x235>
  40a912:	48 89 c7             	mov    %rax,%rdi
  40a915:	e8 f6 87 ff ff       	callq  403110 <__cxa_begin_catch@plt>
  40a91a:	48 83 7d e8 00       	cmpq   $0x0,-0x18(%rbp)
  40a91f:	75 23                	jne    40a944 <_ZNSt6vectorINSt7__cxx1112basic_stringIcSt11char_traitsIcESaIcEEESaIS5_EE17_M_realloc_insertIJRS5_EEEvN9__gnu_cxx17__normal_iteratorIPS5_S7_EEDpOT_+0x1e4>
  40a921:	48 8b 45 c8          	mov    -0x38(%rbp),%rax
  40a925:	48 c1 e0 05          	shl    $0x5,%rax
  40a929:	48 89 c2             	mov    %rax,%rdx
  40a92c:	48 8b 45 c0          	mov    -0x40(%rbp),%rax
  40a930:	48 01 c2             	add    %rax,%rdx
  40a933:	48 8b 45 a8          	mov    -0x58(%rbp),%rax
  40a937:	48 89 d6             	mov    %rdx,%rsi
  40a93a:	48 89 c7             	mov    %rax,%rdi
  40a93d:	e8 1e cd ff ff       	callq  407660 <_ZNSt16allocator_traitsISaINSt7__cxx1112basic_stringIcSt11char_traitsIcESaIcEEEEE7destroyIS5_EEvRS6_PT_>
  40a942:	eb 22                	jmp    40a966 <_ZNSt6vectorINSt7__cxx1112basic_stringIcSt11char_traitsIcESaIcEEESaIS5_EE17_M_realloc_insertIJRS5_EEEvN9__gnu_cxx17__normal_iteratorIPS5_S7_EEDpOT_+0x206>
  40a944:	48 8b 45 a8          	mov    -0x58(%rbp),%rax
  40a948:	48 89 c7             	mov    %rax,%rdi
  40a94b:	e8 b6 d1 ff ff       	callq  407b06 <_ZNSt12_Vector_baseINSt7__cxx1112basic_stringIcSt11char_traitsIcESaIcEEESaIS5_EE19_M_get_Tp_allocatorEv>
  40a950:	48 89 c2             	mov    %rax,%rdx
  40a953:	48 8b 4d e8          	mov    -0x18(%rbp),%rcx
  40a957:	48 8b 45 c0          	mov    -0x40(%rbp),%rax
  40a95b:	48 89 ce             	mov    %rcx,%rsi
  40a95e:	48 89 c7             	mov    %rax,%rdi
  40a961:	e8 ae d1 ff ff       	callq  407b14 <_ZSt8_DestroyIPNSt7__cxx1112basic_stringIcSt11char_traitsIcESaIcEEES5_EvT_S7_RSaIT0_E>
  40a966:	48 8b 45 a8          	mov    -0x58(%rbp),%rax
  40a96a:	48 8b 55 e0          	mov    -0x20(%rbp),%rdx
  40a96e:	48 8b 4d c0          	mov    -0x40(%rbp),%rcx
  40a972:	48 89 ce             	mov    %rcx,%rsi
  40a975:	48 89 c7             	mov    %rax,%rdi
  40a978:	e8 f9 d0 ff ff       	callq  407a76 <_ZNSt12_Vector_baseINSt7__cxx1112basic_stringIcSt11char_traitsIcESaIcEEESaIS5_EE13_M_deallocateEPS5_m>
  40a97d:	e8 1e 8a ff ff       	callq  4033a0 <__cxa_rethrow@plt>
  40a982:	48 89 c3             	mov    %rax,%rbx
  40a985:	e8 96 8a ff ff       	callq  403420 <__cxa_end_catch@plt>
  40a98a:	48 89 d8             	mov    %rbx,%rax
  40a98d:	48 89 c7             	mov    %rax,%rdi
  40a990:	e8 db 8a ff ff       	callq  403470 <_Unwind_Resume@plt>
  40a995:	48 83 c4 68          	add    $0x68,%rsp
  40a999:	5b                   	pop    %rbx
  40a99a:	5d                   	pop    %rbp
  40a99b:	c3                   	retq   

000000000040a99c <_ZNSt8_Rb_treeINSt7__cxx1112basic_stringIcSt11char_traitsIcESaIcEEESt4pairIKS5_6SymbolESt10_Select1stIS9_ESt4lessIS5_ESaIS9_EE5beginEv>:
  40a99c:	55                   	push   %rbp
  40a99d:	48 89 e5             	mov    %rsp,%rbp
  40a9a0:	48 83 ec 20          	sub    $0x20,%rsp
  40a9a4:	48 89 7d e8          	mov    %rdi,-0x18(%rbp)
  40a9a8:	48 8b 45 e8          	mov    -0x18(%rbp),%rax
  40a9ac:	48 8b 50 18          	mov    0x18(%rax),%rdx
  40a9b0:	48 8d 45 f8          	lea    -0x8(%rbp),%rax
  40a9b4:	48 89 d6             	mov    %rdx,%rsi
  40a9b7:	48 89 c7             	mov    %rax,%rdi
  40a9ba:	e8 cb 06 00 00       	callq  40b08a <_ZNSt17_Rb_tree_iteratorISt4pairIKNSt7__cxx1112basic_stringIcSt11char_traitsIcESaIcEEE6SymbolEEC1EPSt18_Rb_tree_node_base>
  40a9bf:	48 8b 45 f8          	mov    -0x8(%rbp),%rax
  40a9c3:	c9                   	leaveq 
  40a9c4:	c3                   	retq   
  40a9c5:	90                   	nop

000000000040a9c6 <_ZNSt8_Rb_treeINSt7__cxx1112basic_stringIcSt11char_traitsIcESaIcEEESt4pairIKS5_6SymbolESt10_Select1stIS9_ESt4lessIS5_ESaIS9_EE3endEv>:
  40a9c6:	55                   	push   %rbp
  40a9c7:	48 89 e5             	mov    %rsp,%rbp
  40a9ca:	48 83 ec 20          	sub    $0x20,%rsp
  40a9ce:	48 89 7d e8          	mov    %rdi,-0x18(%rbp)
  40a9d2:	48 8b 45 e8          	mov    -0x18(%rbp),%rax
  40a9d6:	48 8d 50 08          	lea    0x8(%rax),%rdx
  40a9da:	48 8d 45 f8          	lea    -0x8(%rbp),%rax
  40a9de:	48 89 d6             	mov    %rdx,%rsi
  40a9e1:	48 89 c7             	mov    %rax,%rdi
  40a9e4:	e8 a1 06 00 00       	callq  40b08a <_ZNSt17_Rb_tree_iteratorISt4pairIKNSt7__cxx1112basic_stringIcSt11char_traitsIcESaIcEEE6SymbolEEC1EPSt18_Rb_tree_node_base>
  40a9e9:	48 8b 45 f8          	mov    -0x8(%rbp),%rax
  40a9ed:	c9                   	leaveq 
  40a9ee:	c3                   	retq   
  40a9ef:	90                   	nop

000000000040a9f0 <_ZN9__gnu_cxx13new_allocatorISt13_Rb_tree_nodeISt4pairIKNSt7__cxx1112basic_stringIcSt11char_traitsIcESaIcEEE6SymbolEEEC1Ev>:
  40a9f0:	55                   	push   %rbp
  40a9f1:	48 89 e5             	mov    %rsp,%rbp
  40a9f4:	48 89 7d f8          	mov    %rdi,-0x8(%rbp)
  40a9f8:	90                   	nop
  40a9f9:	5d                   	pop    %rbp
  40a9fa:	c3                   	retq   
  40a9fb:	90                   	nop

000000000040a9fc <_ZNSt8_Rb_treeINSt7__cxx1112basic_stringIcSt11char_traitsIcESaIcEEESt4pairIKS5_6SymbolESt10_Select1stIS9_ESt4lessIS5_ESaIS9_EE11lower_boundERS7_>:
  40a9fc:	55                   	push   %rbp
  40a9fd:	48 89 e5             	mov    %rsp,%rbp
  40aa00:	53                   	push   %rbx
  40aa01:	48 83 ec 18          	sub    $0x18,%rsp
  40aa05:	48 89 7d e8          	mov    %rdi,-0x18(%rbp)
  40aa09:	48 89 75 e0          	mov    %rsi,-0x20(%rbp)
  40aa0d:	48 8b 45 e8          	mov    -0x18(%rbp),%rax
  40aa11:	48 89 c7             	mov    %rax,%rdi
  40aa14:	e8 f9 06 00 00       	callq  40b112 <_ZNSt8_Rb_treeINSt7__cxx1112basic_stringIcSt11char_traitsIcESaIcEEESt4pairIKS5_6SymbolESt10_Select1stIS9_ESt4lessIS5_ESaIS9_EE6_M_endEv>
  40aa19:	48 89 c3             	mov    %rax,%rbx
  40aa1c:	48 8b 45 e8          	mov    -0x18(%rbp),%rax
  40aa20:	48 89 c7             	mov    %rax,%rdi
  40aa23:	e8 94 e1 ff ff       	callq  408bbc <_ZNSt8_Rb_treeINSt7__cxx1112basic_stringIcSt11char_traitsIcESaIcEEESt4pairIKS5_6SymbolESt10_Select1stIS9_ESt4lessIS5_ESaIS9_EE8_M_beginEv>
  40aa28:	48 89 c6             	mov    %rax,%rsi
  40aa2b:	48 8b 55 e0          	mov    -0x20(%rbp),%rdx
  40aa2f:	48 8b 45 e8          	mov    -0x18(%rbp),%rax
  40aa33:	48 89 d1             	mov    %rdx,%rcx
  40aa36:	48 89 da             	mov    %rbx,%rdx
  40aa39:	48 89 c7             	mov    %rax,%rdi
  40aa3c:	e8 e3 06 00 00       	callq  40b124 <_ZNSt8_Rb_treeINSt7__cxx1112basic_stringIcSt11char_traitsIcESaIcEEESt4pairIKS5_6SymbolESt10_Select1stIS9_ESt4lessIS5_ESaIS9_EE14_M_lower_boundEPSt13_Rb_tree_nodeIS9_EPSt18_Rb_tree_node_baseRS7_>
  40aa41:	48 83 c4 18          	add    $0x18,%rsp
  40aa45:	5b                   	pop    %rbx
  40aa46:	5d                   	pop    %rbp
  40aa47:	c3                   	retq   

000000000040aa48 <_ZNKSt8_Rb_treeINSt7__cxx1112basic_stringIcSt11char_traitsIcESaIcEEESt4pairIKS5_6SymbolESt10_Select1stIS9_ESt4lessIS5_ESaIS9_EE8key_compEv>:
  40aa48:	55                   	push   %rbp
  40aa49:	48 89 e5             	mov    %rsp,%rbp
  40aa4c:	48 89 7d f8          	mov    %rdi,-0x8(%rbp)
  40aa50:	5d                   	pop    %rbp
  40aa51:	c3                   	retq   

000000000040aa52 <_ZStltIcSt11char_traitsIcESaIcEEbRKNSt7__cxx1112basic_stringIT_T0_T1_EESA_>:
  40aa52:	55                   	push   %rbp
  40aa53:	48 89 e5             	mov    %rsp,%rbp
  40aa56:	48 83 ec 10          	sub    $0x10,%rsp
  40aa5a:	48 89 7d f8          	mov    %rdi,-0x8(%rbp)
  40aa5e:	48 89 75 f0          	mov    %rsi,-0x10(%rbp)
  40aa62:	48 8b 55 f0          	mov    -0x10(%rbp),%rdx
  40aa66:	48 8b 45 f8          	mov    -0x8(%rbp),%rax
  40aa6a:	48 89 d6             	mov    %rdx,%rsi
  40aa6d:	48 89 c7             	mov    %rax,%rdi
  40aa70:	e8 cb 85 ff ff       	callq  403040 <_ZNKSt7__cxx1112basic_stringIcSt11char_traitsIcESaIcEE7compareERKS4_@plt>
  40aa75:	c1 e8 1f             	shr    $0x1f,%eax
  40aa78:	c9                   	leaveq 
  40aa79:	c3                   	retq   

000000000040aa7a <_ZNSt11_Tuple_implILm0EJRKNSt7__cxx1112basic_stringIcSt11char_traitsIcESaIcEEEEEC1ES7_>:
  40aa7a:	55                   	push   %rbp
  40aa7b:	48 89 e5             	mov    %rsp,%rbp
  40aa7e:	48 83 ec 10          	sub    $0x10,%rsp
  40aa82:	48 89 7d f8          	mov    %rdi,-0x8(%rbp)
  40aa86:	48 89 75 f0          	mov    %rsi,-0x10(%rbp)
  40aa8a:	48 8b 45 f8          	mov    -0x8(%rbp),%rax
  40aa8e:	48 8b 55 f0          	mov    -0x10(%rbp),%rdx
  40aa92:	48 89 d6             	mov    %rdx,%rsi
  40aa95:	48 89 c7             	mov    %rax,%rdi
  40aa98:	e8 1d 07 00 00       	callq  40b1ba <_ZNSt10_Head_baseILm0ERKNSt7__cxx1112basic_stringIcSt11char_traitsIcESaIcEEELb0EEC1ES7_>
  40aa9d:	90                   	nop
  40aa9e:	c9                   	leaveq 
  40aa9f:	c3                   	retq   

000000000040aaa0 <_ZSt7forwardIRKSt21piecewise_construct_tEOT_RNSt16remove_referenceIS3_E4typeE>:
  40aaa0:	55                   	push   %rbp
  40aaa1:	48 89 e5             	mov    %rsp,%rbp
  40aaa4:	48 89 7d f8          	mov    %rdi,-0x8(%rbp)
  40aaa8:	48 8b 45 f8          	mov    -0x8(%rbp),%rax
  40aaac:	5d                   	pop    %rbp
  40aaad:	c3                   	retq   

000000000040aaae <_ZSt7forwardISt5tupleIJRKNSt7__cxx1112basic_stringIcSt11char_traitsIcESaIcEEEEEEOT_RNSt16remove_referenceISA_E4typeE>:
  40aaae:	55                   	push   %rbp
  40aaaf:	48 89 e5             	mov    %rsp,%rbp
  40aab2:	48 89 7d f8          	mov    %rdi,-0x8(%rbp)
  40aab6:	48 8b 45 f8          	mov    -0x8(%rbp),%rax
  40aaba:	5d                   	pop    %rbp
  40aabb:	c3                   	retq   

000000000040aabc <_ZSt7forwardISt5tupleIJEEEOT_RNSt16remove_referenceIS2_E4typeE>:
  40aabc:	55                   	push   %rbp
  40aabd:	48 89 e5             	mov    %rsp,%rbp
  40aac0:	48 89 7d f8          	mov    %rdi,-0x8(%rbp)
  40aac4:	48 8b 45 f8          	mov    -0x8(%rbp),%rax
  40aac8:	5d                   	pop    %rbp
  40aac9:	c3                   	retq   

000000000040aaca <_ZNSt8_Rb_treeINSt7__cxx1112basic_stringIcSt11char_traitsIcESaIcEEESt4pairIKS5_6SymbolESt10_Select1stIS9_ESt4lessIS5_ESaIS9_EE14_M_create_nodeIJRKSt21piecewise_construct_tSt5tupleIJRS7_EESK_IJEEEEEPSt13_Rb_tree_nodeIS9_EDpOT_>:
  40aaca:	55                   	push   %rbp
  40aacb:	48 89 e5             	mov    %rsp,%rbp
  40aace:	41 54                	push   %r12
  40aad0:	53                   	push   %rbx
  40aad1:	48 83 ec 30          	sub    $0x30,%rsp
  40aad5:	48 89 7d d8          	mov    %rdi,-0x28(%rbp)
  40aad9:	48 89 75 d0          	mov    %rsi,-0x30(%rbp)
  40aadd:	48 89 55 c8          	mov    %rdx,-0x38(%rbp)
  40aae1:	48 89 4d c0          	mov    %rcx,-0x40(%rbp)
  40aae5:	48 8b 45 d8          	mov    -0x28(%rbp),%rax
  40aae9:	48 89 c7             	mov    %rax,%rdi
  40aaec:	e8 e3 06 00 00       	callq  40b1d4 <_ZNSt8_Rb_treeINSt7__cxx1112basic_stringIcSt11char_traitsIcESaIcEEESt4pairIKS5_6SymbolESt10_Select1stIS9_ESt4lessIS5_ESaIS9_EE11_M_get_nodeEv>
  40aaf1:	48 89 45 e8          	mov    %rax,-0x18(%rbp)
  40aaf5:	48 8b 45 c0          	mov    -0x40(%rbp),%rax
  40aaf9:	48 89 c7             	mov    %rax,%rdi
  40aafc:	e8 bb ff ff ff       	callq  40aabc <_ZSt7forwardISt5tupleIJEEEOT_RNSt16remove_referenceIS2_E4typeE>
  40ab01:	49 89 c4             	mov    %rax,%r12
  40ab04:	48 8b 45 c8          	mov    -0x38(%rbp),%rax
  40ab08:	48 89 c7             	mov    %rax,%rdi
  40ab0b:	e8 9e ff ff ff       	callq  40aaae <_ZSt7forwardISt5tupleIJRKNSt7__cxx1112basic_stringIcSt11char_traitsIcESaIcEEEEEEOT_RNSt16remove_referenceISA_E4typeE>
  40ab10:	48 89 c3             	mov    %rax,%rbx
  40ab13:	48 8b 45 d0          	mov    -0x30(%rbp),%rax
  40ab17:	48 89 c7             	mov    %rax,%rdi
  40ab1a:	e8 81 ff ff ff       	callq  40aaa0 <_ZSt7forwardIRKSt21piecewise_construct_tEOT_RNSt16remove_referenceIS3_E4typeE>
  40ab1f:	48 89 c2             	mov    %rax,%rdx
  40ab22:	48 8b 75 e8          	mov    -0x18(%rbp),%rsi
  40ab26:	48 8b 45 d8          	mov    -0x28(%rbp),%rax
  40ab2a:	4d 89 e0             	mov    %r12,%r8
  40ab2d:	48 89 d9             	mov    %rbx,%rcx
  40ab30:	48 89 c7             	mov    %rax,%rdi
  40ab33:	e8 c4 06 00 00       	callq  40b1fc <_ZNSt8_Rb_treeINSt7__cxx1112basic_stringIcSt11char_traitsIcESaIcEEESt4pairIKS5_6SymbolESt10_Select1stIS9_ESt4lessIS5_ESaIS9_EE17_M_construct_nodeIJRKSt21piecewise_construct_tSt5tupleIJRS7_EESK_IJEEEEEvPSt13_Rb_tree_nodeIS9_EDpOT_>
  40ab38:	48 8b 45 e8          	mov    -0x18(%rbp),%rax
  40ab3c:	48 83 c4 30          	add    $0x30,%rsp
  40ab40:	5b                   	pop    %rbx
  40ab41:	41 5c                	pop    %r12
  40ab43:	5d                   	pop    %rbp
  40ab44:	c3                   	retq   
  40ab45:	90                   	nop

000000000040ab46 <_ZNSt8_Rb_treeINSt7__cxx1112basic_stringIcSt11char_traitsIcESaIcEEESt4pairIKS5_6SymbolESt10_Select1stIS9_ESt4lessIS5_ESaIS9_EE29_M_get_insert_hint_unique_posESt23_Rb_tree_const_iteratorIS9_ERS7_>:
  40ab46:	55                   	push   %rbp
  40ab47:	48 89 e5             	mov    %rsp,%rbp
  40ab4a:	53                   	push   %rbx
  40ab4b:	48 81 ec 18 01 00 00 	sub    $0x118,%rsp
  40ab52:	48 89 bd f8 fe ff ff 	mov    %rdi,-0x108(%rbp)
  40ab59:	48 89 b5 f0 fe ff ff 	mov    %rsi,-0x110(%rbp)
  40ab60:	48 89 95 e8 fe ff ff 	mov    %rdx,-0x118(%rbp)
  40ab67:	48 8d 85 f0 fe ff ff 	lea    -0x110(%rbp),%rax
  40ab6e:	48 89 c7             	mov    %rax,%rdi
  40ab71:	e8 58 07 00 00       	callq  40b2ce <_ZNKSt23_Rb_tree_const_iteratorISt4pairIKNSt7__cxx1112basic_stringIcSt11char_traitsIcESaIcEEE6SymbolEE13_M_const_castEv>
  40ab76:	48 89 85 18 ff ff ff 	mov    %rax,-0xe8(%rbp)
  40ab7d:	48 8b 9d 18 ff ff ff 	mov    -0xe8(%rbp),%rbx
  40ab84:	48 8b 85 f8 fe ff ff 	mov    -0x108(%rbp),%rax
  40ab8b:	48 89 c7             	mov    %rax,%rdi
  40ab8e:	e8 7f 05 00 00       	callq  40b112 <_ZNSt8_Rb_treeINSt7__cxx1112basic_stringIcSt11char_traitsIcESaIcEEESt4pairIKS5_6SymbolESt10_Select1stIS9_ESt4lessIS5_ESaIS9_EE6_M_endEv>
  40ab93:	48 39 c3             	cmp    %rax,%rbx
  40ab96:	0f 94 c0             	sete   %al
  40ab99:	84 c0                	test   %al,%al
  40ab9b:	0f 84 c8 00 00 00    	je     40ac69 <_ZNSt8_Rb_treeINSt7__cxx1112basic_stringIcSt11char_traitsIcESaIcEEESt4pairIKS5_6SymbolESt10_Select1stIS9_ESt4lessIS5_ESaIS9_EE29_M_get_insert_hint_unique_posESt23_Rb_tree_const_iteratorIS9_ERS7_+0x123>
  40aba1:	48 8b 85 f8 fe ff ff 	mov    -0x108(%rbp),%rax
  40aba8:	48 89 c7             	mov    %rax,%rdi
  40abab:	e8 46 07 00 00       	callq  40b2f6 <_ZNKSt8_Rb_treeINSt7__cxx1112basic_stringIcSt11char_traitsIcESaIcEEESt4pairIKS5_6SymbolESt10_Select1stIS9_ESt4lessIS5_ESaIS9_EE4sizeEv>
  40abb0:	48 85 c0             	test   %rax,%rax
  40abb3:	74 44                	je     40abf9 <_ZNSt8_Rb_treeINSt7__cxx1112basic_stringIcSt11char_traitsIcESaIcEEESt4pairIKS5_6SymbolESt10_Select1stIS9_ESt4lessIS5_ESaIS9_EE29_M_get_insert_hint_unique_posESt23_Rb_tree_const_iteratorIS9_ERS7_+0xb3>
  40abb5:	48 8b 9d f8 fe ff ff 	mov    -0x108(%rbp),%rbx
  40abbc:	48 8b 85 f8 fe ff ff 	mov    -0x108(%rbp),%rax
  40abc3:	48 89 c7             	mov    %rax,%rdi
  40abc6:	e8 3d 07 00 00       	callq  40b308 <_ZNSt8_Rb_treeINSt7__cxx1112basic_stringIcSt11char_traitsIcESaIcEEESt4pairIKS5_6SymbolESt10_Select1stIS9_ESt4lessIS5_ESaIS9_EE12_M_rightmostEv>
  40abcb:	48 8b 00             	mov    (%rax),%rax
  40abce:	48 89 c7             	mov    %rax,%rdi
  40abd1:	e8 44 07 00 00       	callq  40b31a <_ZNSt8_Rb_treeINSt7__cxx1112basic_stringIcSt11char_traitsIcESaIcEEESt4pairIKS5_6SymbolESt10_Select1stIS9_ESt4lessIS5_ESaIS9_EE6_S_keyEPKSt18_Rb_tree_node_base>
  40abd6:	48 89 c1             	mov    %rax,%rcx
  40abd9:	48 8b 85 e8 fe ff ff 	mov    -0x118(%rbp),%rax
  40abe0:	48 89 c2             	mov    %rax,%rdx
  40abe3:	48 89 ce             	mov    %rcx,%rsi
  40abe6:	48 89 df             	mov    %rbx,%rdi
  40abe9:	e8 a6 f9 ff ff       	callq  40a594 <_ZNKSt4lessINSt7__cxx1112basic_stringIcSt11char_traitsIcESaIcEEEEclERKS5_S8_>
  40abee:	84 c0                	test   %al,%al
  40abf0:	74 07                	je     40abf9 <_ZNSt8_Rb_treeINSt7__cxx1112basic_stringIcSt11char_traitsIcESaIcEEESt4pairIKS5_6SymbolESt10_Select1stIS9_ESt4lessIS5_ESaIS9_EE29_M_get_insert_hint_unique_posESt23_Rb_tree_const_iteratorIS9_ERS7_+0xb3>
  40abf2:	b8 01 00 00 00       	mov    $0x1,%eax
  40abf7:	eb 05                	jmp    40abfe <_ZNSt8_Rb_treeINSt7__cxx1112basic_stringIcSt11char_traitsIcESaIcEEESt4pairIKS5_6SymbolESt10_Select1stIS9_ESt4lessIS5_ESaIS9_EE29_M_get_insert_hint_unique_posESt23_Rb_tree_const_iteratorIS9_ERS7_+0xb8>
  40abf9:	b8 00 00 00 00       	mov    $0x0,%eax
  40abfe:	84 c0                	test   %al,%al
  40ac00:	74 49                	je     40ac4b <_ZNSt8_Rb_treeINSt7__cxx1112basic_stringIcSt11char_traitsIcESaIcEEESt4pairIKS5_6SymbolESt10_Select1stIS9_ESt4lessIS5_ESaIS9_EE29_M_get_insert_hint_unique_posESt23_Rb_tree_const_iteratorIS9_ERS7_+0x105>
  40ac02:	48 8b 85 f8 fe ff ff 	mov    -0x108(%rbp),%rax
  40ac09:	48 89 c7             	mov    %rax,%rdi
  40ac0c:	e8 f7 06 00 00       	callq  40b308 <_ZNSt8_Rb_treeINSt7__cxx1112basic_stringIcSt11char_traitsIcESaIcEEESt4pairIKS5_6SymbolESt10_Select1stIS9_ESt4lessIS5_ESaIS9_EE12_M_rightmostEv>
  40ac11:	48 89 c2             	mov    %rax,%rdx
  40ac14:	48 c7 85 38 ff ff ff 	movq   $0x0,-0xc8(%rbp)
  40ac1b:	00 00 00 00 
  40ac1f:	48 8d 8d 38 ff ff ff 	lea    -0xc8(%rbp),%rcx
  40ac26:	48 8d 85 20 ff ff ff 	lea    -0xe0(%rbp),%rax
  40ac2d:	48 89 ce             	mov    %rcx,%rsi
  40ac30:	48 89 c7             	mov    %rax,%rdi
  40ac33:	e8 fc 06 00 00       	callq  40b334 <_ZNSt4pairIPSt18_Rb_tree_node_baseS1_EC1IRS1_Lb1EEERKS1_OT_>
  40ac38:	48 8b 85 20 ff ff ff 	mov    -0xe0(%rbp),%rax
  40ac3f:	48 8b 95 28 ff ff ff 	mov    -0xd8(%rbp),%rdx
  40ac46:	e9 43 03 00 00       	jmpq   40af8e <_ZNSt8_Rb_treeINSt7__cxx1112basic_stringIcSt11char_traitsIcESaIcEEESt4pairIKS5_6SymbolESt10_Select1stIS9_ESt4lessIS5_ESaIS9_EE29_M_get_insert_hint_unique_posESt23_Rb_tree_const_iteratorIS9_ERS7_+0x448>
  40ac4b:	48 8b 95 e8 fe ff ff 	mov    -0x118(%rbp),%rdx
  40ac52:	48 8b 85 f8 fe ff ff 	mov    -0x108(%rbp),%rax
  40ac59:	48 89 d6             	mov    %rdx,%rsi
  40ac5c:	48 89 c7             	mov    %rax,%rdi
  40ac5f:	e8 0c 07 00 00       	callq  40b370 <_ZNSt8_Rb_treeINSt7__cxx1112basic_stringIcSt11char_traitsIcESaIcEEESt4pairIKS5_6SymbolESt10_Select1stIS9_ESt4lessIS5_ESaIS9_EE24_M_get_insert_unique_posERS7_>
  40ac64:	e9 25 03 00 00       	jmpq   40af8e <_ZNSt8_Rb_treeINSt7__cxx1112basic_stringIcSt11char_traitsIcESaIcEEESt4pairIKS5_6SymbolESt10_Select1stIS9_ESt4lessIS5_ESaIS9_EE29_M_get_insert_hint_unique_posESt23_Rb_tree_const_iteratorIS9_ERS7_+0x448>
  40ac69:	48 8b 9d f8 fe ff ff 	mov    -0x108(%rbp),%rbx
  40ac70:	48 8b 85 18 ff ff ff 	mov    -0xe8(%rbp),%rax
  40ac77:	48 89 c7             	mov    %rax,%rdi
  40ac7a:	e8 9b 06 00 00       	callq  40b31a <_ZNSt8_Rb_treeINSt7__cxx1112basic_stringIcSt11char_traitsIcESaIcEEESt4pairIKS5_6SymbolESt10_Select1stIS9_ESt4lessIS5_ESaIS9_EE6_S_keyEPKSt18_Rb_tree_node_base>
  40ac7f:	48 89 c2             	mov    %rax,%rdx
  40ac82:	48 8b 85 e8 fe ff ff 	mov    -0x118(%rbp),%rax
  40ac89:	48 89 c6             	mov    %rax,%rsi
  40ac8c:	48 89 df             	mov    %rbx,%rdi
  40ac8f:	e8 00 f9 ff ff       	callq  40a594 <_ZNKSt4lessINSt7__cxx1112basic_stringIcSt11char_traitsIcESaIcEEEEclERKS5_S8_>
  40ac94:	84 c0                	test   %al,%al
  40ac96:	0f 84 66 01 00 00    	je     40ae02 <_ZNSt8_Rb_treeINSt7__cxx1112basic_stringIcSt11char_traitsIcESaIcEEESt4pairIKS5_6SymbolESt10_Select1stIS9_ESt4lessIS5_ESaIS9_EE29_M_get_insert_hint_unique_posESt23_Rb_tree_const_iteratorIS9_ERS7_+0x2bc>
  40ac9c:	48 8b 85 18 ff ff ff 	mov    -0xe8(%rbp),%rax
  40aca3:	48 89 85 10 ff ff ff 	mov    %rax,-0xf0(%rbp)
  40acaa:	48 8b 9d 18 ff ff ff 	mov    -0xe8(%rbp),%rbx
  40acb1:	48 8b 85 f8 fe ff ff 	mov    -0x108(%rbp),%rax
  40acb8:	48 89 c7             	mov    %rax,%rdi
  40acbb:	e8 26 08 00 00       	callq  40b4e6 <_ZNSt8_Rb_treeINSt7__cxx1112basic_stringIcSt11char_traitsIcESaIcEEESt4pairIKS5_6SymbolESt10_Select1stIS9_ESt4lessIS5_ESaIS9_EE11_M_leftmostEv>
  40acc0:	48 8b 00             	mov    (%rax),%rax
  40acc3:	48 39 c3             	cmp    %rax,%rbx
  40acc6:	0f 94 c0             	sete   %al
  40acc9:	84 c0                	test   %al,%al
  40accb:	74 4c                	je     40ad19 <_ZNSt8_Rb_treeINSt7__cxx1112basic_stringIcSt11char_traitsIcESaIcEEESt4pairIKS5_6SymbolESt10_Select1stIS9_ESt4lessIS5_ESaIS9_EE29_M_get_insert_hint_unique_posESt23_Rb_tree_const_iteratorIS9_ERS7_+0x1d3>
  40accd:	48 8b 85 f8 fe ff ff 	mov    -0x108(%rbp),%rax
  40acd4:	48 89 c7             	mov    %rax,%rdi
  40acd7:	e8 0a 08 00 00       	callq  40b4e6 <_ZNSt8_Rb_treeINSt7__cxx1112basic_stringIcSt11char_traitsIcESaIcEEESt4pairIKS5_6SymbolESt10_Select1stIS9_ESt4lessIS5_ESaIS9_EE11_M_leftmostEv>
  40acdc:	48 89 c3             	mov    %rax,%rbx
  40acdf:	48 8b 85 f8 fe ff ff 	mov    -0x108(%rbp),%rax
  40ace6:	48 89 c7             	mov    %rax,%rdi
  40ace9:	e8 f8 07 00 00       	callq  40b4e6 <_ZNSt8_Rb_treeINSt7__cxx1112basic_stringIcSt11char_traitsIcESaIcEEESt4pairIKS5_6SymbolESt10_Select1stIS9_ESt4lessIS5_ESaIS9_EE11_M_leftmostEv>
  40acee:	48 89 c1             	mov    %rax,%rcx
  40acf1:	48 8d 85 40 ff ff ff 	lea    -0xc0(%rbp),%rax
  40acf8:	48 89 da             	mov    %rbx,%rdx
  40acfb:	48 89 ce             	mov    %rcx,%rsi
  40acfe:	48 89 c7             	mov    %rax,%rdi
  40ad01:	e8 f2 07 00 00       	callq  40b4f8 <_ZNSt4pairIPSt18_Rb_tree_node_baseS1_EC1IRS1_S4_Lb1EEEOT_OT0_>
  40ad06:	48 8b 85 40 ff ff ff 	mov    -0xc0(%rbp),%rax
  40ad0d:	48 8b 95 48 ff ff ff 	mov    -0xb8(%rbp),%rdx
  40ad14:	e9 75 02 00 00       	jmpq   40af8e <_ZNSt8_Rb_treeINSt7__cxx1112basic_stringIcSt11char_traitsIcESaIcEEESt4pairIKS5_6SymbolESt10_Select1stIS9_ESt4lessIS5_ESaIS9_EE29_M_get_insert_hint_unique_posESt23_Rb_tree_const_iteratorIS9_ERS7_+0x448>
  40ad19:	48 8b 9d f8 fe ff ff 	mov    -0x108(%rbp),%rbx
  40ad20:	48 8d 85 10 ff ff ff 	lea    -0xf0(%rbp),%rax
  40ad27:	48 89 c7             	mov    %rax,%rdi
  40ad2a:	e8 0d 08 00 00       	callq  40b53c <_ZNSt17_Rb_tree_iteratorISt4pairIKNSt7__cxx1112basic_stringIcSt11char_traitsIcESaIcEEE6SymbolEEmmEv>
  40ad2f:	48 8b 00             	mov    (%rax),%rax
  40ad32:	48 89 c7             	mov    %rax,%rdi
  40ad35:	e8 e0 05 00 00       	callq  40b31a <_ZNSt8_Rb_treeINSt7__cxx1112basic_stringIcSt11char_traitsIcESaIcEEESt4pairIKS5_6SymbolESt10_Select1stIS9_ESt4lessIS5_ESaIS9_EE6_S_keyEPKSt18_Rb_tree_node_base>
  40ad3a:	48 89 c1             	mov    %rax,%rcx
  40ad3d:	48 8b 85 e8 fe ff ff 	mov    -0x118(%rbp),%rax
  40ad44:	48 89 c2             	mov    %rax,%rdx
  40ad47:	48 89 ce             	mov    %rcx,%rsi
  40ad4a:	48 89 df             	mov    %rbx,%rdi
  40ad4d:	e8 42 f8 ff ff       	callq  40a594 <_ZNKSt4lessINSt7__cxx1112basic_stringIcSt11char_traitsIcESaIcEEEEclERKS5_S8_>
  40ad52:	84 c0                	test   %al,%al
  40ad54:	0f 84 8a 00 00 00    	je     40ade4 <_ZNSt8_Rb_treeINSt7__cxx1112basic_stringIcSt11char_traitsIcESaIcEEESt4pairIKS5_6SymbolESt10_Select1stIS9_ESt4lessIS5_ESaIS9_EE29_M_get_insert_hint_unique_posESt23_Rb_tree_const_iteratorIS9_ERS7_+0x29e>
  40ad5a:	48 8b 85 10 ff ff ff 	mov    -0xf0(%rbp),%rax
  40ad61:	48 89 c7             	mov    %rax,%rdi
  40ad64:	e8 70 de ff ff       	callq  408bd9 <_ZNSt8_Rb_treeINSt7__cxx1112basic_stringIcSt11char_traitsIcESaIcEEESt4pairIKS5_6SymbolESt10_Select1stIS9_ESt4lessIS5_ESaIS9_EE8_S_rightEPSt18_Rb_tree_node_base>
  40ad69:	48 85 c0             	test   %rax,%rax
  40ad6c:	0f 94 c0             	sete   %al
  40ad6f:	84 c0                	test   %al,%al
  40ad71:	74 3e                	je     40adb1 <_ZNSt8_Rb_treeINSt7__cxx1112basic_stringIcSt11char_traitsIcESaIcEEESt4pairIKS5_6SymbolESt10_Select1stIS9_ESt4lessIS5_ESaIS9_EE29_M_get_insert_hint_unique_posESt23_Rb_tree_const_iteratorIS9_ERS7_+0x26b>
  40ad73:	48 c7 85 68 ff ff ff 	movq   $0x0,-0x98(%rbp)
  40ad7a:	00 00 00 00 
  40ad7e:	48 8d 95 10 ff ff ff 	lea    -0xf0(%rbp),%rdx
  40ad85:	48 8d 8d 68 ff ff ff 	lea    -0x98(%rbp),%rcx
  40ad8c:	48 8d 85 50 ff ff ff 	lea    -0xb0(%rbp),%rax
  40ad93:	48 89 ce             	mov    %rcx,%rsi
  40ad96:	48 89 c7             	mov    %rax,%rdi
  40ad99:	e8 96 05 00 00       	callq  40b334 <_ZNSt4pairIPSt18_Rb_tree_node_baseS1_EC1IRS1_Lb1EEERKS1_OT_>
  40ad9e:	48 8b 85 50 ff ff ff 	mov    -0xb0(%rbp),%rax
  40ada5:	48 8b 95 58 ff ff ff 	mov    -0xa8(%rbp),%rdx
  40adac:	e9 dd 01 00 00       	jmpq   40af8e <_ZNSt8_Rb_treeINSt7__cxx1112basic_stringIcSt11char_traitsIcESaIcEEESt4pairIKS5_6SymbolESt10_Select1stIS9_ESt4lessIS5_ESaIS9_EE29_M_get_insert_hint_unique_posESt23_Rb_tree_const_iteratorIS9_ERS7_+0x448>
  40adb1:	48 8d 95 18 ff ff ff 	lea    -0xe8(%rbp),%rdx
  40adb8:	48 8d 8d 18 ff ff ff 	lea    -0xe8(%rbp),%rcx
  40adbf:	48 8d 85 70 ff ff ff 	lea    -0x90(%rbp),%rax
  40adc6:	48 89 ce             	mov    %rcx,%rsi
  40adc9:	48 89 c7             	mov    %rax,%rdi
  40adcc:	e8 27 07 00 00       	callq  40b4f8 <_ZNSt4pairIPSt18_Rb_tree_node_baseS1_EC1IRS1_S4_Lb1EEEOT_OT0_>
  40add1:	48 8b 85 70 ff ff ff 	mov    -0x90(%rbp),%rax
  40add8:	48 8b 95 78 ff ff ff 	mov    -0x88(%rbp),%rdx
  40addf:	e9 aa 01 00 00       	jmpq   40af8e <_ZNSt8_Rb_treeINSt7__cxx1112basic_stringIcSt11char_traitsIcESaIcEEESt4pairIKS5_6SymbolESt10_Select1stIS9_ESt4lessIS5_ESaIS9_EE29_M_get_insert_hint_unique_posESt23_Rb_tree_const_iteratorIS9_ERS7_+0x448>
  40ade4:	48 8b 95 e8 fe ff ff 	mov    -0x118(%rbp),%rdx
  40adeb:	48 8b 85 f8 fe ff ff 	mov    -0x108(%rbp),%rax
  40adf2:	48 89 d6             	mov    %rdx,%rsi
  40adf5:	48 89 c7             	mov    %rax,%rdi
  40adf8:	e8 73 05 00 00       	callq  40b370 <_ZNSt8_Rb_treeINSt7__cxx1112basic_stringIcSt11char_traitsIcESaIcEEESt4pairIKS5_6SymbolESt10_Select1stIS9_ESt4lessIS5_ESaIS9_EE24_M_get_insert_unique_posERS7_>
  40adfd:	e9 8c 01 00 00       	jmpq   40af8e <_ZNSt8_Rb_treeINSt7__cxx1112basic_stringIcSt11char_traitsIcESaIcEEESt4pairIKS5_6SymbolESt10_Select1stIS9_ESt4lessIS5_ESaIS9_EE29_M_get_insert_hint_unique_posESt23_Rb_tree_const_iteratorIS9_ERS7_+0x448>
  40ae02:	48 8b 9d f8 fe ff ff 	mov    -0x108(%rbp),%rbx
  40ae09:	48 8b 85 18 ff ff ff 	mov    -0xe8(%rbp),%rax
  40ae10:	48 89 c7             	mov    %rax,%rdi
  40ae13:	e8 02 05 00 00       	callq  40b31a <_ZNSt8_Rb_treeINSt7__cxx1112basic_stringIcSt11char_traitsIcESaIcEEESt4pairIKS5_6SymbolESt10_Select1stIS9_ESt4lessIS5_ESaIS9_EE6_S_keyEPKSt18_Rb_tree_node_base>
  40ae18:	48 89 c1             	mov    %rax,%rcx
  40ae1b:	48 8b 85 e8 fe ff ff 	mov    -0x118(%rbp),%rax
  40ae22:	48 89 c2             	mov    %rax,%rdx
  40ae25:	48 89 ce             	mov    %rcx,%rsi
  40ae28:	48 89 df             	mov    %rbx,%rdi
  40ae2b:	e8 64 f7 ff ff       	callq  40a594 <_ZNKSt4lessINSt7__cxx1112basic_stringIcSt11char_traitsIcESaIcEEEEclERKS5_S8_>
  40ae30:	84 c0                	test   %al,%al
  40ae32:	0f 84 2c 01 00 00    	je     40af64 <_ZNSt8_Rb_treeINSt7__cxx1112basic_stringIcSt11char_traitsIcESaIcEEESt4pairIKS5_6SymbolESt10_Select1stIS9_ESt4lessIS5_ESaIS9_EE29_M_get_insert_hint_unique_posESt23_Rb_tree_const_iteratorIS9_ERS7_+0x41e>
  40ae38:	48 8b 85 18 ff ff ff 	mov    -0xe8(%rbp),%rax
  40ae3f:	48 89 85 08 ff ff ff 	mov    %rax,-0xf8(%rbp)
  40ae46:	48 8b 9d 18 ff ff ff 	mov    -0xe8(%rbp),%rbx
  40ae4d:	48 8b 85 f8 fe ff ff 	mov    -0x108(%rbp),%rax
  40ae54:	48 89 c7             	mov    %rax,%rdi
  40ae57:	e8 ac 04 00 00       	callq  40b308 <_ZNSt8_Rb_treeINSt7__cxx1112basic_stringIcSt11char_traitsIcESaIcEEESt4pairIKS5_6SymbolESt10_Select1stIS9_ESt4lessIS5_ESaIS9_EE12_M_rightmostEv>
  40ae5c:	48 8b 00             	mov    (%rax),%rax
  40ae5f:	48 39 c3             	cmp    %rax,%rbx
  40ae62:	0f 94 c0             	sete   %al
  40ae65:	84 c0                	test   %al,%al
  40ae67:	74 3a                	je     40aea3 <_ZNSt8_Rb_treeINSt7__cxx1112basic_stringIcSt11char_traitsIcESaIcEEESt4pairIKS5_6SymbolESt10_Select1stIS9_ESt4lessIS5_ESaIS9_EE29_M_get_insert_hint_unique_posESt23_Rb_tree_const_iteratorIS9_ERS7_+0x35d>
  40ae69:	48 8b 85 f8 fe ff ff 	mov    -0x108(%rbp),%rax
  40ae70:	48 89 c7             	mov    %rax,%rdi
  40ae73:	e8 90 04 00 00       	callq  40b308 <_ZNSt8_Rb_treeINSt7__cxx1112basic_stringIcSt11char_traitsIcESaIcEEESt4pairIKS5_6SymbolESt10_Select1stIS9_ESt4lessIS5_ESaIS9_EE12_M_rightmostEv>
  40ae78:	48 89 c2             	mov    %rax,%rdx
  40ae7b:	48 c7 45 98 00 00 00 	movq   $0x0,-0x68(%rbp)
  40ae82:	00 
  40ae83:	48 8d 4d 98          	lea    -0x68(%rbp),%rcx
  40ae87:	48 8d 45 80          	lea    -0x80(%rbp),%rax
  40ae8b:	48 89 ce             	mov    %rcx,%rsi
  40ae8e:	48 89 c7             	mov    %rax,%rdi
  40ae91:	e8 9e 04 00 00       	callq  40b334 <_ZNSt4pairIPSt18_Rb_tree_node_baseS1_EC1IRS1_Lb1EEERKS1_OT_>
  40ae96:	48 8b 45 80          	mov    -0x80(%rbp),%rax
  40ae9a:	48 8b 55 88          	mov    -0x78(%rbp),%rdx
  40ae9e:	e9 eb 00 00 00       	jmpq   40af8e <_ZNSt8_Rb_treeINSt7__cxx1112basic_stringIcSt11char_traitsIcESaIcEEESt4pairIKS5_6SymbolESt10_Select1stIS9_ESt4lessIS5_ESaIS9_EE29_M_get_insert_hint_unique_posESt23_Rb_tree_const_iteratorIS9_ERS7_+0x448>
  40aea3:	48 8b 9d f8 fe ff ff 	mov    -0x108(%rbp),%rbx
  40aeaa:	48 8d 85 08 ff ff ff 	lea    -0xf8(%rbp),%rax
  40aeb1:	48 89 c7             	mov    %rax,%rdi
  40aeb4:	e8 ff f5 ff ff       	callq  40a4b8 <_ZNSt17_Rb_tree_iteratorISt4pairIKNSt7__cxx1112basic_stringIcSt11char_traitsIcESaIcEEE6SymbolEEppEv>
  40aeb9:	48 8b 00             	mov    (%rax),%rax
  40aebc:	48 89 c7             	mov    %rax,%rdi
  40aebf:	e8 56 04 00 00       	callq  40b31a <_ZNSt8_Rb_treeINSt7__cxx1112basic_stringIcSt11char_traitsIcESaIcEEESt4pairIKS5_6SymbolESt10_Select1stIS9_ESt4lessIS5_ESaIS9_EE6_S_keyEPKSt18_Rb_tree_node_base>
  40aec4:	48 89 c2             	mov    %rax,%rdx
  40aec7:	48 8b 85 e8 fe ff ff 	mov    -0x118(%rbp),%rax
  40aece:	48 89 c6             	mov    %rax,%rsi
  40aed1:	48 89 df             	mov    %rbx,%rdi
  40aed4:	e8 bb f6 ff ff       	callq  40a594 <_ZNKSt4lessINSt7__cxx1112basic_stringIcSt11char_traitsIcESaIcEEEEclERKS5_S8_>
  40aed9:	84 c0                	test   %al,%al
  40aedb:	74 6c                	je     40af49 <_ZNSt8_Rb_treeINSt7__cxx1112basic_stringIcSt11char_traitsIcESaIcEEESt4pairIKS5_6SymbolESt10_Select1stIS9_ESt4lessIS5_ESaIS9_EE29_M_get_insert_hint_unique_posESt23_Rb_tree_const_iteratorIS9_ERS7_+0x403>
  40aedd:	48 8b 85 18 ff ff ff 	mov    -0xe8(%rbp),%rax
  40aee4:	48 89 c7             	mov    %rax,%rdi
  40aee7:	e8 ed dc ff ff       	callq  408bd9 <_ZNSt8_Rb_treeINSt7__cxx1112basic_stringIcSt11char_traitsIcESaIcEEESt4pairIKS5_6SymbolESt10_Select1stIS9_ESt4lessIS5_ESaIS9_EE8_S_rightEPSt18_Rb_tree_node_base>
  40aeec:	48 85 c0             	test   %rax,%rax
  40aeef:	0f 94 c0             	sete   %al
  40aef2:	84 c0                	test   %al,%al
  40aef4:	74 2c                	je     40af22 <_ZNSt8_Rb_treeINSt7__cxx1112basic_stringIcSt11char_traitsIcESaIcEEESt4pairIKS5_6SymbolESt10_Select1stIS9_ESt4lessIS5_ESaIS9_EE29_M_get_insert_hint_unique_posESt23_Rb_tree_const_iteratorIS9_ERS7_+0x3dc>
  40aef6:	48 c7 45 b8 00 00 00 	movq   $0x0,-0x48(%rbp)
  40aefd:	00 
  40aefe:	48 8d 95 18 ff ff ff 	lea    -0xe8(%rbp),%rdx
  40af05:	48 8d 4d b8          	lea    -0x48(%rbp),%rcx
  40af09:	48 8d 45 a0          	lea    -0x60(%rbp),%rax
  40af0d:	48 89 ce             	mov    %rcx,%rsi
  40af10:	48 89 c7             	mov    %rax,%rdi
  40af13:	e8 1c 04 00 00       	callq  40b334 <_ZNSt4pairIPSt18_Rb_tree_node_baseS1_EC1IRS1_Lb1EEERKS1_OT_>
  40af18:	48 8b 45 a0          	mov    -0x60(%rbp),%rax
  40af1c:	48 8b 55 a8          	mov    -0x58(%rbp),%rdx
  40af20:	eb 6c                	jmp    40af8e <_ZNSt8_Rb_treeINSt7__cxx1112basic_stringIcSt11char_traitsIcESaIcEEESt4pairIKS5_6SymbolESt10_Select1stIS9_ESt4lessIS5_ESaIS9_EE29_M_get_insert_hint_unique_posESt23_Rb_tree_const_iteratorIS9_ERS7_+0x448>
  40af22:	48 8d 95 08 ff ff ff 	lea    -0xf8(%rbp),%rdx
  40af29:	48 8d 8d 08 ff ff ff 	lea    -0xf8(%rbp),%rcx
  40af30:	48 8d 45 c0          	lea    -0x40(%rbp),%rax
  40af34:	48 89 ce             	mov    %rcx,%rsi
  40af37:	48 89 c7             	mov    %rax,%rdi
  40af3a:	e8 b9 05 00 00       	callq  40b4f8 <_ZNSt4pairIPSt18_Rb_tree_node_baseS1_EC1IRS1_S4_Lb1EEEOT_OT0_>
  40af3f:	48 8b 45 c0          	mov    -0x40(%rbp),%rax
  40af43:	48 8b 55 c8          	mov    -0x38(%rbp),%rdx
  40af47:	eb 45                	jmp    40af8e <_ZNSt8_Rb_treeINSt7__cxx1112basic_stringIcSt11char_traitsIcESaIcEEESt4pairIKS5_6SymbolESt10_Select1stIS9_ESt4lessIS5_ESaIS9_EE29_M_get_insert_hint_unique_posESt23_Rb_tree_const_iteratorIS9_ERS7_+0x448>
  40af49:	48 8b 95 e8 fe ff ff 	mov    -0x118(%rbp),%rdx
  40af50:	48 8b 85 f8 fe ff ff 	mov    -0x108(%rbp),%rax
  40af57:	48 89 d6             	mov    %rdx,%rsi
  40af5a:	48 89 c7             	mov    %rax,%rdi
  40af5d:	e8 0e 04 00 00       	callq  40b370 <_ZNSt8_Rb_treeINSt7__cxx1112basic_stringIcSt11char_traitsIcESaIcEEESt4pairIKS5_6SymbolESt10_Select1stIS9_ESt4lessIS5_ESaIS9_EE24_M_get_insert_unique_posERS7_>
  40af62:	eb 2a                	jmp    40af8e <_ZNSt8_Rb_treeINSt7__cxx1112basic_stringIcSt11char_traitsIcESaIcEEESt4pairIKS5_6SymbolESt10_Select1stIS9_ESt4lessIS5_ESaIS9_EE29_M_get_insert_hint_unique_posESt23_Rb_tree_const_iteratorIS9_ERS7_+0x448>
  40af64:	48 c7 45 e8 00 00 00 	movq   $0x0,-0x18(%rbp)
  40af6b:	00 
  40af6c:	48 8d 55 e8          	lea    -0x18(%rbp),%rdx
  40af70:	48 8d 8d 18 ff ff ff 	lea    -0xe8(%rbp),%rcx
  40af77:	48 8d 45 d0          	lea    -0x30(%rbp),%rax
  40af7b:	48 89 ce             	mov    %rcx,%rsi
  40af7e:	48 89 c7             	mov    %rax,%rdi
  40af81:	e8 e2 05 00 00       	callq  40b568 <_ZNSt4pairIPSt18_Rb_tree_node_baseS1_EC1IRS1_Lb1EEEOT_RKS1_>
  40af86:	48 8b 45 d0          	mov    -0x30(%rbp),%rax
  40af8a:	48 8b 55 d8          	mov    -0x28(%rbp),%rdx
  40af8e:	48 81 c4 18 01 00 00 	add    $0x118,%rsp
  40af95:	5b                   	pop    %rbx
  40af96:	5d                   	pop    %rbp
  40af97:	c3                   	retq   

000000000040af98 <_ZNSt8_Rb_treeINSt7__cxx1112basic_stringIcSt11char_traitsIcESaIcEEESt4pairIKS5_6SymbolESt10_Select1stIS9_ESt4lessIS5_ESaIS9_EE6_S_keyEPKSt13_Rb_tree_nodeIS9_E>:
  40af98:	55                   	push   %rbp
  40af99:	48 89 e5             	mov    %rsp,%rbp
  40af9c:	48 83 ec 20          	sub    $0x20,%rsp
  40afa0:	48 89 7d e8          	mov    %rdi,-0x18(%rbp)
  40afa4:	48 8b 45 e8          	mov    -0x18(%rbp),%rax
  40afa8:	48 89 c7             	mov    %rax,%rdi
  40afab:	e8 f4 05 00 00       	callq  40b5a4 <_ZNKSt13_Rb_tree_nodeISt4pairIKNSt7__cxx1112basic_stringIcSt11char_traitsIcESaIcEEE6SymbolEE9_M_valptrEv>
  40afb0:	48 89 c2             	mov    %rax,%rdx
  40afb3:	48 8d 45 ff          	lea    -0x1(%rbp),%rax
  40afb7:	48 89 d6             	mov    %rdx,%rsi
  40afba:	48 89 c7             	mov    %rax,%rdi
  40afbd:	e8 00 06 00 00       	callq  40b5c2 <_ZNKSt10_Select1stISt4pairIKNSt7__cxx1112basic_stringIcSt11char_traitsIcESaIcEEE6SymbolEEclERKS9_>
  40afc2:	90                   	nop
  40afc3:	c9                   	leaveq 
  40afc4:	c3                   	retq   
  40afc5:	90                   	nop

000000000040afc6 <_ZNSt8_Rb_treeINSt7__cxx1112basic_stringIcSt11char_traitsIcESaIcEEESt4pairIKS5_6SymbolESt10_Select1stIS9_ESt4lessIS5_ESaIS9_EE14_M_insert_nodeEPSt18_Rb_tree_node_baseSH_PSt13_Rb_tree_nodeIS9_E>:
  40afc6:	55                   	push   %rbp
  40afc7:	48 89 e5             	mov    %rsp,%rbp
  40afca:	41 54                	push   %r12
  40afcc:	53                   	push   %rbx
  40afcd:	48 83 ec 30          	sub    $0x30,%rsp
  40afd1:	48 89 7d d8          	mov    %rdi,-0x28(%rbp)
  40afd5:	48 89 75 d0          	mov    %rsi,-0x30(%rbp)
  40afd9:	48 89 55 c8          	mov    %rdx,-0x38(%rbp)
  40afdd:	48 89 4d c0          	mov    %rcx,-0x40(%rbp)
  40afe1:	48 83 7d d0 00       	cmpq   $0x0,-0x30(%rbp)
  40afe6:	75 43                	jne    40b02b <_ZNSt8_Rb_treeINSt7__cxx1112basic_stringIcSt11char_traitsIcESaIcEEESt4pairIKS5_6SymbolESt10_Select1stIS9_ESt4lessIS5_ESaIS9_EE14_M_insert_nodeEPSt18_Rb_tree_node_baseSH_PSt13_Rb_tree_nodeIS9_E+0x65>
  40afe8:	48 8b 45 d8          	mov    -0x28(%rbp),%rax
  40afec:	48 89 c7             	mov    %rax,%rdi
  40afef:	e8 1e 01 00 00       	callq  40b112 <_ZNSt8_Rb_treeINSt7__cxx1112basic_stringIcSt11char_traitsIcESaIcEEESt4pairIKS5_6SymbolESt10_Select1stIS9_ESt4lessIS5_ESaIS9_EE6_M_endEv>
  40aff4:	48 39 45 c8          	cmp    %rax,-0x38(%rbp)
  40aff8:	74 31                	je     40b02b <_ZNSt8_Rb_treeINSt7__cxx1112basic_stringIcSt11char_traitsIcESaIcEEESt4pairIKS5_6SymbolESt10_Select1stIS9_ESt4lessIS5_ESaIS9_EE14_M_insert_nodeEPSt18_Rb_tree_node_baseSH_PSt13_Rb_tree_nodeIS9_E+0x65>
  40affa:	48 8b 5d d8          	mov    -0x28(%rbp),%rbx
  40affe:	48 8b 45 c8          	mov    -0x38(%rbp),%rax
  40b002:	48 89 c7             	mov    %rax,%rdi
  40b005:	e8 10 03 00 00       	callq  40b31a <_ZNSt8_Rb_treeINSt7__cxx1112basic_stringIcSt11char_traitsIcESaIcEEESt4pairIKS5_6SymbolESt10_Select1stIS9_ESt4lessIS5_ESaIS9_EE6_S_keyEPKSt18_Rb_tree_node_base>
  40b00a:	49 89 c4             	mov    %rax,%r12
  40b00d:	48 8b 45 c0          	mov    -0x40(%rbp),%rax
  40b011:	48 89 c7             	mov    %rax,%rdi
  40b014:	e8 7f ff ff ff       	callq  40af98 <_ZNSt8_Rb_treeINSt7__cxx1112basic_stringIcSt11char_traitsIcESaIcEEESt4pairIKS5_6SymbolESt10_Select1stIS9_ESt4lessIS5_ESaIS9_EE6_S_keyEPKSt13_Rb_tree_nodeIS9_E>
  40b019:	4c 89 e2             	mov    %r12,%rdx
  40b01c:	48 89 c6             	mov    %rax,%rsi
  40b01f:	48 89 df             	mov    %rbx,%rdi
  40b022:	e8 6d f5 ff ff       	callq  40a594 <_ZNKSt4lessINSt7__cxx1112basic_stringIcSt11char_traitsIcESaIcEEEEclERKS5_S8_>
  40b027:	84 c0                	test   %al,%al
  40b029:	74 07                	je     40b032 <_ZNSt8_Rb_treeINSt7__cxx1112basic_stringIcSt11char_traitsIcESaIcEEESt4pairIKS5_6SymbolESt10_Select1stIS9_ESt4lessIS5_ESaIS9_EE14_M_insert_nodeEPSt18_Rb_tree_node_baseSH_PSt13_Rb_tree_nodeIS9_E+0x6c>
  40b02b:	b8 01 00 00 00       	mov    $0x1,%eax
  40b030:	eb 05                	jmp    40b037 <_ZNSt8_Rb_treeINSt7__cxx1112basic_stringIcSt11char_traitsIcESaIcEEESt4pairIKS5_6SymbolESt10_Select1stIS9_ESt4lessIS5_ESaIS9_EE14_M_insert_nodeEPSt18_Rb_tree_node_baseSH_PSt13_Rb_tree_nodeIS9_E+0x71>
  40b032:	b8 00 00 00 00       	mov    $0x0,%eax
  40b037:	88 45 ef             	mov    %al,-0x11(%rbp)
  40b03a:	48 8b 45 d8          	mov    -0x28(%rbp),%rax
  40b03e:	48 8d 48 08          	lea    0x8(%rax),%rcx
  40b042:	0f b6 45 ef          	movzbl -0x11(%rbp),%eax
  40b046:	48 8b 55 c8          	mov    -0x38(%rbp),%rdx
  40b04a:	48 8b 75 c0          	mov    -0x40(%rbp),%rsi
  40b04e:	89 c7                	mov    %eax,%edi
  40b050:	e8 2b 80 ff ff       	callq  403080 <_ZSt29_Rb_tree_insert_and_rebalancebPSt18_Rb_tree_node_baseS0_RS_@plt>
  40b055:	48 8b 45 d8          	mov    -0x28(%rbp),%rax
  40b059:	48 8b 40 28          	mov    0x28(%rax),%rax
  40b05d:	48 8d 50 01          	lea    0x1(%rax),%rdx
  40b061:	48 8b 45 d8          	mov    -0x28(%rbp),%rax
  40b065:	48 89 50 28          	mov    %rdx,0x28(%rax)
  40b069:	48 8b 55 c0          	mov    -0x40(%rbp),%rdx
  40b06d:	48 8d 45 e0          	lea    -0x20(%rbp),%rax
  40b071:	48 89 d6             	mov    %rdx,%rsi
  40b074:	48 89 c7             	mov    %rax,%rdi
  40b077:	e8 0e 00 00 00       	callq  40b08a <_ZNSt17_Rb_tree_iteratorISt4pairIKNSt7__cxx1112basic_stringIcSt11char_traitsIcESaIcEEE6SymbolEEC1EPSt18_Rb_tree_node_base>
  40b07c:	48 8b 45 e0          	mov    -0x20(%rbp),%rax
  40b080:	48 83 c4 30          	add    $0x30,%rsp
  40b084:	5b                   	pop    %rbx
  40b085:	41 5c                	pop    %r12
  40b087:	5d                   	pop    %rbp
  40b088:	c3                   	retq   
  40b089:	90                   	nop

000000000040b08a <_ZNSt17_Rb_tree_iteratorISt4pairIKNSt7__cxx1112basic_stringIcSt11char_traitsIcESaIcEEE6SymbolEEC1EPSt18_Rb_tree_node_base>:
  40b08a:	55                   	push   %rbp
  40b08b:	48 89 e5             	mov    %rsp,%rbp
  40b08e:	48 89 7d f8          	mov    %rdi,-0x8(%rbp)
  40b092:	48 89 75 f0          	mov    %rsi,-0x10(%rbp)
  40b096:	48 8b 45 f8          	mov    -0x8(%rbp),%rax
  40b09a:	48 8b 55 f0          	mov    -0x10(%rbp),%rdx
  40b09e:	48 89 10             	mov    %rdx,(%rax)
  40b0a1:	90                   	nop
  40b0a2:	5d                   	pop    %rbp
  40b0a3:	c3                   	retq   

000000000040b0a4 <_ZN9__gnu_cxx13new_allocatorINSt7__cxx1112basic_stringIcSt11char_traitsIcESaIcEEEE9constructIS6_JRS6_EEEvPT_DpOT0_>:
  40b0a4:	55                   	push   %rbp
  40b0a5:	48 89 e5             	mov    %rsp,%rbp
  40b0a8:	41 55                	push   %r13
  40b0aa:	41 54                	push   %r12
  40b0ac:	53                   	push   %rbx
  40b0ad:	48 83 ec 28          	sub    $0x28,%rsp
  40b0b1:	48 89 7d d8          	mov    %rdi,-0x28(%rbp)
  40b0b5:	48 89 75 d0          	mov    %rsi,-0x30(%rbp)
  40b0b9:	48 89 55 c8          	mov    %rdx,-0x38(%rbp)
  40b0bd:	48 8b 45 c8          	mov    -0x38(%rbp),%rax
  40b0c1:	48 89 c7             	mov    %rax,%rdi
  40b0c4:	e8 50 f6 ff ff       	callq  40a719 <_ZSt7forwardIRNSt7__cxx1112basic_stringIcSt11char_traitsIcESaIcEEEEOT_RNSt16remove_referenceIS7_E4typeE>
  40b0c9:	49 89 c5             	mov    %rax,%r13
  40b0cc:	48 8b 5d d0          	mov    -0x30(%rbp),%rbx
  40b0d0:	48 89 de             	mov    %rbx,%rsi
  40b0d3:	bf 20 00 00 00       	mov    $0x20,%edi
  40b0d8:	e8 32 ba ff ff       	callq  406b0f <_ZnwmPv>
  40b0dd:	49 89 c4             	mov    %rax,%r12
  40b0e0:	4c 89 ee             	mov    %r13,%rsi
  40b0e3:	4c 89 e7             	mov    %r12,%rdi
  40b0e6:	e8 45 80 ff ff       	callq  403130 <_ZNSt7__cxx1112basic_stringIcSt11char_traitsIcESaIcEEC1ERKS4_@plt>
  40b0eb:	eb 19                	jmp    40b106 <_ZN9__gnu_cxx13new_allocatorINSt7__cxx1112basic_stringIcSt11char_traitsIcESaIcEEEE9constructIS6_JRS6_EEEvPT_DpOT0_+0x62>
  40b0ed:	49 89 c5             	mov    %rax,%r13
  40b0f0:	48 89 de             	mov    %rbx,%rsi
  40b0f3:	4c 89 e7             	mov    %r12,%rdi
  40b0f6:	e8 ec ec ff ff       	callq  409de7 <_ZdlPvS_>
  40b0fb:	4c 89 e8             	mov    %r13,%rax
  40b0fe:	48 89 c7             	mov    %rax,%rdi
  40b101:	e8 6a 83 ff ff       	callq  403470 <_Unwind_Resume@plt>
  40b106:	48 83 c4 28          	add    $0x28,%rsp
  40b10a:	5b                   	pop    %rbx
  40b10b:	41 5c                	pop    %r12
  40b10d:	41 5d                	pop    %r13
  40b10f:	5d                   	pop    %rbp
  40b110:	c3                   	retq   
  40b111:	90                   	nop

000000000040b112 <_ZNSt8_Rb_treeINSt7__cxx1112basic_stringIcSt11char_traitsIcESaIcEEESt4pairIKS5_6SymbolESt10_Select1stIS9_ESt4lessIS5_ESaIS9_EE6_M_endEv>:
  40b112:	55                   	push   %rbp
  40b113:	48 89 e5             	mov    %rsp,%rbp
  40b116:	48 89 7d f8          	mov    %rdi,-0x8(%rbp)
  40b11a:	48 8b 45 f8          	mov    -0x8(%rbp),%rax
  40b11e:	48 83 c0 08          	add    $0x8,%rax
  40b122:	5d                   	pop    %rbp
  40b123:	c3                   	retq   

000000000040b124 <_ZNSt8_Rb_treeINSt7__cxx1112basic_stringIcSt11char_traitsIcESaIcEEESt4pairIKS5_6SymbolESt10_Select1stIS9_ESt4lessIS5_ESaIS9_EE14_M_lower_boundEPSt13_Rb_tree_nodeIS9_EPSt18_Rb_tree_node_baseRS7_>:
  40b124:	55                   	push   %rbp
  40b125:	48 89 e5             	mov    %rsp,%rbp
  40b128:	53                   	push   %rbx
  40b129:	48 83 ec 38          	sub    $0x38,%rsp
  40b12d:	48 89 7d d8          	mov    %rdi,-0x28(%rbp)
  40b131:	48 89 75 d0          	mov    %rsi,-0x30(%rbp)
  40b135:	48 89 55 c8          	mov    %rdx,-0x38(%rbp)
  40b139:	48 89 4d c0          	mov    %rcx,-0x40(%rbp)
  40b13d:	48 83 7d d0 00       	cmpq   $0x0,-0x30(%rbp)
  40b142:	74 58                	je     40b19c <_ZNSt8_Rb_treeINSt7__cxx1112basic_stringIcSt11char_traitsIcESaIcEEESt4pairIKS5_6SymbolESt10_Select1stIS9_ESt4lessIS5_ESaIS9_EE14_M_lower_boundEPSt13_Rb_tree_nodeIS9_EPSt18_Rb_tree_node_baseRS7_+0x78>
  40b144:	48 8b 5d d8          	mov    -0x28(%rbp),%rbx
  40b148:	48 8b 45 d0          	mov    -0x30(%rbp),%rax
  40b14c:	48 89 c7             	mov    %rax,%rdi
  40b14f:	e8 44 fe ff ff       	callq  40af98 <_ZNSt8_Rb_treeINSt7__cxx1112basic_stringIcSt11char_traitsIcESaIcEEESt4pairIKS5_6SymbolESt10_Select1stIS9_ESt4lessIS5_ESaIS9_EE6_S_keyEPKSt13_Rb_tree_nodeIS9_E>
  40b154:	48 89 c1             	mov    %rax,%rcx
  40b157:	48 8b 45 c0          	mov    -0x40(%rbp),%rax
  40b15b:	48 89 c2             	mov    %rax,%rdx
  40b15e:	48 89 ce             	mov    %rcx,%rsi
  40b161:	48 89 df             	mov    %rbx,%rdi
  40b164:	e8 2b f4 ff ff       	callq  40a594 <_ZNKSt4lessINSt7__cxx1112basic_stringIcSt11char_traitsIcESaIcEEEEclERKS5_S8_>
  40b169:	83 f0 01             	xor    $0x1,%eax
  40b16c:	84 c0                	test   %al,%al
  40b16e:	74 1a                	je     40b18a <_ZNSt8_Rb_treeINSt7__cxx1112basic_stringIcSt11char_traitsIcESaIcEEESt4pairIKS5_6SymbolESt10_Select1stIS9_ESt4lessIS5_ESaIS9_EE14_M_lower_boundEPSt13_Rb_tree_nodeIS9_EPSt18_Rb_tree_node_baseRS7_+0x66>
  40b170:	48 8b 45 d0          	mov    -0x30(%rbp),%rax
  40b174:	48 89 45 c8          	mov    %rax,-0x38(%rbp)
  40b178:	48 8b 45 d0          	mov    -0x30(%rbp),%rax
  40b17c:	48 89 c7             	mov    %rax,%rdi
  40b17f:	e8 67 da ff ff       	callq  408beb <_ZNSt8_Rb_treeINSt7__cxx1112basic_stringIcSt11char_traitsIcESaIcEEESt4pairIKS5_6SymbolESt10_Select1stIS9_ESt4lessIS5_ESaIS9_EE7_S_leftEPSt18_Rb_tree_node_base>
  40b184:	48 89 45 d0          	mov    %rax,-0x30(%rbp)
  40b188:	eb b3                	jmp    40b13d <_ZNSt8_Rb_treeINSt7__cxx1112basic_stringIcSt11char_traitsIcESaIcEEESt4pairIKS5_6SymbolESt10_Select1stIS9_ESt4lessIS5_ESaIS9_EE14_M_lower_boundEPSt13_Rb_tree_nodeIS9_EPSt18_Rb_tree_node_baseRS7_+0x19>
  40b18a:	48 8b 45 d0          	mov    -0x30(%rbp),%rax
  40b18e:	48 89 c7             	mov    %rax,%rdi
  40b191:	e8 43 da ff ff       	callq  408bd9 <_ZNSt8_Rb_treeINSt7__cxx1112basic_stringIcSt11char_traitsIcESaIcEEESt4pairIKS5_6SymbolESt10_Select1stIS9_ESt4lessIS5_ESaIS9_EE8_S_rightEPSt18_Rb_tree_node_base>
  40b196:	48 89 45 d0          	mov    %rax,-0x30(%rbp)
  40b19a:	eb a1                	jmp    40b13d <_ZNSt8_Rb_treeINSt7__cxx1112basic_stringIcSt11char_traitsIcESaIcEEESt4pairIKS5_6SymbolESt10_Select1stIS9_ESt4lessIS5_ESaIS9_EE14_M_lower_boundEPSt13_Rb_tree_nodeIS9_EPSt18_Rb_tree_node_baseRS7_+0x19>
  40b19c:	48 8b 55 c8          	mov    -0x38(%rbp),%rdx
  40b1a0:	48 8d 45 e8          	lea    -0x18(%rbp),%rax
  40b1a4:	48 89 d6             	mov    %rdx,%rsi
  40b1a7:	48 89 c7             	mov    %rax,%rdi
  40b1aa:	e8 db fe ff ff       	callq  40b08a <_ZNSt17_Rb_tree_iteratorISt4pairIKNSt7__cxx1112basic_stringIcSt11char_traitsIcESaIcEEE6SymbolEEC1EPSt18_Rb_tree_node_base>
  40b1af:	48 8b 45 e8          	mov    -0x18(%rbp),%rax
  40b1b3:	48 83 c4 38          	add    $0x38,%rsp
  40b1b7:	5b                   	pop    %rbx
  40b1b8:	5d                   	pop    %rbp
  40b1b9:	c3                   	retq   

000000000040b1ba <_ZNSt10_Head_baseILm0ERKNSt7__cxx1112basic_stringIcSt11char_traitsIcESaIcEEELb0EEC1ES7_>:
  40b1ba:	55                   	push   %rbp
  40b1bb:	48 89 e5             	mov    %rsp,%rbp
  40b1be:	48 89 7d f8          	mov    %rdi,-0x8(%rbp)
  40b1c2:	48 89 75 f0          	mov    %rsi,-0x10(%rbp)
  40b1c6:	48 8b 45 f8          	mov    -0x8(%rbp),%rax
  40b1ca:	48 8b 55 f0          	mov    -0x10(%rbp),%rdx
  40b1ce:	48 89 10             	mov    %rdx,(%rax)
  40b1d1:	90                   	nop
  40b1d2:	5d                   	pop    %rbp
  40b1d3:	c3                   	retq   

000000000040b1d4 <_ZNSt8_Rb_treeINSt7__cxx1112basic_stringIcSt11char_traitsIcESaIcEEESt4pairIKS5_6SymbolESt10_Select1stIS9_ESt4lessIS5_ESaIS9_EE11_M_get_nodeEv>:
  40b1d4:	55                   	push   %rbp
  40b1d5:	48 89 e5             	mov    %rsp,%rbp
  40b1d8:	48 83 ec 10          	sub    $0x10,%rsp
  40b1dc:	48 89 7d f8          	mov    %rdi,-0x8(%rbp)
  40b1e0:	48 8b 45 f8          	mov    -0x8(%rbp),%rax
  40b1e4:	48 89 c7             	mov    %rax,%rdi
  40b1e7:	e8 c2 da ff ff       	callq  408cae <_ZNSt8_Rb_treeINSt7__cxx1112basic_stringIcSt11char_traitsIcESaIcEEESt4pairIKS5_6SymbolESt10_Select1stIS9_ESt4lessIS5_ESaIS9_EE21_M_get_Node_allocatorEv>
  40b1ec:	be 01 00 00 00       	mov    $0x1,%esi
  40b1f1:	48 89 c7             	mov    %rax,%rdi
  40b1f4:	e8 db 03 00 00       	callq  40b5d4 <_ZNSt16allocator_traitsISaISt13_Rb_tree_nodeISt4pairIKNSt7__cxx1112basic_stringIcSt11char_traitsIcESaIcEEE6SymbolEEEE8allocateERSC_m>
  40b1f9:	c9                   	leaveq 
  40b1fa:	c3                   	retq   
  40b1fb:	90                   	nop

000000000040b1fc <_ZNSt8_Rb_treeINSt7__cxx1112basic_stringIcSt11char_traitsIcESaIcEEESt4pairIKS5_6SymbolESt10_Select1stIS9_ESt4lessIS5_ESaIS9_EE17_M_construct_nodeIJRKSt21piecewise_construct_tSt5tupleIJRS7_EESK_IJEEEEEvPSt13_Rb_tree_nodeIS9_EDpOT_>:
  40b1fc:	55                   	push   %rbp
  40b1fd:	48 89 e5             	mov    %rsp,%rbp
  40b200:	41 56                	push   %r14
  40b202:	41 55                	push   %r13
  40b204:	41 54                	push   %r12
  40b206:	53                   	push   %rbx
  40b207:	48 83 ec 30          	sub    $0x30,%rsp
  40b20b:	48 89 7d d8          	mov    %rdi,-0x28(%rbp)
  40b20f:	48 89 75 d0          	mov    %rsi,-0x30(%rbp)
  40b213:	48 89 55 c8          	mov    %rdx,-0x38(%rbp)
  40b217:	48 89 4d c0          	mov    %rcx,-0x40(%rbp)
  40b21b:	4c 89 45 b8          	mov    %r8,-0x48(%rbp)
  40b21f:	48 8b 45 d0          	mov    -0x30(%rbp),%rax
  40b223:	48 89 c6             	mov    %rax,%rsi
  40b226:	bf d8 00 00 00       	mov    $0xd8,%edi
  40b22b:	e8 df b8 ff ff       	callq  406b0f <_ZnwmPv>
  40b230:	48 8b 45 b8          	mov    -0x48(%rbp),%rax
  40b234:	48 89 c7             	mov    %rax,%rdi
  40b237:	e8 80 f8 ff ff       	callq  40aabc <_ZSt7forwardISt5tupleIJEEEOT_RNSt16remove_referenceIS2_E4typeE>
  40b23c:	49 89 c6             	mov    %rax,%r14
  40b23f:	48 8b 45 c0          	mov    -0x40(%rbp),%rax
  40b243:	48 89 c7             	mov    %rax,%rdi
  40b246:	e8 63 f8 ff ff       	callq  40aaae <_ZSt7forwardISt5tupleIJRKNSt7__cxx1112basic_stringIcSt11char_traitsIcESaIcEEEEEEOT_RNSt16remove_referenceISA_E4typeE>
  40b24b:	49 89 c5             	mov    %rax,%r13
  40b24e:	48 8b 45 c8          	mov    -0x38(%rbp),%rax
  40b252:	48 89 c7             	mov    %rax,%rdi
  40b255:	e8 46 f8 ff ff       	callq  40aaa0 <_ZSt7forwardIRKSt21piecewise_construct_tEOT_RNSt16remove_referenceIS3_E4typeE>
  40b25a:	49 89 c4             	mov    %rax,%r12
  40b25d:	48 8b 45 d0          	mov    -0x30(%rbp),%rax
  40b261:	48 89 c7             	mov    %rax,%rdi
  40b264:	e8 53 da ff ff       	callq  408cbc <_ZNSt13_Rb_tree_nodeISt4pairIKNSt7__cxx1112basic_stringIcSt11char_traitsIcESaIcEEE6SymbolEE9_M_valptrEv>
  40b269:	48 89 c3             	mov    %rax,%rbx
  40b26c:	48 8b 45 d8          	mov    -0x28(%rbp),%rax
  40b270:	48 89 c7             	mov    %rax,%rdi
  40b273:	e8 36 da ff ff       	callq  408cae <_ZNSt8_Rb_treeINSt7__cxx1112basic_stringIcSt11char_traitsIcESaIcEEESt4pairIKS5_6SymbolESt10_Select1stIS9_ESt4lessIS5_ESaIS9_EE21_M_get_Node_allocatorEv>
  40b278:	4d 89 f0             	mov    %r14,%r8
  40b27b:	4c 89 e9             	mov    %r13,%rcx
  40b27e:	4c 89 e2             	mov    %r12,%rdx
  40b281:	48 89 de             	mov    %rbx,%rsi
  40b284:	48 89 c7             	mov    %rax,%rdi
  40b287:	e8 72 03 00 00       	callq  40b5fe <_ZNSt16allocator_traitsISaISt13_Rb_tree_nodeISt4pairIKNSt7__cxx1112basic_stringIcSt11char_traitsIcESaIcEEE6SymbolEEEE9constructISA_JRKSt21piecewise_construct_tSt5tupleIJRS8_EESI_IJEEEEEvRSC_PT_DpOT0_>
  40b28c:	eb 33                	jmp    40b2c1 <_ZNSt8_Rb_treeINSt7__cxx1112basic_stringIcSt11char_traitsIcESaIcEEESt4pairIKS5_6SymbolESt10_Select1stIS9_ESt4lessIS5_ESaIS9_EE17_M_construct_nodeIJRKSt21piecewise_construct_tSt5tupleIJRS7_EESK_IJEEEEEvPSt13_Rb_tree_nodeIS9_EDpOT_+0xc5>
  40b28e:	48 89 c7             	mov    %rax,%rdi
  40b291:	e8 7a 7e ff ff       	callq  403110 <__cxa_begin_catch@plt>
  40b296:	48 8b 55 d0          	mov    -0x30(%rbp),%rdx
  40b29a:	48 8b 45 d8          	mov    -0x28(%rbp),%rax
  40b29e:	48 89 d6             	mov    %rdx,%rsi
  40b2a1:	48 89 c7             	mov    %rax,%rdi
  40b2a4:	e8 cf d9 ff ff       	callq  408c78 <_ZNSt8_Rb_treeINSt7__cxx1112basic_stringIcSt11char_traitsIcESaIcEEESt4pairIKS5_6SymbolESt10_Select1stIS9_ESt4lessIS5_ESaIS9_EE11_M_put_nodeEPSt13_Rb_tree_nodeIS9_E>
  40b2a9:	e8 f2 80 ff ff       	callq  4033a0 <__cxa_rethrow@plt>
  40b2ae:	48 89 c3             	mov    %rax,%rbx
  40b2b1:	e8 6a 81 ff ff       	callq  403420 <__cxa_end_catch@plt>
  40b2b6:	48 89 d8             	mov    %rbx,%rax
  40b2b9:	48 89 c7             	mov    %rax,%rdi
  40b2bc:	e8 af 81 ff ff       	callq  403470 <_Unwind_Resume@plt>
  40b2c1:	48 83 c4 30          	add    $0x30,%rsp
  40b2c5:	5b                   	pop    %rbx
  40b2c6:	41 5c                	pop    %r12
  40b2c8:	41 5d                	pop    %r13
  40b2ca:	41 5e                	pop    %r14
  40b2cc:	5d                   	pop    %rbp
  40b2cd:	c3                   	retq   

000000000040b2ce <_ZNKSt23_Rb_tree_const_iteratorISt4pairIKNSt7__cxx1112basic_stringIcSt11char_traitsIcESaIcEEE6SymbolEE13_M_const_castEv>:
  40b2ce:	55                   	push   %rbp
  40b2cf:	48 89 e5             	mov    %rsp,%rbp
  40b2d2:	48 83 ec 20          	sub    $0x20,%rsp
  40b2d6:	48 89 7d e8          	mov    %rdi,-0x18(%rbp)
  40b2da:	48 8b 45 e8          	mov    -0x18(%rbp),%rax
  40b2de:	48 8b 10             	mov    (%rax),%rdx
  40b2e1:	48 8d 45 f8          	lea    -0x8(%rbp),%rax
  40b2e5:	48 89 d6             	mov    %rdx,%rsi
  40b2e8:	48 89 c7             	mov    %rax,%rdi
  40b2eb:	e8 9a fd ff ff       	callq  40b08a <_ZNSt17_Rb_tree_iteratorISt4pairIKNSt7__cxx1112basic_stringIcSt11char_traitsIcESaIcEEE6SymbolEEC1EPSt18_Rb_tree_node_base>
  40b2f0:	48 8b 45 f8          	mov    -0x8(%rbp),%rax
  40b2f4:	c9                   	leaveq 
  40b2f5:	c3                   	retq   

000000000040b2f6 <_ZNKSt8_Rb_treeINSt7__cxx1112basic_stringIcSt11char_traitsIcESaIcEEESt4pairIKS5_6SymbolESt10_Select1stIS9_ESt4lessIS5_ESaIS9_EE4sizeEv>:
  40b2f6:	55                   	push   %rbp
  40b2f7:	48 89 e5             	mov    %rsp,%rbp
  40b2fa:	48 89 7d f8          	mov    %rdi,-0x8(%rbp)
  40b2fe:	48 8b 45 f8          	mov    -0x8(%rbp),%rax
  40b302:	48 8b 40 28          	mov    0x28(%rax),%rax
  40b306:	5d                   	pop    %rbp
  40b307:	c3                   	retq   

000000000040b308 <_ZNSt8_Rb_treeINSt7__cxx1112basic_stringIcSt11char_traitsIcESaIcEEESt4pairIKS5_6SymbolESt10_Select1stIS9_ESt4lessIS5_ESaIS9_EE12_M_rightmostEv>:
  40b308:	55                   	push   %rbp
  40b309:	48 89 e5             	mov    %rsp,%rbp
  40b30c:	48 89 7d f8          	mov    %rdi,-0x8(%rbp)
  40b310:	48 8b 45 f8          	mov    -0x8(%rbp),%rax
  40b314:	48 83 c0 20          	add    $0x20,%rax
  40b318:	5d                   	pop    %rbp
  40b319:	c3                   	retq   

000000000040b31a <_ZNSt8_Rb_treeINSt7__cxx1112basic_stringIcSt11char_traitsIcESaIcEEESt4pairIKS5_6SymbolESt10_Select1stIS9_ESt4lessIS5_ESaIS9_EE6_S_keyEPKSt18_Rb_tree_node_base>:
  40b31a:	55                   	push   %rbp
  40b31b:	48 89 e5             	mov    %rsp,%rbp
  40b31e:	48 83 ec 10          	sub    $0x10,%rsp
  40b322:	48 89 7d f8          	mov    %rdi,-0x8(%rbp)
  40b326:	48 8b 45 f8          	mov    -0x8(%rbp),%rax
  40b32a:	48 89 c7             	mov    %rax,%rdi
  40b32d:	e8 66 fc ff ff       	callq  40af98 <_ZNSt8_Rb_treeINSt7__cxx1112basic_stringIcSt11char_traitsIcESaIcEEESt4pairIKS5_6SymbolESt10_Select1stIS9_ESt4lessIS5_ESaIS9_EE6_S_keyEPKSt13_Rb_tree_nodeIS9_E>
  40b332:	c9                   	leaveq 
  40b333:	c3                   	retq   

000000000040b334 <_ZNSt4pairIPSt18_Rb_tree_node_baseS1_EC1IRS1_Lb1EEERKS1_OT_>:
  40b334:	55                   	push   %rbp
  40b335:	48 89 e5             	mov    %rsp,%rbp
  40b338:	48 83 ec 20          	sub    $0x20,%rsp
  40b33c:	48 89 7d f8          	mov    %rdi,-0x8(%rbp)
  40b340:	48 89 75 f0          	mov    %rsi,-0x10(%rbp)
  40b344:	48 89 55 e8          	mov    %rdx,-0x18(%rbp)
  40b348:	48 8b 45 f0          	mov    -0x10(%rbp),%rax
  40b34c:	48 8b 10             	mov    (%rax),%rdx
  40b34f:	48 8b 45 f8          	mov    -0x8(%rbp),%rax
  40b353:	48 89 10             	mov    %rdx,(%rax)
  40b356:	48 8b 45 e8          	mov    -0x18(%rbp),%rax
  40b35a:	48 89 c7             	mov    %rax,%rdi
  40b35d:	e8 08 03 00 00       	callq  40b66a <_ZSt7forwardIRPSt18_Rb_tree_node_baseEOT_RNSt16remove_referenceIS3_E4typeE>
  40b362:	48 8b 10             	mov    (%rax),%rdx
  40b365:	48 8b 45 f8          	mov    -0x8(%rbp),%rax
  40b369:	48 89 50 08          	mov    %rdx,0x8(%rax)
  40b36d:	90                   	nop
  40b36e:	c9                   	leaveq 
  40b36f:	c3                   	retq   

000000000040b370 <_ZNSt8_Rb_treeINSt7__cxx1112basic_stringIcSt11char_traitsIcESaIcEEESt4pairIKS5_6SymbolESt10_Select1stIS9_ESt4lessIS5_ESaIS9_EE24_M_get_insert_unique_posERS7_>:
  40b370:	55                   	push   %rbp
  40b371:	48 89 e5             	mov    %rsp,%rbp
  40b374:	53                   	push   %rbx
  40b375:	48 83 ec 78          	sub    $0x78,%rsp
  40b379:	48 89 7d 88          	mov    %rdi,-0x78(%rbp)
  40b37d:	48 89 75 80          	mov    %rsi,-0x80(%rbp)
  40b381:	48 8b 45 88          	mov    -0x78(%rbp),%rax
  40b385:	48 89 c7             	mov    %rax,%rdi
  40b388:	e8 2f d8 ff ff       	callq  408bbc <_ZNSt8_Rb_treeINSt7__cxx1112basic_stringIcSt11char_traitsIcESaIcEEESt4pairIKS5_6SymbolESt10_Select1stIS9_ESt4lessIS5_ESaIS9_EE8_M_beginEv>
  40b38d:	48 89 45 a0          	mov    %rax,-0x60(%rbp)
  40b391:	48 8b 45 88          	mov    -0x78(%rbp),%rax
  40b395:	48 89 c7             	mov    %rax,%rdi
  40b398:	e8 75 fd ff ff       	callq  40b112 <_ZNSt8_Rb_treeINSt7__cxx1112basic_stringIcSt11char_traitsIcESaIcEEESt4pairIKS5_6SymbolESt10_Select1stIS9_ESt4lessIS5_ESaIS9_EE6_M_endEv>
  40b39d:	48 89 45 98          	mov    %rax,-0x68(%rbp)
  40b3a1:	c6 45 ef 01          	movb   $0x1,-0x11(%rbp)
  40b3a5:	48 8b 45 a0          	mov    -0x60(%rbp),%rax
  40b3a9:	48 85 c0             	test   %rax,%rax
  40b3ac:	74 53                	je     40b401 <_ZNSt8_Rb_treeINSt7__cxx1112basic_stringIcSt11char_traitsIcESaIcEEESt4pairIKS5_6SymbolESt10_Select1stIS9_ESt4lessIS5_ESaIS9_EE24_M_get_insert_unique_posERS7_+0x91>
  40b3ae:	48 8b 45 a0          	mov    -0x60(%rbp),%rax
  40b3b2:	48 89 45 98          	mov    %rax,-0x68(%rbp)
  40b3b6:	48 8b 5d 88          	mov    -0x78(%rbp),%rbx
  40b3ba:	48 8b 45 a0          	mov    -0x60(%rbp),%rax
  40b3be:	48 89 c7             	mov    %rax,%rdi
  40b3c1:	e8 d2 fb ff ff       	callq  40af98 <_ZNSt8_Rb_treeINSt7__cxx1112basic_stringIcSt11char_traitsIcESaIcEEESt4pairIKS5_6SymbolESt10_Select1stIS9_ESt4lessIS5_ESaIS9_EE6_S_keyEPKSt13_Rb_tree_nodeIS9_E>
  40b3c6:	48 89 c2             	mov    %rax,%rdx
  40b3c9:	48 8b 45 80          	mov    -0x80(%rbp),%rax
  40b3cd:	48 89 c6             	mov    %rax,%rsi
  40b3d0:	48 89 df             	mov    %rbx,%rdi
  40b3d3:	e8 bc f1 ff ff       	callq  40a594 <_ZNKSt4lessINSt7__cxx1112basic_stringIcSt11char_traitsIcESaIcEEEEclERKS5_S8_>
  40b3d8:	88 45 ef             	mov    %al,-0x11(%rbp)
  40b3db:	80 7d ef 00          	cmpb   $0x0,-0x11(%rbp)
  40b3df:	74 0e                	je     40b3ef <_ZNSt8_Rb_treeINSt7__cxx1112basic_stringIcSt11char_traitsIcESaIcEEESt4pairIKS5_6SymbolESt10_Select1stIS9_ESt4lessIS5_ESaIS9_EE24_M_get_insert_unique_posERS7_+0x7f>
  40b3e1:	48 8b 45 a0          	mov    -0x60(%rbp),%rax
  40b3e5:	48 89 c7             	mov    %rax,%rdi
  40b3e8:	e8 fe d7 ff ff       	callq  408beb <_ZNSt8_Rb_treeINSt7__cxx1112basic_stringIcSt11char_traitsIcESaIcEEESt4pairIKS5_6SymbolESt10_Select1stIS9_ESt4lessIS5_ESaIS9_EE7_S_leftEPSt18_Rb_tree_node_base>
  40b3ed:	eb 0c                	jmp    40b3fb <_ZNSt8_Rb_treeINSt7__cxx1112basic_stringIcSt11char_traitsIcESaIcEEESt4pairIKS5_6SymbolESt10_Select1stIS9_ESt4lessIS5_ESaIS9_EE24_M_get_insert_unique_posERS7_+0x8b>
  40b3ef:	48 8b 45 a0          	mov    -0x60(%rbp),%rax
  40b3f3:	48 89 c7             	mov    %rax,%rdi
  40b3f6:	e8 de d7 ff ff       	callq  408bd9 <_ZNSt8_Rb_treeINSt7__cxx1112basic_stringIcSt11char_traitsIcESaIcEEESt4pairIKS5_6SymbolESt10_Select1stIS9_ESt4lessIS5_ESaIS9_EE8_S_rightEPSt18_Rb_tree_node_base>
  40b3fb:	48 89 45 a0          	mov    %rax,-0x60(%rbp)
  40b3ff:	eb a4                	jmp    40b3a5 <_ZNSt8_Rb_treeINSt7__cxx1112basic_stringIcSt11char_traitsIcESaIcEEESt4pairIKS5_6SymbolESt10_Select1stIS9_ESt4lessIS5_ESaIS9_EE24_M_get_insert_unique_posERS7_+0x35>
  40b401:	48 8b 55 98          	mov    -0x68(%rbp),%rdx
  40b405:	48 8d 45 90          	lea    -0x70(%rbp),%rax
  40b409:	48 89 d6             	mov    %rdx,%rsi
  40b40c:	48 89 c7             	mov    %rax,%rdi
  40b40f:	e8 76 fc ff ff       	callq  40b08a <_ZNSt17_Rb_tree_iteratorISt4pairIKNSt7__cxx1112basic_stringIcSt11char_traitsIcESaIcEEE6SymbolEEC1EPSt18_Rb_tree_node_base>
  40b414:	80 7d ef 00          	cmpb   $0x0,-0x11(%rbp)
  40b418:	74 54                	je     40b46e <_ZNSt8_Rb_treeINSt7__cxx1112basic_stringIcSt11char_traitsIcESaIcEEESt4pairIKS5_6SymbolESt10_Select1stIS9_ESt4lessIS5_ESaIS9_EE24_M_get_insert_unique_posERS7_+0xfe>
  40b41a:	48 8b 45 88          	mov    -0x78(%rbp),%rax
  40b41e:	48 89 c7             	mov    %rax,%rdi
  40b421:	e8 76 f5 ff ff       	callq  40a99c <_ZNSt8_Rb_treeINSt7__cxx1112basic_stringIcSt11char_traitsIcESaIcEEESt4pairIKS5_6SymbolESt10_Select1stIS9_ESt4lessIS5_ESaIS9_EE5beginEv>
  40b426:	48 89 45 a8          	mov    %rax,-0x58(%rbp)
  40b42a:	48 8d 55 a8          	lea    -0x58(%rbp),%rdx
  40b42e:	48 8d 45 90          	lea    -0x70(%rbp),%rax
  40b432:	48 89 d6             	mov    %rdx,%rsi
  40b435:	48 89 c7             	mov    %rax,%rdi
  40b438:	e8 13 f1 ff ff       	callq  40a550 <_ZNKSt17_Rb_tree_iteratorISt4pairIKNSt7__cxx1112basic_stringIcSt11char_traitsIcESaIcEEE6SymbolEEeqERKSA_>
  40b43d:	84 c0                	test   %al,%al
  40b43f:	74 21                	je     40b462 <_ZNSt8_Rb_treeINSt7__cxx1112basic_stringIcSt11char_traitsIcESaIcEEESt4pairIKS5_6SymbolESt10_Select1stIS9_ESt4lessIS5_ESaIS9_EE24_M_get_insert_unique_posERS7_+0xf2>
  40b441:	48 8d 55 98          	lea    -0x68(%rbp),%rdx
  40b445:	48 8d 4d a0          	lea    -0x60(%rbp),%rcx
  40b449:	48 8d 45 b0          	lea    -0x50(%rbp),%rax
  40b44d:	48 89 ce             	mov    %rcx,%rsi
  40b450:	48 89 c7             	mov    %rax,%rdi
  40b453:	e8 20 02 00 00       	callq  40b678 <_ZNSt4pairIPSt18_Rb_tree_node_baseS1_EC1IRPSt13_Rb_tree_nodeIS_IKNSt7__cxx1112basic_stringIcSt11char_traitsIcESaIcEEE6SymbolEERS1_Lb1EEEOT_OT0_>
  40b458:	48 8b 45 b0          	mov    -0x50(%rbp),%rax
  40b45c:	48 8b 55 b8          	mov    -0x48(%rbp),%rdx
  40b460:	eb 7d                	jmp    40b4df <_ZNSt8_Rb_treeINSt7__cxx1112basic_stringIcSt11char_traitsIcESaIcEEESt4pairIKS5_6SymbolESt10_Select1stIS9_ESt4lessIS5_ESaIS9_EE24_M_get_insert_unique_posERS7_+0x16f>
  40b462:	48 8d 45 90          	lea    -0x70(%rbp),%rax
  40b466:	48 89 c7             	mov    %rax,%rdi
  40b469:	e8 ce 00 00 00       	callq  40b53c <_ZNSt17_Rb_tree_iteratorISt4pairIKNSt7__cxx1112basic_stringIcSt11char_traitsIcESaIcEEE6SymbolEEmmEv>
  40b46e:	48 8b 5d 88          	mov    -0x78(%rbp),%rbx
  40b472:	48 8b 45 90          	mov    -0x70(%rbp),%rax
  40b476:	48 89 c7             	mov    %rax,%rdi
  40b479:	e8 9c fe ff ff       	callq  40b31a <_ZNSt8_Rb_treeINSt7__cxx1112basic_stringIcSt11char_traitsIcESaIcEEESt4pairIKS5_6SymbolESt10_Select1stIS9_ESt4lessIS5_ESaIS9_EE6_S_keyEPKSt18_Rb_tree_node_base>
  40b47e:	48 89 c1             	mov    %rax,%rcx
  40b481:	48 8b 45 80          	mov    -0x80(%rbp),%rax
  40b485:	48 89 c2             	mov    %rax,%rdx
  40b488:	48 89 ce             	mov    %rcx,%rsi
  40b48b:	48 89 df             	mov    %rbx,%rdi
  40b48e:	e8 01 f1 ff ff       	callq  40a594 <_ZNKSt4lessINSt7__cxx1112basic_stringIcSt11char_traitsIcESaIcEEEEclERKS5_S8_>
  40b493:	84 c0                	test   %al,%al
  40b495:	74 21                	je     40b4b8 <_ZNSt8_Rb_treeINSt7__cxx1112basic_stringIcSt11char_traitsIcESaIcEEESt4pairIKS5_6SymbolESt10_Select1stIS9_ESt4lessIS5_ESaIS9_EE24_M_get_insert_unique_posERS7_+0x148>
  40b497:	48 8d 55 98          	lea    -0x68(%rbp),%rdx
  40b49b:	48 8d 4d a0          	lea    -0x60(%rbp),%rcx
  40b49f:	48 8d 45 c0          	lea    -0x40(%rbp),%rax
  40b4a3:	48 89 ce             	mov    %rcx,%rsi
  40b4a6:	48 89 c7             	mov    %rax,%rdi
  40b4a9:	e8 ca 01 00 00       	callq  40b678 <_ZNSt4pairIPSt18_Rb_tree_node_baseS1_EC1IRPSt13_Rb_tree_nodeIS_IKNSt7__cxx1112basic_stringIcSt11char_traitsIcESaIcEEE6SymbolEERS1_Lb1EEEOT_OT0_>
  40b4ae:	48 8b 45 c0          	mov    -0x40(%rbp),%rax
  40b4b2:	48 8b 55 c8          	mov    -0x38(%rbp),%rdx
  40b4b6:	eb 27                	jmp    40b4df <_ZNSt8_Rb_treeINSt7__cxx1112basic_stringIcSt11char_traitsIcESaIcEEESt4pairIKS5_6SymbolESt10_Select1stIS9_ESt4lessIS5_ESaIS9_EE24_M_get_insert_unique_posERS7_+0x16f>
  40b4b8:	48 c7 45 e0 00 00 00 	movq   $0x0,-0x20(%rbp)
  40b4bf:	00 
  40b4c0:	48 8d 55 e0          	lea    -0x20(%rbp),%rdx
  40b4c4:	48 8d 4d 90          	lea    -0x70(%rbp),%rcx
  40b4c8:	48 8d 45 d0          	lea    -0x30(%rbp),%rax
  40b4cc:	48 89 ce             	mov    %rcx,%rsi
  40b4cf:	48 89 c7             	mov    %rax,%rdi
  40b4d2:	e8 91 00 00 00       	callq  40b568 <_ZNSt4pairIPSt18_Rb_tree_node_baseS1_EC1IRS1_Lb1EEEOT_RKS1_>
  40b4d7:	48 8b 45 d0          	mov    -0x30(%rbp),%rax
  40b4db:	48 8b 55 d8          	mov    -0x28(%rbp),%rdx
  40b4df:	48 83 c4 78          	add    $0x78,%rsp
  40b4e3:	5b                   	pop    %rbx
  40b4e4:	5d                   	pop    %rbp
  40b4e5:	c3                   	retq   

000000000040b4e6 <_ZNSt8_Rb_treeINSt7__cxx1112basic_stringIcSt11char_traitsIcESaIcEEESt4pairIKS5_6SymbolESt10_Select1stIS9_ESt4lessIS5_ESaIS9_EE11_M_leftmostEv>:
  40b4e6:	55                   	push   %rbp
  40b4e7:	48 89 e5             	mov    %rsp,%rbp
  40b4ea:	48 89 7d f8          	mov    %rdi,-0x8(%rbp)
  40b4ee:	48 8b 45 f8          	mov    -0x8(%rbp),%rax
  40b4f2:	48 83 c0 18          	add    $0x18,%rax
  40b4f6:	5d                   	pop    %rbp
  40b4f7:	c3                   	retq   

000000000040b4f8 <_ZNSt4pairIPSt18_Rb_tree_node_baseS1_EC1IRS1_S4_Lb1EEEOT_OT0_>:
  40b4f8:	55                   	push   %rbp
  40b4f9:	48 89 e5             	mov    %rsp,%rbp
  40b4fc:	48 83 ec 20          	sub    $0x20,%rsp
  40b500:	48 89 7d f8          	mov    %rdi,-0x8(%rbp)
  40b504:	48 89 75 f0          	mov    %rsi,-0x10(%rbp)
  40b508:	48 89 55 e8          	mov    %rdx,-0x18(%rbp)
  40b50c:	48 8b 45 f0          	mov    -0x10(%rbp),%rax
  40b510:	48 89 c7             	mov    %rax,%rdi
  40b513:	e8 52 01 00 00       	callq  40b66a <_ZSt7forwardIRPSt18_Rb_tree_node_baseEOT_RNSt16remove_referenceIS3_E4typeE>
  40b518:	48 8b 10             	mov    (%rax),%rdx
  40b51b:	48 8b 45 f8          	mov    -0x8(%rbp),%rax
  40b51f:	48 89 10             	mov    %rdx,(%rax)
  40b522:	48 8b 45 e8          	mov    -0x18(%rbp),%rax
  40b526:	48 89 c7             	mov    %rax,%rdi
  40b529:	e8 3c 01 00 00       	callq  40b66a <_ZSt7forwardIRPSt18_Rb_tree_node_baseEOT_RNSt16remove_referenceIS3_E4typeE>
  40b52e:	48 8b 10             	mov    (%rax),%rdx
  40b531:	48 8b 45 f8          	mov    -0x8(%rbp),%rax
  40b535:	48 89 50 08          	mov    %rdx,0x8(%rax)
  40b539:	90                   	nop
  40b53a:	c9                   	leaveq 
  40b53b:	c3                   	retq   

000000000040b53c <_ZNSt17_Rb_tree_iteratorISt4pairIKNSt7__cxx1112basic_stringIcSt11char_traitsIcESaIcEEE6SymbolEEmmEv>:
  40b53c:	55                   	push   %rbp
  40b53d:	48 89 e5             	mov    %rsp,%rbp
  40b540:	48 83 ec 10          	sub    $0x10,%rsp
  40b544:	48 89 7d f8          	mov    %rdi,-0x8(%rbp)
  40b548:	48 8b 45 f8          	mov    -0x8(%rbp),%rax
  40b54c:	48 8b 00             	mov    (%rax),%rax
  40b54f:	48 89 c7             	mov    %rax,%rdi
  40b552:	e8 39 7d ff ff       	callq  403290 <_ZSt18_Rb_tree_decrementPSt18_Rb_tree_node_base@plt>
  40b557:	48 89 c2             	mov    %rax,%rdx
  40b55a:	48 8b 45 f8          	mov    -0x8(%rbp),%rax
  40b55e:	48 89 10             	mov    %rdx,(%rax)
  40b561:	48 8b 45 f8          	mov    -0x8(%rbp),%rax
  40b565:	c9                   	leaveq 
  40b566:	c3                   	retq   
  40b567:	90                   	nop

000000000040b568 <_ZNSt4pairIPSt18_Rb_tree_node_baseS1_EC1IRS1_Lb1EEEOT_RKS1_>:
  40b568:	55                   	push   %rbp
  40b569:	48 89 e5             	mov    %rsp,%rbp
  40b56c:	48 83 ec 20          	sub    $0x20,%rsp
  40b570:	48 89 7d f8          	mov    %rdi,-0x8(%rbp)
  40b574:	48 89 75 f0          	mov    %rsi,-0x10(%rbp)
  40b578:	48 89 55 e8          	mov    %rdx,-0x18(%rbp)
  40b57c:	48 8b 45 f0          	mov    -0x10(%rbp),%rax
  40b580:	48 89 c7             	mov    %rax,%rdi
  40b583:	e8 e2 00 00 00       	callq  40b66a <_ZSt7forwardIRPSt18_Rb_tree_node_baseEOT_RNSt16remove_referenceIS3_E4typeE>
  40b588:	48 8b 10             	mov    (%rax),%rdx
  40b58b:	48 8b 45 f8          	mov    -0x8(%rbp),%rax
  40b58f:	48 89 10             	mov    %rdx,(%rax)
  40b592:	48 8b 45 e8          	mov    -0x18(%rbp),%rax
  40b596:	48 8b 10             	mov    (%rax),%rdx
  40b599:	48 8b 45 f8          	mov    -0x8(%rbp),%rax
  40b59d:	48 89 50 08          	mov    %rdx,0x8(%rax)
  40b5a1:	90                   	nop
  40b5a2:	c9                   	leaveq 
  40b5a3:	c3                   	retq   

000000000040b5a4 <_ZNKSt13_Rb_tree_nodeISt4pairIKNSt7__cxx1112basic_stringIcSt11char_traitsIcESaIcEEE6SymbolEE9_M_valptrEv>:
  40b5a4:	55                   	push   %rbp
  40b5a5:	48 89 e5             	mov    %rsp,%rbp
  40b5a8:	48 83 ec 10          	sub    $0x10,%rsp
  40b5ac:	48 89 7d f8          	mov    %rdi,-0x8(%rbp)
  40b5b0:	48 8b 45 f8          	mov    -0x8(%rbp),%rax
  40b5b4:	48 83 c0 20          	add    $0x20,%rax
  40b5b8:	48 89 c7             	mov    %rax,%rdi
  40b5bb:	e8 fc 00 00 00       	callq  40b6bc <_ZNK9__gnu_cxx16__aligned_membufISt4pairIKNSt7__cxx1112basic_stringIcSt11char_traitsIcESaIcEEE6SymbolEE6_M_ptrEv>
  40b5c0:	c9                   	leaveq 
  40b5c1:	c3                   	retq   

000000000040b5c2 <_ZNKSt10_Select1stISt4pairIKNSt7__cxx1112basic_stringIcSt11char_traitsIcESaIcEEE6SymbolEEclERKS9_>:
  40b5c2:	55                   	push   %rbp
  40b5c3:	48 89 e5             	mov    %rsp,%rbp
  40b5c6:	48 89 7d f8          	mov    %rdi,-0x8(%rbp)
  40b5ca:	48 89 75 f0          	mov    %rsi,-0x10(%rbp)
  40b5ce:	48 8b 45 f0          	mov    -0x10(%rbp),%rax
  40b5d2:	5d                   	pop    %rbp
  40b5d3:	c3                   	retq   

000000000040b5d4 <_ZNSt16allocator_traitsISaISt13_Rb_tree_nodeISt4pairIKNSt7__cxx1112basic_stringIcSt11char_traitsIcESaIcEEE6SymbolEEEE8allocateERSC_m>:
  40b5d4:	55                   	push   %rbp
  40b5d5:	48 89 e5             	mov    %rsp,%rbp
  40b5d8:	48 83 ec 10          	sub    $0x10,%rsp
  40b5dc:	48 89 7d f8          	mov    %rdi,-0x8(%rbp)
  40b5e0:	48 89 75 f0          	mov    %rsi,-0x10(%rbp)
  40b5e4:	48 8b 4d f0          	mov    -0x10(%rbp),%rcx
  40b5e8:	48 8b 45 f8          	mov    -0x8(%rbp),%rax
  40b5ec:	ba 00 00 00 00       	mov    $0x0,%edx
  40b5f1:	48 89 ce             	mov    %rcx,%rsi
  40b5f4:	48 89 c7             	mov    %rax,%rdi
  40b5f7:	e8 da 00 00 00       	callq  40b6d6 <_ZN9__gnu_cxx13new_allocatorISt13_Rb_tree_nodeISt4pairIKNSt7__cxx1112basic_stringIcSt11char_traitsIcESaIcEEE6SymbolEEE8allocateEmPKv>
  40b5fc:	c9                   	leaveq 
  40b5fd:	c3                   	retq   

000000000040b5fe <_ZNSt16allocator_traitsISaISt13_Rb_tree_nodeISt4pairIKNSt7__cxx1112basic_stringIcSt11char_traitsIcESaIcEEE6SymbolEEEE9constructISA_JRKSt21piecewise_construct_tSt5tupleIJRS8_EESI_IJEEEEEvRSC_PT_DpOT0_>:
  40b5fe:	55                   	push   %rbp
  40b5ff:	48 89 e5             	mov    %rsp,%rbp
  40b602:	41 54                	push   %r12
  40b604:	53                   	push   %rbx
  40b605:	48 83 ec 30          	sub    $0x30,%rsp
  40b609:	48 89 7d e8          	mov    %rdi,-0x18(%rbp)
  40b60d:	48 89 75 e0          	mov    %rsi,-0x20(%rbp)
  40b611:	48 89 55 d8          	mov    %rdx,-0x28(%rbp)
  40b615:	48 89 4d d0          	mov    %rcx,-0x30(%rbp)
  40b619:	4c 89 45 c8          	mov    %r8,-0x38(%rbp)
  40b61d:	48 8b 45 c8          	mov    -0x38(%rbp),%rax
  40b621:	48 89 c7             	mov    %rax,%rdi
  40b624:	e8 93 f4 ff ff       	callq  40aabc <_ZSt7forwardISt5tupleIJEEEOT_RNSt16remove_referenceIS2_E4typeE>
  40b629:	49 89 c4             	mov    %rax,%r12
  40b62c:	48 8b 45 d0          	mov    -0x30(%rbp),%rax
  40b630:	48 89 c7             	mov    %rax,%rdi
  40b633:	e8 76 f4 ff ff       	callq  40aaae <_ZSt7forwardISt5tupleIJRKNSt7__cxx1112basic_stringIcSt11char_traitsIcESaIcEEEEEEOT_RNSt16remove_referenceISA_E4typeE>
  40b638:	48 89 c3             	mov    %rax,%rbx
  40b63b:	48 8b 45 d8          	mov    -0x28(%rbp),%rax
  40b63f:	48 89 c7             	mov    %rax,%rdi
  40b642:	e8 59 f4 ff ff       	callq  40aaa0 <_ZSt7forwardIRKSt21piecewise_construct_tEOT_RNSt16remove_referenceIS3_E4typeE>
  40b647:	48 89 c2             	mov    %rax,%rdx
  40b64a:	48 8b 75 e0          	mov    -0x20(%rbp),%rsi
  40b64e:	48 8b 45 e8          	mov    -0x18(%rbp),%rax
  40b652:	4d 89 e0             	mov    %r12,%r8
  40b655:	48 89 d9             	mov    %rbx,%rcx
  40b658:	48 89 c7             	mov    %rax,%rdi
  40b65b:	e8 f2 00 00 00       	callq  40b752 <_ZN9__gnu_cxx13new_allocatorISt13_Rb_tree_nodeISt4pairIKNSt7__cxx1112basic_stringIcSt11char_traitsIcESaIcEEE6SymbolEEE9constructISB_JRKSt21piecewise_construct_tSt5tupleIJRS9_EESI_IJEEEEEvPT_DpOT0_>
  40b660:	90                   	nop
  40b661:	48 83 c4 30          	add    $0x30,%rsp
  40b665:	5b                   	pop    %rbx
  40b666:	41 5c                	pop    %r12
  40b668:	5d                   	pop    %rbp
  40b669:	c3                   	retq   

000000000040b66a <_ZSt7forwardIRPSt18_Rb_tree_node_baseEOT_RNSt16remove_referenceIS3_E4typeE>:
  40b66a:	55                   	push   %rbp
  40b66b:	48 89 e5             	mov    %rsp,%rbp
  40b66e:	48 89 7d f8          	mov    %rdi,-0x8(%rbp)
  40b672:	48 8b 45 f8          	mov    -0x8(%rbp),%rax
  40b676:	5d                   	pop    %rbp
  40b677:	c3                   	retq   

000000000040b678 <_ZNSt4pairIPSt18_Rb_tree_node_baseS1_EC1IRPSt13_Rb_tree_nodeIS_IKNSt7__cxx1112basic_stringIcSt11char_traitsIcESaIcEEE6SymbolEERS1_Lb1EEEOT_OT0_>:
  40b678:	55                   	push   %rbp
  40b679:	48 89 e5             	mov    %rsp,%rbp
  40b67c:	48 83 ec 20          	sub    $0x20,%rsp
  40b680:	48 89 7d f8          	mov    %rdi,-0x8(%rbp)
  40b684:	48 89 75 f0          	mov    %rsi,-0x10(%rbp)
  40b688:	48 89 55 e8          	mov    %rdx,-0x18(%rbp)
  40b68c:	48 8b 45 f0          	mov    -0x10(%rbp),%rax
  40b690:	48 89 c7             	mov    %rax,%rdi
  40b693:	e8 5a 01 00 00       	callq  40b7f2 <_ZSt7forwardIRPSt13_Rb_tree_nodeISt4pairIKNSt7__cxx1112basic_stringIcSt11char_traitsIcESaIcEEE6SymbolEEEOT_RNSt16remove_referenceISE_E4typeE>
  40b698:	48 8b 10             	mov    (%rax),%rdx
  40b69b:	48 8b 45 f8          	mov    -0x8(%rbp),%rax
  40b69f:	48 89 10             	mov    %rdx,(%rax)
  40b6a2:	48 8b 45 e8          	mov    -0x18(%rbp),%rax
  40b6a6:	48 89 c7             	mov    %rax,%rdi
  40b6a9:	e8 bc ff ff ff       	callq  40b66a <_ZSt7forwardIRPSt18_Rb_tree_node_baseEOT_RNSt16remove_referenceIS3_E4typeE>
  40b6ae:	48 8b 10             	mov    (%rax),%rdx
  40b6b1:	48 8b 45 f8          	mov    -0x8(%rbp),%rax
  40b6b5:	48 89 50 08          	mov    %rdx,0x8(%rax)
  40b6b9:	90                   	nop
  40b6ba:	c9                   	leaveq 
  40b6bb:	c3                   	retq   

000000000040b6bc <_ZNK9__gnu_cxx16__aligned_membufISt4pairIKNSt7__cxx1112basic_stringIcSt11char_traitsIcESaIcEEE6SymbolEE6_M_ptrEv>:
  40b6bc:	55                   	push   %rbp
  40b6bd:	48 89 e5             	mov    %rsp,%rbp
  40b6c0:	48 83 ec 10          	sub    $0x10,%rsp
  40b6c4:	48 89 7d f8          	mov    %rdi,-0x8(%rbp)
  40b6c8:	48 8b 45 f8          	mov    -0x8(%rbp),%rax
  40b6cc:	48 89 c7             	mov    %rax,%rdi
  40b6cf:	e8 2c 01 00 00       	callq  40b800 <_ZNK9__gnu_cxx16__aligned_membufISt4pairIKNSt7__cxx1112basic_stringIcSt11char_traitsIcESaIcEEE6SymbolEE7_M_addrEv>
  40b6d4:	c9                   	leaveq 
  40b6d5:	c3                   	retq   

000000000040b6d6 <_ZN9__gnu_cxx13new_allocatorISt13_Rb_tree_nodeISt4pairIKNSt7__cxx1112basic_stringIcSt11char_traitsIcESaIcEEE6SymbolEEE8allocateEmPKv>:
  40b6d6:	55                   	push   %rbp
  40b6d7:	48 89 e5             	mov    %rsp,%rbp
  40b6da:	48 83 ec 20          	sub    $0x20,%rsp
  40b6de:	48 89 7d f8          	mov    %rdi,-0x8(%rbp)
  40b6e2:	48 89 75 f0          	mov    %rsi,-0x10(%rbp)
  40b6e6:	48 89 55 e8          	mov    %rdx,-0x18(%rbp)
  40b6ea:	48 8b 45 f8          	mov    -0x8(%rbp),%rax
  40b6ee:	48 89 c7             	mov    %rax,%rdi
  40b6f1:	e8 18 01 00 00       	callq  40b80e <_ZNK9__gnu_cxx13new_allocatorISt13_Rb_tree_nodeISt4pairIKNSt7__cxx1112basic_stringIcSt11char_traitsIcESaIcEEE6SymbolEEE8max_sizeEv>
  40b6f6:	48 39 45 f0          	cmp    %rax,-0x10(%rbp)
  40b6fa:	0f 97 c0             	seta   %al
  40b6fd:	84 c0                	test   %al,%al
  40b6ff:	74 05                	je     40b706 <_ZN9__gnu_cxx13new_allocatorISt13_Rb_tree_nodeISt4pairIKNSt7__cxx1112basic_stringIcSt11char_traitsIcESaIcEEE6SymbolEEE8allocateEmPKv+0x30>
  40b701:	e8 fa 79 ff ff       	callq  403100 <_ZSt17__throw_bad_allocv@plt>
  40b706:	48 8b 55 f0          	mov    -0x10(%rbp),%rdx
  40b70a:	48 89 d0             	mov    %rdx,%rax
  40b70d:	48 01 c0             	add    %rax,%rax
  40b710:	48 01 d0             	add    %rdx,%rax
  40b713:	48 8d 14 c5 00 00 00 	lea    0x0(,%rax,8),%rdx
  40b71a:	00 
  40b71b:	48 01 d0             	add    %rdx,%rax
  40b71e:	48 c1 e0 03          	shl    $0x3,%rax
  40b722:	48 89 c7             	mov    %rax,%rdi
  40b725:	e8 56 7b ff ff       	callq  403280 <_Znwm@plt>
  40b72a:	c9                   	leaveq 
  40b72b:	c3                   	retq   

000000000040b72c <_ZNSt5tupleIJRKNSt7__cxx1112basic_stringIcSt11char_traitsIcESaIcEEEEEC1EOS8_>:
  40b72c:	55                   	push   %rbp
  40b72d:	48 89 e5             	mov    %rsp,%rbp
  40b730:	48 83 ec 10          	sub    $0x10,%rsp
  40b734:	48 89 7d f8          	mov    %rdi,-0x8(%rbp)
  40b738:	48 89 75 f0          	mov    %rsi,-0x10(%rbp)
  40b73c:	48 8b 45 f8          	mov    -0x8(%rbp),%rax
  40b740:	48 8b 55 f0          	mov    -0x10(%rbp),%rdx
  40b744:	48 89 d6             	mov    %rdx,%rsi
  40b747:	48 89 c7             	mov    %rax,%rdi
  40b74a:	e8 d3 00 00 00       	callq  40b822 <_ZNSt11_Tuple_implILm0EJRKNSt7__cxx1112basic_stringIcSt11char_traitsIcESaIcEEEEEC1EOS8_>
  40b74f:	90                   	nop
  40b750:	c9                   	leaveq 
  40b751:	c3                   	retq   

000000000040b752 <_ZN9__gnu_cxx13new_allocatorISt13_Rb_tree_nodeISt4pairIKNSt7__cxx1112basic_stringIcSt11char_traitsIcESaIcEEE6SymbolEEE9constructISB_JRKSt21piecewise_construct_tSt5tupleIJRS9_EESI_IJEEEEEvPT_DpOT0_>:
  40b752:	55                   	push   %rbp
  40b753:	48 89 e5             	mov    %rsp,%rbp
  40b756:	41 55                	push   %r13
  40b758:	41 54                	push   %r12
  40b75a:	53                   	push   %rbx
  40b75b:	48 83 ec 58          	sub    $0x58,%rsp
  40b75f:	48 89 7d b8          	mov    %rdi,-0x48(%rbp)
  40b763:	48 89 75 b0          	mov    %rsi,-0x50(%rbp)
  40b767:	48 89 55 a8          	mov    %rdx,-0x58(%rbp)
  40b76b:	48 89 4d a0          	mov    %rcx,-0x60(%rbp)
  40b76f:	4c 89 45 98          	mov    %r8,-0x68(%rbp)
  40b773:	48 8b 45 a8          	mov    -0x58(%rbp),%rax
  40b777:	48 89 c7             	mov    %rax,%rdi
  40b77a:	e8 21 f3 ff ff       	callq  40aaa0 <_ZSt7forwardIRKSt21piecewise_construct_tEOT_RNSt16remove_referenceIS3_E4typeE>
  40b77f:	48 8b 45 a0          	mov    -0x60(%rbp),%rax
  40b783:	48 89 c7             	mov    %rax,%rdi
  40b786:	e8 23 f3 ff ff       	callq  40aaae <_ZSt7forwardISt5tupleIJRKNSt7__cxx1112basic_stringIcSt11char_traitsIcESaIcEEEEEEOT_RNSt16remove_referenceISA_E4typeE>
  40b78b:	48 89 c2             	mov    %rax,%rdx
  40b78e:	48 8d 45 d0          	lea    -0x30(%rbp),%rax
  40b792:	48 89 d6             	mov    %rdx,%rsi
  40b795:	48 89 c7             	mov    %rax,%rdi
  40b798:	e8 8f ff ff ff       	callq  40b72c <_ZNSt5tupleIJRKNSt7__cxx1112basic_stringIcSt11char_traitsIcESaIcEEEEEC1EOS8_>
  40b79d:	4c 8d 6d d0          	lea    -0x30(%rbp),%r13
  40b7a1:	48 8b 45 98          	mov    -0x68(%rbp),%rax
  40b7a5:	48 89 c7             	mov    %rax,%rdi
  40b7a8:	e8 0f f3 ff ff       	callq  40aabc <_ZSt7forwardISt5tupleIJEEEOT_RNSt16remove_referenceIS2_E4typeE>
  40b7ad:	48 8b 5d b0          	mov    -0x50(%rbp),%rbx
  40b7b1:	48 89 de             	mov    %rbx,%rsi
  40b7b4:	bf b8 00 00 00       	mov    $0xb8,%edi
  40b7b9:	e8 51 b3 ff ff       	callq  406b0f <_ZnwmPv>
  40b7be:	49 89 c4             	mov    %rax,%r12
  40b7c1:	4c 89 ee             	mov    %r13,%rsi
  40b7c4:	4c 89 e7             	mov    %r12,%rdi
  40b7c7:	e8 92 00 00 00       	callq  40b85e <_ZNSt4pairIKNSt7__cxx1112basic_stringIcSt11char_traitsIcESaIcEEE6SymbolEC1IJRS6_EJEEESt21piecewise_construct_tSt5tupleIJDpT_EESC_IJDpT0_EE>
  40b7cc:	eb 19                	jmp    40b7e7 <_ZN9__gnu_cxx13new_allocatorISt13_Rb_tree_nodeISt4pairIKNSt7__cxx1112basic_stringIcSt11char_traitsIcESaIcEEE6SymbolEEE9constructISB_JRKSt21piecewise_construct_tSt5tupleIJRS9_EESI_IJEEEEEvPT_DpOT0_+0x95>
  40b7ce:	49 89 c5             	mov    %rax,%r13
  40b7d1:	48 89 de             	mov    %rbx,%rsi
  40b7d4:	4c 89 e7             	mov    %r12,%rdi
  40b7d7:	e8 0b e6 ff ff       	callq  409de7 <_ZdlPvS_>
  40b7dc:	4c 89 e8             	mov    %r13,%rax
  40b7df:	48 89 c7             	mov    %rax,%rdi
  40b7e2:	e8 89 7c ff ff       	callq  403470 <_Unwind_Resume@plt>
  40b7e7:	48 83 c4 58          	add    $0x58,%rsp
  40b7eb:	5b                   	pop    %rbx
  40b7ec:	41 5c                	pop    %r12
  40b7ee:	41 5d                	pop    %r13
  40b7f0:	5d                   	pop    %rbp
  40b7f1:	c3                   	retq   

000000000040b7f2 <_ZSt7forwardIRPSt13_Rb_tree_nodeISt4pairIKNSt7__cxx1112basic_stringIcSt11char_traitsIcESaIcEEE6SymbolEEEOT_RNSt16remove_referenceISE_E4typeE>:
  40b7f2:	55                   	push   %rbp
  40b7f3:	48 89 e5             	mov    %rsp,%rbp
  40b7f6:	48 89 7d f8          	mov    %rdi,-0x8(%rbp)
  40b7fa:	48 8b 45 f8          	mov    -0x8(%rbp),%rax
  40b7fe:	5d                   	pop    %rbp
  40b7ff:	c3                   	retq   

000000000040b800 <_ZNK9__gnu_cxx16__aligned_membufISt4pairIKNSt7__cxx1112basic_stringIcSt11char_traitsIcESaIcEEE6SymbolEE7_M_addrEv>:
  40b800:	55                   	push   %rbp
  40b801:	48 89 e5             	mov    %rsp,%rbp
  40b804:	48 89 7d f8          	mov    %rdi,-0x8(%rbp)
  40b808:	48 8b 45 f8          	mov    -0x8(%rbp),%rax
  40b80c:	5d                   	pop    %rbp
  40b80d:	c3                   	retq   

000000000040b80e <_ZNK9__gnu_cxx13new_allocatorISt13_Rb_tree_nodeISt4pairIKNSt7__cxx1112basic_stringIcSt11char_traitsIcESaIcEEE6SymbolEEE8max_sizeEv>:
  40b80e:	55                   	push   %rbp
  40b80f:	48 89 e5             	mov    %rsp,%rbp
  40b812:	48 89 7d f8          	mov    %rdi,-0x8(%rbp)
  40b816:	48 b8 84 f6 12 da 4b 	movabs $0x12f684bda12f684,%rax
  40b81d:	68 2f 01 
  40b820:	5d                   	pop    %rbp
  40b821:	c3                   	retq   

000000000040b822 <_ZNSt11_Tuple_implILm0EJRKNSt7__cxx1112basic_stringIcSt11char_traitsIcESaIcEEEEEC1EOS8_>:
  40b822:	55                   	push   %rbp
  40b823:	48 89 e5             	mov    %rsp,%rbp
  40b826:	53                   	push   %rbx
  40b827:	48 83 ec 18          	sub    $0x18,%rsp
  40b82b:	48 89 7d e8          	mov    %rdi,-0x18(%rbp)
  40b82f:	48 89 75 e0          	mov    %rsi,-0x20(%rbp)
  40b833:	48 8b 5d e8          	mov    -0x18(%rbp),%rbx
  40b837:	48 8b 45 e0          	mov    -0x20(%rbp),%rax
  40b83b:	48 89 c7             	mov    %rax,%rdi
  40b83e:	e8 45 00 00 00       	callq  40b888 <_ZNSt11_Tuple_implILm0EJRKNSt7__cxx1112basic_stringIcSt11char_traitsIcESaIcEEEEE7_M_headERS8_>
  40b843:	48 89 c7             	mov    %rax,%rdi
  40b846:	e8 57 00 00 00       	callq  40b8a2 <_ZSt7forwardIRKNSt7__cxx1112basic_stringIcSt11char_traitsIcESaIcEEEEOT_RNSt16remove_referenceIS8_E4typeE>
  40b84b:	48 89 c6             	mov    %rax,%rsi
  40b84e:	48 89 df             	mov    %rbx,%rdi
  40b851:	e8 64 f9 ff ff       	callq  40b1ba <_ZNSt10_Head_baseILm0ERKNSt7__cxx1112basic_stringIcSt11char_traitsIcESaIcEEELb0EEC1ES7_>
  40b856:	90                   	nop
  40b857:	48 83 c4 18          	add    $0x18,%rsp
  40b85b:	5b                   	pop    %rbx
  40b85c:	5d                   	pop    %rbp
  40b85d:	c3                   	retq   

000000000040b85e <_ZNSt4pairIKNSt7__cxx1112basic_stringIcSt11char_traitsIcESaIcEEE6SymbolEC1IJRS6_EJEEESt21piecewise_construct_tSt5tupleIJDpT_EESC_IJDpT0_EE>:
  40b85e:	55                   	push   %rbp
  40b85f:	48 89 e5             	mov    %rsp,%rbp
  40b862:	48 83 ec 30          	sub    $0x30,%rsp
  40b866:	48 89 7d e8          	mov    %rdi,-0x18(%rbp)
  40b86a:	48 89 75 e0          	mov    %rsi,-0x20(%rbp)
  40b86e:	48 8d 55 df          	lea    -0x21(%rbp),%rdx
  40b872:	48 8b 4d e0          	mov    -0x20(%rbp),%rcx
  40b876:	48 8b 45 e8          	mov    -0x18(%rbp),%rax
  40b87a:	48 89 ce             	mov    %rcx,%rsi
  40b87d:	48 89 c7             	mov    %rax,%rdi
  40b880:	e8 2b 00 00 00       	callq  40b8b0 <_ZNSt4pairIKNSt7__cxx1112basic_stringIcSt11char_traitsIcESaIcEEE6SymbolEC1IJRS6_EJLm0EEJEJEEERSt5tupleIJDpT_EERSB_IJDpT1_EESt12_Index_tupleIJXspT0_EEESK_IJXspT2_EEE>
  40b885:	90                   	nop
  40b886:	c9                   	leaveq 
  40b887:	c3                   	retq   

000000000040b888 <_ZNSt11_Tuple_implILm0EJRKNSt7__cxx1112basic_stringIcSt11char_traitsIcESaIcEEEEE7_M_headERS8_>:
  40b888:	55                   	push   %rbp
  40b889:	48 89 e5             	mov    %rsp,%rbp
  40b88c:	48 83 ec 10          	sub    $0x10,%rsp
  40b890:	48 89 7d f8          	mov    %rdi,-0x8(%rbp)
  40b894:	48 8b 45 f8          	mov    -0x8(%rbp),%rax
  40b898:	48 89 c7             	mov    %rax,%rdi
  40b89b:	e8 78 00 00 00       	callq  40b918 <_ZNSt10_Head_baseILm0ERKNSt7__cxx1112basic_stringIcSt11char_traitsIcESaIcEEELb0EE7_M_headERS8_>
  40b8a0:	c9                   	leaveq 
  40b8a1:	c3                   	retq   

000000000040b8a2 <_ZSt7forwardIRKNSt7__cxx1112basic_stringIcSt11char_traitsIcESaIcEEEEOT_RNSt16remove_referenceIS8_E4typeE>:
  40b8a2:	55                   	push   %rbp
  40b8a3:	48 89 e5             	mov    %rsp,%rbp
  40b8a6:	48 89 7d f8          	mov    %rdi,-0x8(%rbp)
  40b8aa:	48 8b 45 f8          	mov    -0x8(%rbp),%rax
  40b8ae:	5d                   	pop    %rbp
  40b8af:	c3                   	retq   

000000000040b8b0 <_ZNSt4pairIKNSt7__cxx1112basic_stringIcSt11char_traitsIcESaIcEEE6SymbolEC1IJRS6_EJLm0EEJEJEEERSt5tupleIJDpT_EERSB_IJDpT1_EESt12_Index_tupleIJXspT0_EEESK_IJXspT2_EEE>:
  40b8b0:	55                   	push   %rbp
  40b8b1:	48 89 e5             	mov    %rsp,%rbp
  40b8b4:	53                   	push   %rbx
  40b8b5:	48 83 ec 28          	sub    $0x28,%rsp
  40b8b9:	48 89 7d e8          	mov    %rdi,-0x18(%rbp)
  40b8bd:	48 89 75 e0          	mov    %rsi,-0x20(%rbp)
  40b8c1:	48 89 55 d8          	mov    %rdx,-0x28(%rbp)
  40b8c5:	48 8b 5d e8          	mov    -0x18(%rbp),%rbx
  40b8c9:	48 8b 45 e0          	mov    -0x20(%rbp),%rax
  40b8cd:	48 89 c7             	mov    %rax,%rdi
  40b8d0:	e8 54 00 00 00       	callq  40b929 <_ZSt3getILm0EJRKNSt7__cxx1112basic_stringIcSt11char_traitsIcESaIcEEEEERNSt13tuple_elementIXT_ESt5tupleIJDpT0_EEE4typeERSC_>
  40b8d5:	48 89 c7             	mov    %rax,%rdi
  40b8d8:	e8 c5 ff ff ff       	callq  40b8a2 <_ZSt7forwardIRKNSt7__cxx1112basic_stringIcSt11char_traitsIcESaIcEEEEOT_RNSt16remove_referenceIS8_E4typeE>
  40b8dd:	48 89 c6             	mov    %rax,%rsi
  40b8e0:	48 89 df             	mov    %rbx,%rdi
  40b8e3:	e8 48 78 ff ff       	callq  403130 <_ZNSt7__cxx1112basic_stringIcSt11char_traitsIcESaIcEEC1ERKS4_@plt>
  40b8e8:	48 8b 45 e8          	mov    -0x18(%rbp),%rax
  40b8ec:	48 8d 50 20          	lea    0x20(%rax),%rdx
  40b8f0:	b8 00 00 00 00       	mov    $0x0,%eax
  40b8f5:	b9 13 00 00 00       	mov    $0x13,%ecx
  40b8fa:	48 89 d7             	mov    %rdx,%rdi
  40b8fd:	f3 48 ab             	rep stos %rax,%es:(%rdi)
  40b900:	48 8b 45 e8          	mov    -0x18(%rbp),%rax
  40b904:	48 83 c0 20          	add    $0x20,%rax
  40b908:	48 89 c7             	mov    %rax,%rdi
  40b90b:	e8 a6 e6 ff ff       	callq  409fb6 <_ZN6SymbolC1Ev>
  40b910:	90                   	nop
  40b911:	48 83 c4 28          	add    $0x28,%rsp
  40b915:	5b                   	pop    %rbx
  40b916:	5d                   	pop    %rbp
  40b917:	c3                   	retq   

000000000040b918 <_ZNSt10_Head_baseILm0ERKNSt7__cxx1112basic_stringIcSt11char_traitsIcESaIcEEELb0EE7_M_headERS8_>:
  40b918:	55                   	push   %rbp
  40b919:	48 89 e5             	mov    %rsp,%rbp
  40b91c:	48 89 7d f8          	mov    %rdi,-0x8(%rbp)
  40b920:	48 8b 45 f8          	mov    -0x8(%rbp),%rax
  40b924:	48 8b 00             	mov    (%rax),%rax
  40b927:	5d                   	pop    %rbp
  40b928:	c3                   	retq   

000000000040b929 <_ZSt3getILm0EJRKNSt7__cxx1112basic_stringIcSt11char_traitsIcESaIcEEEEERNSt13tuple_elementIXT_ESt5tupleIJDpT0_EEE4typeERSC_>:
  40b929:	55                   	push   %rbp
  40b92a:	48 89 e5             	mov    %rsp,%rbp
  40b92d:	48 83 ec 10          	sub    $0x10,%rsp
  40b931:	48 89 7d f8          	mov    %rdi,-0x8(%rbp)
  40b935:	48 8b 45 f8          	mov    -0x8(%rbp),%rax
  40b939:	48 89 c7             	mov    %rax,%rdi
  40b93c:	e8 02 00 00 00       	callq  40b943 <_ZSt12__get_helperILm0ERKNSt7__cxx1112basic_stringIcSt11char_traitsIcESaIcEEEJEERT0_RSt11_Tuple_implIXT_EJS8_DpT1_EE>
  40b941:	c9                   	leaveq 
  40b942:	c3                   	retq   

000000000040b943 <_ZSt12__get_helperILm0ERKNSt7__cxx1112basic_stringIcSt11char_traitsIcESaIcEEEJEERT0_RSt11_Tuple_implIXT_EJS8_DpT1_EE>:
  40b943:	55                   	push   %rbp
  40b944:	48 89 e5             	mov    %rsp,%rbp
  40b947:	48 83 ec 10          	sub    $0x10,%rsp
  40b94b:	48 89 7d f8          	mov    %rdi,-0x8(%rbp)
  40b94f:	48 8b 45 f8          	mov    -0x8(%rbp),%rax
  40b953:	48 89 c7             	mov    %rax,%rdi
  40b956:	e8 2d ff ff ff       	callq  40b888 <_ZNSt11_Tuple_implILm0EJRKNSt7__cxx1112basic_stringIcSt11char_traitsIcESaIcEEEEE7_M_headERS8_>
  40b95b:	c9                   	leaveq 
  40b95c:	c3                   	retq   
  40b95d:	0f 1f 00             	nopl   (%rax)

000000000040b960 <__libc_csu_init>:
  40b960:	f3 0f 1e fa          	endbr64 
  40b964:	41 57                	push   %r15
  40b966:	4c 8d 3d 63 84 00 00 	lea    0x8463(%rip),%r15        # 413dd0 <__frame_dummy_init_array_entry>
  40b96d:	41 56                	push   %r14
  40b96f:	49 89 d6             	mov    %rdx,%r14
  40b972:	41 55                	push   %r13
  40b974:	49 89 f5             	mov    %rsi,%r13
  40b977:	41 54                	push   %r12
  40b979:	41 89 fc             	mov    %edi,%r12d
  40b97c:	55                   	push   %rbp
  40b97d:	48 8d 2d 64 84 00 00 	lea    0x8464(%rip),%rbp        # 413de8 <__do_global_dtors_aux_fini_array_entry>
  40b984:	53                   	push   %rbx
  40b985:	4c 29 fd             	sub    %r15,%rbp
  40b988:	48 83 ec 08          	sub    $0x8,%rsp
  40b98c:	e8 6f 76 ff ff       	callq  403000 <_init>
  40b991:	48 c1 fd 03          	sar    $0x3,%rbp
  40b995:	74 1f                	je     40b9b6 <__libc_csu_init+0x56>
  40b997:	31 db                	xor    %ebx,%ebx
  40b999:	0f 1f 80 00 00 00 00 	nopl   0x0(%rax)
  40b9a0:	4c 89 f2             	mov    %r14,%rdx
  40b9a3:	4c 89 ee             	mov    %r13,%rsi
  40b9a6:	44 89 e7             	mov    %r12d,%edi
  40b9a9:	41 ff 14 df          	callq  *(%r15,%rbx,8)
  40b9ad:	48 83 c3 01          	add    $0x1,%rbx
  40b9b1:	48 39 dd             	cmp    %rbx,%rbp
  40b9b4:	75 ea                	jne    40b9a0 <__libc_csu_init+0x40>
  40b9b6:	48 83 c4 08          	add    $0x8,%rsp
  40b9ba:	5b                   	pop    %rbx
  40b9bb:	5d                   	pop    %rbp
  40b9bc:	41 5c                	pop    %r12
  40b9be:	41 5d                	pop    %r13
  40b9c0:	41 5e                	pop    %r14
  40b9c2:	41 5f                	pop    %r15
  40b9c4:	c3                   	retq   
  40b9c5:	66 66 2e 0f 1f 84 00 	data16 nopw %cs:0x0(%rax,%rax,1)
  40b9cc:	00 00 00 00 

000000000040b9d0 <__libc_csu_fini>:
  40b9d0:	f3 0f 1e fa          	endbr64 
  40b9d4:	c3                   	retq   

Disassembly of section .fini:

000000000040b9d8 <_fini>:
  40b9d8:	f3 0f 1e fa          	endbr64 
  40b9dc:	48 83 ec 08          	sub    $0x8,%rsp
  40b9e0:	48 83 c4 08          	add    $0x8,%rsp
  40b9e4:	c3                   	retq   
